Archive member included to satisfy reference by file (symbol)

c:/program files (x86)/microchip/xc32/v2.30/bin/bin/../../lib/gcc/pic32c/6.2.1/../../../../pic32c/lib/v7e-m/fpv4-sp/hard\libpic32c.a(data_init.o)
                              build/LAN9253_D51_SQI_direct_mode/production/_ext/1171490990/startup_xc32.o (__pic32c_data_initialization)
c:/program files (x86)/microchip/xc32/v2.30/bin/bin/../../lib/gcc/pic32c/6.2.1/../../../../pic32c/lib/v7e-m/fpv4-sp/hard\libc.a(lib_a-init.o)
                              build/LAN9253_D51_SQI_direct_mode/production/_ext/1171490990/startup_xc32.o (__libc_init_array)
c:/program files (x86)/microchip/xc32/v2.30/bin/bin/../../lib/gcc/pic32c/6.2.1/../../../../pic32c/lib/v7e-m/fpv4-sp/hard\libc.a(lib_a-malloc.o)
                              build/LAN9253_D51_SQI_direct_mode/production/_ext/108134065/ecatcoe.o (malloc)
c:/program files (x86)/microchip/xc32/v2.30/bin/bin/../../lib/gcc/pic32c/6.2.1/../../../../pic32c/lib/v7e-m/fpv4-sp/hard\libc.a(lib_a-mallocr.o)
                              c:/program files (x86)/microchip/xc32/v2.30/bin/bin/../../lib/gcc/pic32c/6.2.1/../../../../pic32c/lib/v7e-m/fpv4-sp/hard\libc.a(lib_a-malloc.o) (_malloc_r)
c:/program files (x86)/microchip/xc32/v2.30/bin/bin/../../lib/gcc/pic32c/6.2.1/../../../../pic32c/lib/v7e-m/fpv4-sp/hard\libc.a(lib_a-memcpy-stub.o)
                              build/LAN9253_D51_SQI_direct_mode/production/_ext/1593096446/plib_nvmctrl.o (memcpy)
c:/program files (x86)/microchip/xc32/v2.30/bin/bin/../../lib/gcc/pic32c/6.2.1/../../../../pic32c/lib/v7e-m/fpv4-sp/hard\libc.a(lib_a-memset.o)
                              build/LAN9253_D51_SQI_direct_mode/production/_ext/1671622979/Drivers.o (memset)
c:/program files (x86)/microchip/xc32/v2.30/bin/bin/../../lib/gcc/pic32c/6.2.1/../../../../pic32c/lib/v7e-m/fpv4-sp/hard\libc.a(lib_a-mlock.o)
                              c:/program files (x86)/microchip/xc32/v2.30/bin/bin/../../lib/gcc/pic32c/6.2.1/../../../../pic32c/lib/v7e-m/fpv4-sp/hard\libc.a(lib_a-mallocr.o) (__malloc_lock)
c:/program files (x86)/microchip/xc32/v2.30/bin/bin/../../lib/gcc/pic32c/6.2.1/../../../../pic32c/lib/v7e-m/fpv4-sp/hard\libc.a(lib_a-sbrkr.o)
                              c:/program files (x86)/microchip/xc32/v2.30/bin/bin/../../lib/gcc/pic32c/6.2.1/../../../../pic32c/lib/v7e-m/fpv4-sp/hard\libc.a(lib_a-mallocr.o) (_sbrk_r)
c:/program files (x86)/microchip/xc32/v2.30/bin/bin/../../lib/gcc/pic32c/6.2.1/../../../../pic32c/lib/v7e-m/fpv4-sp/hard\libc.a(lib_a-strlen.o)
                              build/LAN9253_D51_SQI_direct_mode/production/_ext/108134065/objdef.o (strlen)
c:/program files (x86)/microchip/xc32/v2.30/bin/bin/../../lib/gcc/pic32c/6.2.1/../../../../pic32c/lib/v7e-m/fpv4-sp/hard\libc.a(lib_a-freer.o)
                              c:/program files (x86)/microchip/xc32/v2.30/bin/bin/../../lib/gcc/pic32c/6.2.1/../../../../pic32c/lib/v7e-m/fpv4-sp/hard\libc.a(lib_a-malloc.o) (_free_r)
c:/program files (x86)/microchip/xc32/v2.30/bin/bin/../../lib/gcc/pic32c/6.2.1/../../../../pic32c/lib/v7e-m/fpv4-sp/hard\libc.a(lib_a-impure.o)
                              c:/program files (x86)/microchip/xc32/v2.30/bin/bin/../../lib/gcc/pic32c/6.2.1/../../../../pic32c/lib/v7e-m/fpv4-sp/hard\libc.a(lib_a-malloc.o) (_impure_ptr)
c:/program files (x86)/microchip/xc32/v2.30/bin/bin/../../lib/gcc/pic32c/6.2.1/../../../../pic32c/lib/v7e-m/fpv4-sp/hard\libc.a(lib_a-reent.o)
                              c:/program files (x86)/microchip/xc32/v2.30/bin/bin/../../lib/gcc/pic32c/6.2.1/../../../../pic32c/lib/v7e-m/fpv4-sp/hard\libc.a(lib_a-sbrkr.o) (errno)
c:/program files (x86)/microchip/xc32/v2.30/bin/bin/../../lib/gcc/pic32c/6.2.1/../../../../pic32c/lib/v7e-m/fpv4-sp/hard\libpic32c.a(sbrk.o)
                              c:/program files (x86)/microchip/xc32/v2.30/bin/bin/../../lib/gcc/pic32c/6.2.1/../../../../pic32c/lib/v7e-m/fpv4-sp/hard\libc.a(lib_a-sbrkr.o) (_sbrk)

Allocating common symbols
Common symbol       size              file

b3BufferMode        0x1               build/LAN9253_D51_SQI_direct_mode/production/_ext/108134065/ecatslv.o
nEcatStateTrans     0x2               build/LAN9253_D51_SQI_direct_mode/production/_ext/108134065/ecatslv.o
EcatWdCounter       0x2               build/LAN9253_D51_SQI_direct_mode/production/_ext/108134065/ecatslv.o
sSendEmcyQueue      0x10              build/LAN9253_D51_SQI_direct_mode/production/_ext/108134065/emcy.o
bApplEsmPending     0x1               build/LAN9253_D51_SQI_direct_mode/production/_ext/108134065/ecatslv.o
pCoeSendStored      0x4               build/LAN9253_D51_SQI_direct_mode/production/_ext/108134065/ecatcoe.o
nSdoInfoIndex       0x2               build/LAN9253_D51_SQI_direct_mode/production/_ext/108134065/sdoserv.o
pStoreData          0x4               build/LAN9253_D51_SQI_direct_mode/production/_ext/108134065/sdoserv.o
u8MbxReadCounter    0x1               build/LAN9253_D51_SQI_direct_mode/production/_ext/108134065/mailbox.o
nAlStatus           0x1               build/LAN9253_D51_SQI_direct_mode/production/_ext/108134065/ecatslv.o
nPdOutputSize       0x2               build/LAN9253_D51_SQI_direct_mode/production/_ext/108134065/ecatslv.o
u32FileOffset       0x4               build/LAN9253_D51_SQI_direct_mode/production/_ext/108134065/ecatfoe.o
u16LocalErrorCode   0x2               build/LAN9253_D51_SQI_direct_mode/production/_ext/108134065/ecatslv.o
nSdoSegBytesToHandle
                    0x4               build/LAN9253_D51_SQI_direct_mode/production/_ext/108134065/sdoserv.o
errno               0x4               c:/program files (x86)/microchip/xc32/v2.30/bin/bin/../../lib/gcc/pic32c/6.2.1/../../../../pic32c/lib/v7e-m/fpv4-sp/hard\libc.a(lib_a-reent.o)
sMbxSendQueue       0x34              build/LAN9253_D51_SQI_direct_mode/production/_ext/108134065/mailbox.o
gEscALEvent         0x2               build/LAN9253_D51_SQI_direct_mode/production/_ext/108147519/LAN925x.o
sMbxReceiveQueue    0x34              build/LAN9253_D51_SQI_direct_mode/production/_ext/108134065/mailbox.o
bNoMbxMemoryAvailable
                    0x1               build/LAN9253_D51_SQI_direct_mode/production/_ext/108134065/mailbox.o
u16FileAccessState  0x2               build/LAN9253_D51_SQI_direct_mode/production/_ext/108134065/ecatfoe.o
Sync0WdCounter      0x2               build/LAN9253_D51_SQI_direct_mode/production/_ext/108134065/ecatslv.o
u32PacketNo         0x4               build/LAN9253_D51_SQI_direct_mode/production/_ext/108134065/ecatfoe.o
bMinCycleTimeMeasurementStarted
                    0x1               build/LAN9253_D51_SQI_direct_mode/production/_ext/108134065/ecatappl.o
bLocalErrorFlag     0x1               build/LAN9253_D51_SQI_direct_mode/production/_ext/108134065/ecatslv.o
bSendMbxIsFull      0x1               build/LAN9253_D51_SQI_direct_mode/production/_ext/108134065/mailbox.o
u32CycleTimeStartValue
                    0x4               build/LAN9253_D51_SQI_direct_mode/production/_ext/108134065/ecatappl.o
LatchInputSync0Counter
                    0x2               build/LAN9253_D51_SQI_direct_mode/production/_ext/108134065/ecatslv.o
i16WaitForPllRunningCnt
                    0x2               build/LAN9253_D51_SQI_direct_mode/production/_ext/108134065/ecatslv.o
nEscAddrOutputData  0x2               build/LAN9253_D51_SQI_direct_mode/production/_ext/108134065/ecatslv.o
bMbxRunning         0x1               build/LAN9253_D51_SQI_direct_mode/production/_ext/108134065/mailbox.o
aFileData           0x2000            build/LAN9253_D51_SQI_direct_mode/production/_ext/108134065/sample_app.o
Sync0WdValue        0x2               build/LAN9253_D51_SQI_direct_mode/production/_ext/108134065/ecatslv.o
u8EcatRunLed        0x1               build/LAN9253_D51_SQI_direct_mode/production/_ext/108134065/ecatslv.o
i16WaitForPllRunningTimeout
                    0x2               build/LAN9253_D51_SQI_direct_mode/production/_ext/108134065/ecatslv.o
bSdoSegAccess       0x1               build/LAN9253_D51_SQI_direct_mode/production/_ext/108134065/sdoserv.o
Sync1WdValue        0x2               build/LAN9253_D51_SQI_direct_mode/production/_ext/108134065/ecatslv.o
bSdoSegFollows      0x1               build/LAN9253_D51_SQI_direct_mode/production/_ext/108134065/sdoserv.o
nSdoSegCompleteSize
                    0x4               build/LAN9253_D51_SQI_direct_mode/production/_ext/108134065/sdoserv.o
u16ALEventMask      0x2               build/LAN9253_D51_SQI_direct_mode/production/_ext/108134065/ecatslv.o
pSdoPendFunc        0x4               build/LAN9253_D51_SQI_direct_mode/production/_ext/108134065/sdoserv.o
bDcRunning          0x1               build/LAN9253_D51_SQI_direct_mode/production/_ext/108134065/ecatslv.o
u32dummy            0x4               build/LAN9253_D51_SQI_direct_mode/production/_ext/108134065/ecatslv.o
bRunApplication     0x1               build/LAN9253_D51_SQI_direct_mode/production/_ext/108134065/ecatappl.o
u16EscAddrReceiveMbx
                    0x2               build/LAN9253_D51_SQI_direct_mode/production/_ext/108134065/mailbox.o
psStoreMbx          0x4               build/LAN9253_D51_SQI_direct_mode/production/_ext/108134065/mailbox.o
SyncManInfo         0x8               build/LAN9253_D51_SQI_direct_mode/production/_ext/108134065/ecatslv.o
b32BitDc            0x1               build/LAN9253_D51_SQI_direct_mode/production/_ext/108134065/ecatslv.o
u32SystemTimeReadFailure
                    0x4               build/LAN9253_D51_SQI_direct_mode/production/_ext/108134065/ecatappl.o
u8PendingSdo        0x1               build/LAN9253_D51_SQI_direct_mode/production/_ext/108134065/sdoserv.o
appData             0x1               build/LAN9253_D51_SQI_direct_mode/production/_ext/1360937237/app.o
LatchInputSync0Value
                    0x2               build/LAN9253_D51_SQI_direct_mode/production/_ext/108134065/ecatslv.o
u16SendMbxSize      0x2               build/LAN9253_D51_SQI_direct_mode/production/_ext/108134065/mailbox.o
bEcatWaitForAlControlRes
                    0x1               build/LAN9253_D51_SQI_direct_mode/production/_ext/108134065/ecatslv.o
psReadMbx           0x4               build/LAN9253_D51_SQI_direct_mode/production/_ext/108134065/mailbox.o
bEcatWaitForInputUpdate
                    0x1               build/LAN9253_D51_SQI_direct_mode/production/_ext/108134065/ecatappl.o
sSyncManInPar       0x44              build/LAN9253_D51_SQI_direct_mode/production/_ext/108134065/objdef.o
nPdInputSize        0x2               build/LAN9253_D51_SQI_direct_mode/production/_ext/108134065/ecatslv.o
u32MinCycleTimeValue
                    0x4               build/LAN9253_D51_SQI_direct_mode/production/_ext/108134065/ecatappl.o
gau8DmaBuff         0x800             build/LAN9253_D51_SQI_direct_mode/production/_ext/1671622979/Drivers.o
u16SmSync0Value     0x2               build/LAN9253_D51_SQI_direct_mode/production/_ext/108134065/ecatslv.o
bStoreCompleteAccess
                    0x1               build/LAN9253_D51_SQI_direct_mode/production/_ext/108134065/sdoserv.o
aPdOutputData       0x900             build/LAN9253_D51_SQI_direct_mode/production/_ext/108134065/ecatappl.o
bSdoSegLastToggle   0x1               build/LAN9253_D51_SQI_direct_mode/production/_ext/108134065/sdoserv.o
handle              0x4               build/LAN9253_D51_SQI_direct_mode/production/_ext/1171490990/initialization.o
eicCallbackObject   0xc0              build/LAN9253_D51_SQI_direct_mode/production/_ext/60167341/plib_eic.o
nSdoSegService      0x1               build/LAN9253_D51_SQI_direct_mode/production/_ext/108134065/sdoserv.o
bReceiveMbxIsLocked
                    0x1               build/LAN9253_D51_SQI_direct_mode/production/_ext/108134065/mailbox.o
pAPPL_FoeError      0x4               build/LAN9253_D51_SQI_direct_mode/production/_ext/108134065/ecatappl.o
u16EscAddrSendMbx   0x2               build/LAN9253_D51_SQI_direct_mode/production/_ext/108134065/mailbox.o
sysObj              0x4               build/LAN9253_D51_SQI_direct_mode/production/_ext/1171490990/initialization.o
nMaxEscAddress      0x2               build/LAN9253_D51_SQI_direct_mode/production/_ext/108134065/ecatslv.o
bEcatFirstOutputsReceived
                    0x1               build/LAN9253_D51_SQI_direct_mode/production/_ext/108134065/ecatslv.o
psWriteMbx          0x4               build/LAN9253_D51_SQI_direct_mode/production/_ext/108134065/mailbox.o
u8MbxWriteCounter   0x1               build/LAN9253_D51_SQI_direct_mode/production/_ext/108134065/mailbox.o
u32LastDc32Value    0x4               build/LAN9253_D51_SQI_direct_mode/production/_ext/108134065/coeappl.o
u32CheckForDcOverrunCnt
                    0x4               build/LAN9253_D51_SQI_direct_mode/production/_ext/108134065/coeappl.o
u8MailboxSendReqStored
                    0x1               build/LAN9253_D51_SQI_direct_mode/production/_ext/108134065/mailbox.o
pSdoInfoObjEntry    0x4               build/LAN9253_D51_SQI_direct_mode/production/_ext/108134065/sdoserv.o
bSmSyncSequenceValid
                    0x1               build/LAN9253_D51_SQI_direct_mode/production/_ext/108134065/ecatslv.o
nSdoInfoFragmentsLeft
                    0x2               build/LAN9253_D51_SQI_direct_mode/production/_ext/108134065/sdoserv.o
gau8ALeventstore    0x5               build/LAN9253_D51_SQI_direct_mode/production/_ext/1671622979/Drivers.o
EsmTimeoutCounter   0x2               build/LAN9253_D51_SQI_direct_mode/production/_ext/108134065/ecatslv.o
pAPPL_FoeReadData   0x4               build/LAN9253_D51_SQI_direct_mode/production/_ext/108134065/ecatappl.o
u16ReceiveMbxSize   0x2               build/LAN9253_D51_SQI_direct_mode/production/_ext/108134065/mailbox.o
pSdoResStored       0x4               build/LAN9253_D51_SQI_direct_mode/production/_ext/108134065/sdoserv.o
asEmcy              0x8               build/LAN9253_D51_SQI_direct_mode/production/_ext/108134065/emcy.o
bBootMode           0x1               build/LAN9253_D51_SQI_direct_mode/production/_ext/108134065/ecatslv.o
u32StoreDataSize    0x4               build/LAN9253_D51_SQI_direct_mode/production/_ext/108134065/sdoserv.o
transferTxHandle    0x4               build/LAN9253_D51_SQI_direct_mode/production/_ext/2070931557/drv_spi.o
pSdoSegData         0x4               build/LAN9253_D51_SQI_direct_mode/production/_ext/108134065/sdoserv.o
bDcSyncActive       0x1               build/LAN9253_D51_SQI_direct_mode/production/_ext/108134065/ecatslv.o
bEcatOutputUpdateRunning
                    0x1               build/LAN9253_D51_SQI_direct_mode/production/_ext/108134065/ecatslv.o
pAPPL_MainLoop      0x4               build/LAN9253_D51_SQI_direct_mode/production/_ext/108134065/ecatappl.o
sSyncManOutPar      0x44              build/LAN9253_D51_SQI_direct_mode/production/_ext/108134065/objdef.o
sEmptyEmcyQueue     0x10              build/LAN9253_D51_SQI_direct_mode/production/_ext/108134065/emcy.o
transferRxHandle    0x4               build/LAN9253_D51_SQI_direct_mode/production/_ext/2070931557/drv_spi.o
Sync1WdCounter      0x2               build/LAN9253_D51_SQI_direct_mode/production/_ext/108134065/ecatslv.o
setup               0x14              build/LAN9253_D51_SQI_direct_mode/production/_ext/2070931557/drv_spi.o
EcatWdValue         0x2               build/LAN9253_D51_SQI_direct_mode/production/_ext/108134065/ecatslv.o
bEtherCATErrorLed   0x1               build/LAN9253_D51_SQI_direct_mode/production/_ext/108134065/ecatappl.o
u32MinCycleTimeStartValue
                    0x4               build/LAN9253_D51_SQI_direct_mode/production/_ext/108134065/ecatappl.o
bSyncSetByUser      0x1               build/LAN9253_D51_SQI_direct_mode/production/_ext/108134065/objdef.o
bMbxRepeatToggle    0x1               build/LAN9253_D51_SQI_direct_mode/production/_ext/108134065/mailbox.o
bEcatInputUpdateRunning
                    0x1               build/LAN9253_D51_SQI_direct_mode/production/_ext/108134065/ecatslv.o
bEscIntEnabled      0x1               build/LAN9253_D51_SQI_direct_mode/production/_ext/108134065/ecatslv.o
psRepeatMbx         0x4               build/LAN9253_D51_SQI_direct_mode/production/_ext/108134065/mailbox.o
nSdoSegIndex        0x2               build/LAN9253_D51_SQI_direct_mode/production/_ext/108134065/sdoserv.o
aSdoInfoHeader      0x10              build/LAN9253_D51_SQI_direct_mode/production/_ext/108134065/sdoserv.o
pSdoSegObjEntry     0x4               build/LAN9253_D51_SQI_direct_mode/production/_ext/108134065/sdoserv.o
aPdInputData        0x900             build/LAN9253_D51_SQI_direct_mode/production/_ext/108134065/ecatappl.o
bWdTrigger          0x1               build/LAN9253_D51_SQI_direct_mode/production/_ext/108134065/ecatslv.o
nSdoSegSubindex     0x1               build/LAN9253_D51_SQI_direct_mode/production/_ext/108134065/sdoserv.o
u16StoreIndex       0x2               build/LAN9253_D51_SQI_direct_mode/production/_ext/108134065/sdoserv.o
bEtherCATRunLed     0x1               build/LAN9253_D51_SQI_direct_mode/production/_ext/108134065/ecatappl.o
pAPPL_FoeWriteData  0x4               build/LAN9253_D51_SQI_direct_mode/production/_ext/108134065/ecatappl.o
u16SmSync0Counter   0x2               build/LAN9253_D51_SQI_direct_mode/production/_ext/108134065/ecatslv.o
pFoeSendStored      0x4               build/LAN9253_D51_SQI_direct_mode/production/_ext/108134065/ecatfoe.o
nMaxSyncMan         0x1               build/LAN9253_D51_SQI_direct_mode/production/_ext/108134065/ecatslv.o
u8StoreSubindex     0x1               build/LAN9253_D51_SQI_direct_mode/production/_ext/108134065/sdoserv.o
aFileName           0x16              build/LAN9253_D51_SQI_direct_mode/production/_ext/108134065/sample_app.o
u32LastFileOffset   0x4               build/LAN9253_D51_SQI_direct_mode/production/_ext/108134065/ecatfoe.o
pAPPL_FoeRead       0x4               build/LAN9253_D51_SQI_direct_mode/production/_ext/108134065/ecatappl.o
dmacChannelObj      0x20              build/LAN9253_D51_SQI_direct_mode/production/_ext/1865161661/plib_dmac.o
sCycleDiag          0x2               build/LAN9253_D51_SQI_direct_mode/production/_ext/108134065/objdef.o
systick             0xc               build/LAN9253_D51_SQI_direct_mode/production/_ext/1827571544/plib_systick.o
pAPPL_FoeWrite      0x4               build/LAN9253_D51_SQI_direct_mode/production/_ext/108134065/ecatappl.o
u16FoeMaxSendBlockSize
                    0x2               build/LAN9253_D51_SQI_direct_mode/production/_ext/108134065/ecatfoe.o
u8EcatErrorLed      0x1               build/LAN9253_D51_SQI_direct_mode/production/_ext/108134065/ecatslv.o
nEscAddrInputData   0x2               build/LAN9253_D51_SQI_direct_mode/production/_ext/108134065/ecatslv.o
transferTxRxHandle  0x4               build/LAN9253_D51_SQI_direct_mode/production/_ext/2070931557/drv_spi.o

Microchip PIC32 Memory-Usage Report

ROM Program-Memory Usage
section                    address  length [bytes]      (dec)  Description
-------                 ----------  -------------------------  -----------
.vectors                         0          0x260         608   
.text                        0x260           0x20          32  App's exec code 
.dinit                       0x280         0x16b0        5808   
.text.StartInputHandler     0x1930          0x7e4        2020   
.text.AL_ControlInd         0x2114          0x790        1936   
.text.OBJ_Write             0x28a4          0x710        1808   
.rodata.aName0x1601         0x2fb4          0x6a0        1696   
.rodata.aName0x1A00         0x3654          0x6a0        1696   
.text.OBJ_Read              0x3cf4          0x67c        1660   
.text.SDOS_SdoInd           0x4370          0x5e4        1508   
.rodata.aName0x7010         0x4954          0x520        1312   
.rodata.aName0x6000         0x4e74          0x51c        1308   
.text.FOE_ServiceInd        0x5390          0x488        1160   
.text._malloc_r             0x5818          0x438        1080   
.text.SDOS_SdoInfoInd       0x5c50          0x434        1076   
.text.SdoDownloadSegmen     0x6084          0x3b4         948   
.text.CheckSmSettings       0x6438          0x3a4         932   
.rodata.asEntryDesc0x16     0x67dc          0x308         776   
.rodata.asEntryDesc0x1A     0x6ae4          0x308         776   
.rodata.asEntryDesc0x60     0x6dec          0x308         776   
.rodata.asEntryDesc0x70     0x70f4          0x308         776   
.text.AL_ControlRes         0x73fc          0x2bc         700   
.text.SdoUploadSegmentI     0x76b8          0x260         608   
.text.SendSmFailedEmerg     0x7918          0x1e0         480   
.text.SdoRes                0x7af8          0x1bc         444   
.text.CheckSyncTypeValu     0x7cb4          0x1b4         436   
.text.ECAT_Main             0x7e68          0x1a8         424   
.text.OBJ_GetEntryOffse     0x8010          0x178         376   
.text._free_r               0x8188          0x178         376   
.text.APPL_GenerateMapp     0x8300          0x174         372   
.text.ECAT_Init             0x8474          0x170         368   
.text.SetALStatus           0x85e4          0x164         356   
.text.MBX_CheckAndCopyM     0x8748          0x164         356   
.text.COE_ObjInit           0x88ac          0x160         352   
.text.Sync0_Isr             0x8a0c          0x15c         348   
.text.MBX_StopMailboxHa     0x8b68          0x154         340   
.text.PDI_Isr               0x8cbc          0x14c         332   
.text.FoE_WriteData         0x8e08          0x148         328   
.text.StopInputHandler      0x8f50          0x12c         300   
.text.MBX_MailboxReadIn     0x907c          0x124         292   
.text.OBJ_GetObjectLeng     0x91a0          0x124         292   
.text.SDOS_SdoRes           0x92c4          0x124         292   
.text.DC_CheckWatchdog      0x93e8          0x120         288   
.text.OBJ_GetDesc           0x9508          0x120         288   
.text.MBX_StartMailboxH     0x9628          0x114         276   
.text.MBX_CopyToSendMai     0x973c          0x10c         268   
.rodata.aName0x1C32         0x9848          0x100         256   
.rodata.aName0x1C33         0x9948          0x100         256   
.text.MainInit              0x9a48          0x100         256   
.text.MBX_Init              0x9b48          0x100         256   
.text.OBJ_GetObjectList     0x9c48           0xf8         248   
.text.MBX_MailboxWriteI     0x9d40           0xf4         244   
.text.LAN9253SQI_Read       0x9e34           0xec         236   
.text.MainLoop              0x9f20           0xec         236   
.text.HW_EscWriteIsr        0xa00c           0xe8         232   
.text.COE_AddObjectToDi     0xa0f4           0xe8         232   
.text.COE_Main              0xa1dc           0xe8         232   
.text.HW_EscReadIsr         0xa2c4           0xe6         230   
.text.Dummy_Handler         0xa3aa            0x2           2   
.text.EIC_Initialize        0xa3ac           0xe4         228   
.text.MBX_MailboxSendRe     0xa490           0xdc         220   
.text.HW_EscWrite           0xa56c           0xce         206   
.text.__malloc_lock         0xa63a            0x2           2   
.text.DMAC_Initialize       0xa63c           0xcc         204   
.text.HW_EscRead            0xa708           0xcc         204   
.text.SODS_ClearPending     0xa7d4           0xcc         204   
.rodata.asEntryDesc0x1C     0xa8a0           0xc8         200   
.text.GetDummyBytesRequ     0xa968           0xc6         198   
.text.EscWrite              0xaa2e           0xc6         198   
.text.EscRead               0xaaf4           0xc4         196   
.text.LAN925x_Init          0xabb8           0xbc         188   
.text.FoE_Read              0xac74           0xbc         188   
.text.MBX_Main              0xad30           0xb8         184   
.text.qspi_setup_transf     0xade8           0xb4         180   
.text.LAN9253SQI_Write      0xae9c           0xb0         176   
.text.PDO_OutputMapping     0xaf4c           0xb0         176   
.text.ECAT_CheckTimer       0xaffc           0xb0         176   
.text.QSPI_MemoryRead       0xb0ac           0xac         172   
.text.QSPI_MemoryWrite      0xb158           0xa8         168   
.text.EMCY_Init             0xb200           0xa8         168   
.text.EMCY_SendEmergenc     0xb2a8           0xa4         164   
.text._DMAC_interruptHa     0xb34c           0x9c         156   
.text.COE_SyncTimeStamp     0xb3e8           0x9c         156   
.text.OBJ_GetNoOfObject     0xb484           0x98         152   
.text.RoundUpMultipleOf     0xb51c           0x96         150   
.text.__malloc_unlock       0xb5b2            0x2           2   
.text.PDO_InputMapping      0xb5b4           0x94         148   
.text.OBJ_CopyNumberToS     0xb648           0x94         148   
.text.FoE_Write             0xb6dc           0x94         148   
.text._malloc_trim_r        0xb770           0x94         148   
.text.QSPI_CommandWrite     0xb804           0x88         136   
.text.QSPI_RegisterWrit     0xb88c           0x88         136   
.text.ReBuild_SQI_SetCf     0xb914           0x88         136   
.text.COE_RemoveDicEntr     0xb99c           0x80         128   
.text.__pic32c_data_ini     0xba1c           0x80         128   
.text.PORT_Initialize       0xba9c           0x7c         124   
.text.HandleCycleTimeMe     0xbb18           0x7c         124   
.text.MBX_MailboxRepeat     0xbb94           0x7c         124   
.rodata.cAbortCode          0xbc10           0x78         120   
.text.APP_FlashWrite        0xbc88           0x78         120   
.text.COE_ServiceInd        0xbd00           0x74         116   
.text.StartOutputHandle     0xbd74           0x74         116   
.text.NVIC_Initialize       0xbde8           0x72         114   
.text.GetSystemTimeDela     0xbe5c           0x70         112   
.text.FDPLL0_Initialize     0xbecc           0x6c         108   
.text.FOE_Data              0xbf38           0x6c         108   
.text.NVMCTRL_PageWrite     0xbfa4           0x68         104   
.text.COE_UpdateSyncErr     0xc00c           0x68         104   
.text.MailboxServiceInd     0xc074           0x68         104   
.text.ECAT_CheckWatchdo     0xc0dc           0x64         100   
.text.BL_FOE_Applicatio     0xc140           0x64         100   
.text.APPL_Application      0xc1a4           0x64         100   
.text.EIC_CallbackRegis     0xc208           0x5c          92   
.text.Reset_Handler         0xc264           0x5c          92   
.text.ESC_BYTE_TEST_Reg     0xc2c0           0x5c          92   
.text.Read0x10F8            0xc31c           0x5c          92   
.text.COE_ContinueInd       0xc378           0x5c          92   
.text.GetOutOfEmptyEmcy     0xc3d4           0x5c          92   
.text.GetOutOfSendEmcyQ     0xc430           0x5c          92   
.text.FoE_ReadData          0xc48c           0x5c          92   
.text.APP_Tasks             0xc4e8           0x5c          92   
.text.GetOutOfMbxQueue      0xc544           0x58          88   
.text.OBJ_GetEntryDesc      0xc59c           0x58          88   
.text.CLOCK_Initialize      0xc5f4           0x54          84   
.text.__NVIC_SetPriorit     0xc648           0x54          84   
.text.ESF_PDI_Init          0xc69c           0x54          84   
.text.PutInMbxQueue         0xc6f0           0x52          82   
.text.UpdateEEPROMLoade     0xc744           0x4c          76   
.text.DisableSyncManCha     0xc790           0x4c          76   
.text.CheckIfEcatError      0xc7dc           0x4c          76   
.text.EnableSyncManChan     0xc828           0x4a          74   
.text.__NVIC_SetPriorit     0xc874           0x48          72   
.text.FOE_Read              0xc8bc           0x48          72   
.text.__libc_init_array     0xc904           0x48          72   
.text.ResetALEventMask      0xc94c           0x46          70   
.text.SetALEventMask        0xc992           0x46          70   
.text.GCLK0_Initialize      0xc9d8           0x44          68   
.text.FPU_Enable            0xca1c           0x44          68   
.text.COE_ObjDictionary     0xca60           0x44          68   
.text.Sync1_Isr             0xcaa4           0x44          68   
.text.PutInEmptyEmcyQue     0xcae8           0x44          68   
.text.PutInSendEmcyQueu     0xcb2c           0x44          68   
.text.AddObjectsToObjDi     0xcb70           0x42          66   
.text                       0xcbb4           0x40          64  App's exec code 
.text.SYSTICK_TimerInit     0xcbf4           0x40          64   
.text.ICache_Enable         0xcc34           0x40          64   
.rodata.aName0x10F1         0xcc74           0x40          64   
.text.COE_ClearObjDicti     0xccb4           0x40          64   
.text.__NVIC_EnableIRQ      0xccf4           0x3c          60   
.text.QSPI_Initialize       0xcd30           0x3c          60   
.rodata.aName0x1018         0xcd6c           0x3c          60   
.text.ECAT_Application      0xcda8           0x3c          60   
.text.APP_RunApplicatio     0xcde4           0x3c          60   
.text.SQI_SetConfigurat     0xce20           0x3a          58   
.text.SYS_Initialize        0xce5a           0x38          56   
.text.PORT_PinSet           0xce92           0x38          56   
.text.PORT_PinClear         0xceca           0x38          56   
.text.PORT_PinOutputEna     0xcf02           0x38          56   
.text.PORT_PinSet           0xcf3a           0x38          56   
.text.PORT_PinClear         0xcf72           0x38          56   
.text.FOE_Write             0xcfac           0x38          56   
.text.FOE_Ack               0xcfe4           0x38          56   
.text.APP_FW_startDownl     0xd01c           0x38          56   
.text.OBJ_GetObjectHand     0xd054           0x36          54   
.text.NVMCTRL_BlockEras     0xd08c           0x34          52   
.text.qspi_memcpy_32bit     0xd0c0           0x34          52   
.text.qspi_memcpy_8bit      0xd0f4           0x34          52   
.text.FOE_ContinueInd       0xd128           0x30          48   
.text.GetSyncMan            0xd158           0x30          48   
.text.GCLK1_Initialize      0xd188           0x2c          44   
.text.GCLK2_Initialize      0xd1b4           0x2c          44   
.text.EIC_EXTINT_0_Inte     0xd1e0           0x2c          44   
.text.EIC_EXTINT_1_Inte     0xd20c           0x2c          44   
.text.EIC_EXTINT_7_Inte     0xd238           0x2c          44   
.text.SysTick_Handler       0xd264           0x2c          44   
.text.SQI_EnableQuadMod     0xd290           0x2c          44   
.text.SQI_DisableQuadMo     0xd2bc           0x2c          44   
.text.FOE_Init              0xd2e8           0x2c          44   
.text._sbrk                 0xd314           0x2c          44   
.text.OSCCTRL_Initializ     0xd340           0x28          40   
.text.NVMCTRL_IsBusy        0xd368           0x28          40   
.text.SYSTICK_TimerCall     0xd390           0x28          40   
.text.ESC_IRQ_cb            0xd3b8           0x28          40   
.text.APP_FW_StateBOOTt     0xd3e0           0x28          40   
.text.HW_GetALEventRegi     0xd408           0x26          38   
.text.SYSTICK_TimerStar     0xd430           0x24          36   
.text.TCM_Configure         0xd454           0x24          36   
.text.PDI_Init_SYNC_Int     0xd478           0x24          36   
.text.COE_Init              0xd49c           0x24          36   
.text.StopOutputHandler     0xd4c0           0x24          36   
.text.EMCY_IsQueueEmpty     0xd4e4           0x24          36   
.text.FOE_Error             0xd508           0x24          36   
.text.APPL_InputMapping     0xd52c           0x24          36   
.text.APPL_OutputMappin     0xd550           0x24          36   
.text.APP_BankSwitch        0xd574           0x24          36   
.text.EMCY_ContinueInd      0xd598           0x22          34   
.rodata.asEntryDesc0x10     0xd5bc           0x20          32   
.text.FOE_Busy              0xd5dc           0x20          32   
.rodata.cBitMask            0xd5fc           0x20          32   
.text._sbrk_r               0xd61c           0x20          32   
.text.HW_GetALEventRegi     0xd63c           0x1e          30   
.text.NVMCTRL_Initializ     0xd65c           0x1c          28   
.text.NVMCTRL_BankSwap      0xd678           0x1c          28   
.text.PORT_GroupSet         0xd694           0x1c          28   
.text.PORT_GroupClear       0xd6b0           0x1c          28   
.text.PORT_GroupOutputE     0xd6cc           0x1c          28   
.text.qspi_end_transfer     0xd6e8           0x1c          28   
.text.CRITICAL_SECTION_     0xd704           0x1c          28   
.text.CRITICAL_SECTION_     0xd720           0x1c          28   
.text.ECAT_SysTick_Hand     0xd73c           0x1c          28   
.rodata.aName0x1C12         0xd758           0x1c          28   
.rodata.aName0x1C13         0xd774           0x1c          28   
.text.OSC32KCTRL_Initia     0xd790           0x18          24   
.text.PDI_Init_SYSTick_     0xd7a8           0x18          24   
.text.PDI_IRQ_Interrupt     0xd7c0           0x18          24   
.text.COE_GetObjectDict     0xd7d8           0x18          24   
.text.BackToInitTransit     0xd7f0           0x18          24   
.text.OBJ_GetObjDesc        0xd808           0x18          24   
.text.APP_FW_GetDownloa     0xd820           0x18          24   
.text.APP_Initialize        0xd838           0x18          24   
.text.BL_Start              0xd850           0x16          22   
.text.EMCY_GetEmcyBuffe     0xd866           0x16          22   
.text.APPL_AckErrorInd      0xd87c           0x16          22   
.text.APPL_StartInputHa     0xd892           0x16          22   
.text.memcpy                0xd8a8           0x16          22   
.text.ESC_Sync0_cb          0xd8be           0x14          20   
.text.ESC_Sync1_cb          0xd8d2           0x14          20   
.rodata.aName0x1009         0xd8e8           0x14          20   
.rodata.aName0x100A         0xd8fc           0x14          20   
.rodata.asEntryDesc0x10     0xd910           0x14          20   
.rodata.aName0x10F8         0xd924           0x14          20   
.rodata.aName0x1C00         0xd938           0x14          20   
.rodata.aName0x1001         0xd94c           0x10          16   
.text.APPL_StartMailbox     0xd95c           0x10          16   
.text.APPL_StopInputHan     0xd96c           0x10          16   
.text.APPL_StartOutputH     0xd97c           0x10          16   
.text.APPL_StopOutputHa     0xd98c           0x10          16   
.text.main                  0xd99c           0x10          16   
.text.malloc                0xd9ac           0x10          16   
.text.free                  0xd9bc           0x10          16   
.text.memset                0xd9cc           0x10          16   
.text                       0xd9dc           0x10          16  App's exec code 
.text.DFLL_Initialize       0xd9ec            0xe          14   
.text.DMAC_0_Handler        0xd9fa            0xe          14   
.text.DMAC_1_Handler        0xda08            0xe          14   
.text.EVSYS_Initialize      0xda16            0xe          14   
.text.BL_Stop               0xda24            0xe          14   
.text.APPL_StopMailboxH     0xda32            0xe          14   
.text.SYS_Tasks             0xda40            0xc          12   
.text.PDI_Timer_Interru     0xda4c            0xc          12   
.text.ESC_Init              0xda58            0xc          12   
.rodata.asEntryDesc0x1C     0xda64            0xc          12   
.rodata.asEntryDesc0x1C     0xda70            0xc          12   
.rodata.aName0x1000         0xda7c            0xc          12   
.rodata.aName0x1008         0xda88            0xc          12   
.rodata.asEntryDesc0x1C     0xda94            0xc          12   
.rodata.sEntryDesc0x100     0xdaa0            0x8           8   
.rodata.sEntryDesc0x100     0xdaa8            0x8           8   
.rodata.sEntryDesc0x100     0xdab0            0x8           8   
.rodata.sEntryDesc0x100     0xdab8            0x8           8   
.rodata.sEntryDesc0x100     0xdac0            0x8           8   
.rodata.sEntryDesc0x10F     0xdac8            0x8           8   
.rodata.acEmcyCoeHeader     0xdad0            0x8           8   
.text.NonMaskableInt_Ha     0xdad8            0x6           6   
.text.HardFault_Handler     0xdade            0x6           6   
.text.DebugMonitor_Hand     0xdae4            0x6           6   
.text.MemoryManagement_     0xdaea            0x6           6   
.text.BusFault_Handler      0xdaf0            0x6           6   
.text.UsageFault_Handle     0xdaf6            0x6           6   
.rodata                     0xdafc            0x4           4  Read-only const 
      Total ROM used  :      0xdaec       56044  10.7% of 0x80000
        --------------------------------------------------------------------------
         Total Program Memory used  :      0xdaec       56044  10.7% of 0x80000
        --------------------------------------------------------------------------


RAM Data-Memory Usage
section                    address  length [bytes]      (dec)  Description
-------                 ----------  -------------------------  -----------
.bss                    0x20000000         0x355c       13660  Uninitialized data 
.data.u32Devicetype     0x2000355c            0x4           4   
.data.impure_data       0x20003560          0x418        1048   
.data.__malloc_av_      0x20003978          0x408        1032   
.data.OutputsProcessDat 0x20003d80          0x204         516   
.data.InputsProcessData 0x20003f84          0x204         516   
.data.Inputs0x6000      0x20004188          0x204         516   
.data.Outputs0x7010     0x2000438c          0x204         516   
.data.GenObjDic         0x20004590          0x1e0         480   
.data.ApplicationObjDic 0x20004770          0x118         280   
.bss.__malloc_current_m 0x20004888           0x28          40   
.data.gau8DummyCntArr   0x200048b0           0x27          39   
.bss.bInitFinished      0x200048d7            0x1           1   
.bss._write_back_sectio 0x200048d8           0x20          32   
.bss.descriptor_section 0x200048f8           0x20          32   
.bss.gau8rx_data        0x20004918           0x20          32   
.bss                    0x20004938           0x1c          28  Uninitialized data 
.data.acDevicename      0x20004954           0x16          22   
.bss.nvm_error          0x2000496a            0x2           2   
.data.sIdentity         0x2000496c           0x14          20   
.data.aSubindexDesc     0x20004980            0xd          13   
.bss.EepromLoaded       0x2000498d            0x1           1   
.bss.gFirmwareDownload_ 0x2000498e            0x1           1   
.bss.gFirmwareDownload_ 0x2000498f            0x1           1   
.data.sErrorSettings    0x20004990            0xc          12   
.data.acHardwareversion 0x2000499c            0x4           4   
.bss.u64Timestamp       0x200049a0            0x8           8   
.data.sSyncmanagertype  0x200049a8            0x6           6   
.bss.u16ErrorRegister   0x200049ae            0x2           2   
.data.acSoftwareversion 0x200049b0            0x4           4   
.bss.ObjDicList         0x200049b4            0x4           4   
.bss.SMActivate         0x200049b8            0x4           4   
.data.sRxPDOassign      0x200049bc            0x4           4   
.data.sTxPDOassign      0x200049c0            0x4           4   
.bss.gTriggerCounterVal 0x200049c4            0x4           4   
.data.gFOETestFrameSize 0x200049c8            0x4           4   
.bss.nFileWriteOffset   0x200049cc            0x4           4   
.bss.nFileStartWriteAdd 0x200049d0            0x4           4   
.bss.u32FileSize        0x200049d4            0x4           4   
.bss.__malloc_max_sbrke 0x200049d8            0x4           4   
.bss.__malloc_max_total 0x200049dc            0x4           4   
.bss.__malloc_top_pad   0x200049e0            0x4           4   
.data.__malloc_sbrk_bas 0x200049e4            0x4           4   
.data.__malloc_trim_thr 0x200049e8            0x4           4   
.data._impure_ptr       0x200049ec            0x4           4   
.bss                    0x200049f0            0x4           4  Uninitialized data 
.bss.bSdoInWork         0x200049f4            0x1           1   
         Total RAM used  :      0x49f5       18933  9.6% of 0x30000
        --------------------------------------------------------------------------
            Total Data Memory used  :      0x49f5       18933  9.6% of 0x30000
        --------------------------------------------------------------------------


Dynamic Data-Memory Reservation
section                    address  length [bytes]      (dec)  Description
-------                 ----------  -------------------------  -----------
heap                    0x200049f8          0x200         512  Reserved for heap 
stack                   0x20004c10        0x2b3e0      177120  Reserved for stack 

        --------------------------------------------------------------------------

Discarded input sections

 .text          0x00000000        0x0 c:/program files (x86)/microchip/xc32/v2.30/bin/bin/../../lib/gcc/pic32c/6.2.1/v7e-m/fpv4-sp/hard/crti.o
 .data          0x00000000        0x0 c:/program files (x86)/microchip/xc32/v2.30/bin/bin/../../lib/gcc/pic32c/6.2.1/v7e-m/fpv4-sp/hard/crti.o
 .bss           0x00000000        0x0 c:/program files (x86)/microchip/xc32/v2.30/bin/bin/../../lib/gcc/pic32c/6.2.1/v7e-m/fpv4-sp/hard/crti.o
 .data          0x00000000        0x4 c:/program files (x86)/microchip/xc32/v2.30/bin/bin/../../lib/gcc/pic32c/6.2.1/v7e-m/fpv4-sp/hard/crtbegin.o
 .text          0x00000000        0x0 build/LAN9253_D51_SQI_direct_mode/production/_ext/2070931557/drv_spi.o
 .data          0x00000000        0x0 build/LAN9253_D51_SQI_direct_mode/production/_ext/2070931557/drv_spi.o
 .bss           0x00000000        0x0 build/LAN9253_D51_SQI_direct_mode/production/_ext/2070931557/drv_spi.o
 .text.PORT_PinSet
                0x00000000       0x38 build/LAN9253_D51_SQI_direct_mode/production/_ext/2070931557/drv_spi.o
 .text.PORT_PinClear
                0x00000000       0x38 build/LAN9253_D51_SQI_direct_mode/production/_ext/2070931557/drv_spi.o
 .text.SYS_PORT_PinSet
                0x00000000       0x1c build/LAN9253_D51_SQI_direct_mode/production/_ext/2070931557/drv_spi.o
 .text.SYS_PORT_PinClear
                0x00000000       0x1c build/LAN9253_D51_SQI_direct_mode/production/_ext/2070931557/drv_spi.o
 .bss.gDrvSPIObj
                0x00000000       0x6c build/LAN9253_D51_SQI_direct_mode/production/_ext/2070931557/drv_spi.o
 .bss.txDummyData
                0x00000000       0x20 build/LAN9253_D51_SQI_direct_mode/production/_ext/2070931557/drv_spi.o
 .data.gis_Tx_DMAComplete
                0x00000000        0x1 build/LAN9253_D51_SQI_direct_mode/production/_ext/2070931557/drv_spi.o
 .data.gis_Rx_DMAComplete
                0x00000000        0x1 build/LAN9253_D51_SQI_direct_mode/production/_ext/2070931557/drv_spi.o
 .data.gis_TxRx_DMAComplete
                0x00000000        0x1 build/LAN9253_D51_SQI_direct_mode/production/_ext/2070931557/drv_spi.o
 .text._DRV_SPI_MAKE_HANDLE
                0x00000000       0x2c build/LAN9253_D51_SQI_direct_mode/production/_ext/2070931557/drv_spi.o
 .text._DRV_SPI_UPDATE_TOKEN
                0x00000000       0x2c build/LAN9253_D51_SQI_direct_mode/production/_ext/2070931557/drv_spi.o
 .text._DRV_SPI_DisableInterrupts
                0x00000000      0x124 build/LAN9253_D51_SQI_direct_mode/production/_ext/2070931557/drv_spi.o
 .text._DRV_SPI_EnableInterrupts
                0x00000000      0x116 build/LAN9253_D51_SQI_direct_mode/production/_ext/2070931557/drv_spi.o
 .text._DRV_SPI_ResourceLock
                0x00000000       0x4a build/LAN9253_D51_SQI_direct_mode/production/_ext/2070931557/drv_spi.o
 .text._DRV_SPI_ResourceUnlock
                0x00000000       0x2c build/LAN9253_D51_SQI_direct_mode/production/_ext/2070931557/drv_spi.o
 .text._DRV_SPI_DriverHandleValidate
                0x00000000       0x9c build/LAN9253_D51_SQI_direct_mode/production/_ext/2070931557/drv_spi.o
 .text._DRV_SPI_FreeTransferObjGet
                0x00000000       0xd4 build/LAN9253_D51_SQI_direct_mode/production/_ext/2070931557/drv_spi.o
 .text._DRV_SPI_TransferObjAddToList
                0x00000000       0x5a build/LAN9253_D51_SQI_direct_mode/production/_ext/2070931557/drv_spi.o
 .text._DRV_SPI_TransferObjListGet
                0x00000000       0x20 build/LAN9253_D51_SQI_direct_mode/production/_ext/2070931557/drv_spi.o
 .text._DRV_SPI_RemoveTransferObjFromList
                0x00000000       0x44 build/LAN9253_D51_SQI_direct_mode/production/_ext/2070931557/drv_spi.o
 .text._DRV_SPI_RemoveClientTransfersFromList
                0x00000000       0x74 build/LAN9253_D51_SQI_direct_mode/production/_ext/2070931557/drv_spi.o
 .text._DRV_SPI_StartDMATransfer
                0x00000000      0x20c build/LAN9253_D51_SQI_direct_mode/production/_ext/2070931557/drv_spi.o
 .text._DRV_SPI_UpdateTransferSetupAndAssertCS
                0x00000000       0xb4 build/LAN9253_D51_SQI_direct_mode/production/_ext/2070931557/drv_spi.o
 .text._DRV_SPI_PlibCallbackHandler
                0x00000000      0x13c build/LAN9253_D51_SQI_direct_mode/production/_ext/2070931557/drv_spi.o
 .text.DRV_SPI_ExclusiveUse
                0x00000000       0xfc build/LAN9253_D51_SQI_direct_mode/production/_ext/2070931557/drv_spi.o
 .text._DRV_SPI_TX_DMA_CallbackHandler
                0x00000000       0x90 build/LAN9253_D51_SQI_direct_mode/production/_ext/2070931557/drv_spi.o
 .text._DRV_SPI_RX_DMA_CallbackHandler
                0x00000000      0x190 build/LAN9253_D51_SQI_direct_mode/production/_ext/2070931557/drv_spi.o
 .text.DRV_SPI_Initialize
                0x00000000      0x19c build/LAN9253_D51_SQI_direct_mode/production/_ext/2070931557/drv_spi.o
 .text.DRV_SPI_Status
                0x00000000       0x3c build/LAN9253_D51_SQI_direct_mode/production/_ext/2070931557/drv_spi.o
 .text.DRV_SPI_Open
                0x00000000      0x19c build/LAN9253_D51_SQI_direct_mode/production/_ext/2070931557/drv_spi.o
 .text.DRV_SPI_Close
                0x00000000       0xdc build/LAN9253_D51_SQI_direct_mode/production/_ext/2070931557/drv_spi.o
 .text._SPI_initialize
                0x00000000       0x88 build/LAN9253_D51_SQI_direct_mode/production/_ext/2070931557/drv_spi.o
 .text.DRV_SPIReceive
                0x00000000       0x5a build/LAN9253_D51_SQI_direct_mode/production/_ext/2070931557/drv_spi.o
 .text.DRV_SPITransfer
                0x00000000       0x5a build/LAN9253_D51_SQI_direct_mode/production/_ext/2070931557/drv_spi.o
 .text.DRV_SPITransferReceive
                0x00000000      0x110 build/LAN9253_D51_SQI_direct_mode/production/_ext/2070931557/drv_spi.o
 .text._SPI_Rx  0x00000000       0x50 build/LAN9253_D51_SQI_direct_mode/production/_ext/2070931557/drv_spi.o
 .text._SPI_Tx  0x00000000       0x50 build/LAN9253_D51_SQI_direct_mode/production/_ext/2070931557/drv_spi.o
 .text._SPI_TxRx
                0x00000000       0x5c build/LAN9253_D51_SQI_direct_mode/production/_ext/2070931557/drv_spi.o
 .text._APP_MyTransferEventHandler
                0x00000000       0x80 build/LAN9253_D51_SQI_direct_mode/production/_ext/2070931557/drv_spi.o
 .text.DRV_SPI_TransferEventHandlerSet
                0x00000000       0x6c build/LAN9253_D51_SQI_direct_mode/production/_ext/2070931557/drv_spi.o
 .text.DRV_SPI_TransferSetup
                0x00000000       0xc8 build/LAN9253_D51_SQI_direct_mode/production/_ext/2070931557/drv_spi.o
 .text.DRV_SPI_WriteReadTransferAdd
                0x00000000      0x17c build/LAN9253_D51_SQI_direct_mode/production/_ext/2070931557/drv_spi.o
 .text.DRV_SPI_WriteTransferAdd
                0x00000000       0x2a build/LAN9253_D51_SQI_direct_mode/production/_ext/2070931557/drv_spi.o
 .text.DRV_SPI_ReadTransferAdd
                0x00000000       0x2a build/LAN9253_D51_SQI_direct_mode/production/_ext/2070931557/drv_spi.o
 .text.DRV_SPI_TransferStatusGet
                0x00000000       0x88 build/LAN9253_D51_SQI_direct_mode/production/_ext/2070931557/drv_spi.o
 .text.DRV_SPI_Lock
                0x00000000       0x20 build/LAN9253_D51_SQI_direct_mode/production/_ext/2070931557/drv_spi.o
 .debug_info    0x00000000     0x4dd6 build/LAN9253_D51_SQI_direct_mode/production/_ext/2070931557/drv_spi.o
 .debug_abbrev  0x00000000      0x454 build/LAN9253_D51_SQI_direct_mode/production/_ext/2070931557/drv_spi.o
 .debug_loc     0x00000000      0xd48 build/LAN9253_D51_SQI_direct_mode/production/_ext/2070931557/drv_spi.o
 .debug_aranges
                0x00000000      0x160 build/LAN9253_D51_SQI_direct_mode/production/_ext/2070931557/drv_spi.o
 .debug_ranges  0x00000000      0x150 build/LAN9253_D51_SQI_direct_mode/production/_ext/2070931557/drv_spi.o
 .debug_line    0x00000000      0xb4f build/LAN9253_D51_SQI_direct_mode/production/_ext/2070931557/drv_spi.o
 .debug_str     0x00000000      0x1b6 build/LAN9253_D51_SQI_direct_mode/production/_ext/2070931557/drv_spi.o
 .comment       0x00000000       0x3d build/LAN9253_D51_SQI_direct_mode/production/_ext/2070931557/drv_spi.o
 .debug_frame   0x00000000      0x60c build/LAN9253_D51_SQI_direct_mode/production/_ext/2070931557/drv_spi.o
 .ARM.attributes
                0x00000000       0x39 build/LAN9253_D51_SQI_direct_mode/production/_ext/2070931557/drv_spi.o
 COMMON         0x00000000       0x20 build/LAN9253_D51_SQI_direct_mode/production/_ext/2070931557/drv_spi.o
 .text          0x00000000        0x0 build/LAN9253_D51_SQI_direct_mode/production/_ext/1984496892/plib_clock.o
 .data          0x00000000        0x0 build/LAN9253_D51_SQI_direct_mode/production/_ext/1984496892/plib_clock.o
 .bss           0x00000000        0x0 build/LAN9253_D51_SQI_direct_mode/production/_ext/1984496892/plib_clock.o
 .text          0x00000000        0x0 build/LAN9253_D51_SQI_direct_mode/production/_ext/1865131932/plib_cmcc.o
 .data          0x00000000        0x0 build/LAN9253_D51_SQI_direct_mode/production/_ext/1865131932/plib_cmcc.o
 .bss           0x00000000        0x0 build/LAN9253_D51_SQI_direct_mode/production/_ext/1865131932/plib_cmcc.o
 .text.CMCC_Disable
                0x00000000       0x2c build/LAN9253_D51_SQI_direct_mode/production/_ext/1865131932/plib_cmcc.o
 .text.CMCC_EnableICache
                0x00000000       0x40 build/LAN9253_D51_SQI_direct_mode/production/_ext/1865131932/plib_cmcc.o
 .text.CMCC_DisableICache
                0x00000000       0x40 build/LAN9253_D51_SQI_direct_mode/production/_ext/1865131932/plib_cmcc.o
 .text.CMCC_EnableDCache
                0x00000000       0x40 build/LAN9253_D51_SQI_direct_mode/production/_ext/1865131932/plib_cmcc.o
 .text.CMCC_DisableDCache
                0x00000000       0x40 build/LAN9253_D51_SQI_direct_mode/production/_ext/1865131932/plib_cmcc.o
 .text.CMCC_InvalidateAll
                0x00000000       0x34 build/LAN9253_D51_SQI_direct_mode/production/_ext/1865131932/plib_cmcc.o
 .debug_info    0x00000000      0x5ae build/LAN9253_D51_SQI_direct_mode/production/_ext/1865131932/plib_cmcc.o
 .debug_abbrev  0x00000000       0x93 build/LAN9253_D51_SQI_direct_mode/production/_ext/1865131932/plib_cmcc.o
 .debug_loc     0x00000000      0x198 build/LAN9253_D51_SQI_direct_mode/production/_ext/1865131932/plib_cmcc.o
 .debug_aranges
                0x00000000       0x48 build/LAN9253_D51_SQI_direct_mode/production/_ext/1865131932/plib_cmcc.o
 .debug_ranges  0x00000000       0x38 build/LAN9253_D51_SQI_direct_mode/production/_ext/1865131932/plib_cmcc.o
 .debug_line    0x00000000      0x1e6 build/LAN9253_D51_SQI_direct_mode/production/_ext/1865131932/plib_cmcc.o
 .debug_str     0x00000000        0x0 build/LAN9253_D51_SQI_direct_mode/production/_ext/1865131932/plib_cmcc.o
 .comment       0x00000000       0x3d build/LAN9253_D51_SQI_direct_mode/production/_ext/1865131932/plib_cmcc.o
 .debug_frame   0x00000000       0xd0 build/LAN9253_D51_SQI_direct_mode/production/_ext/1865131932/plib_cmcc.o
 .ARM.attributes
                0x00000000       0x39 build/LAN9253_D51_SQI_direct_mode/production/_ext/1865131932/plib_cmcc.o
 .text          0x00000000        0x0 build/LAN9253_D51_SQI_direct_mode/production/_ext/1865161661/plib_dmac.o
 .data          0x00000000        0x0 build/LAN9253_D51_SQI_direct_mode/production/_ext/1865161661/plib_dmac.o
 .bss           0x00000000        0x0 build/LAN9253_D51_SQI_direct_mode/production/_ext/1865161661/plib_dmac.o
 .text.DMAC_ChannelTransfer
                0x00000000      0x154 build/LAN9253_D51_SQI_direct_mode/production/_ext/1865161661/plib_dmac.o
 .text.DMAC_ChannelIsBusy
                0x00000000       0x4c build/LAN9253_D51_SQI_direct_mode/production/_ext/1865161661/plib_dmac.o
 .text.DMAC_ChannelTransferStatusGet
                0x00000000       0x50 build/LAN9253_D51_SQI_direct_mode/production/_ext/1865161661/plib_dmac.o
 .text.DMAC_ChannelDisable
                0x00000000       0x60 build/LAN9253_D51_SQI_direct_mode/production/_ext/1865161661/plib_dmac.o
 .text.DMAC_ChannelGetTransferredCount
                0x00000000       0x44 build/LAN9253_D51_SQI_direct_mode/production/_ext/1865161661/plib_dmac.o
 .text.DMAC_ChannelCallbackRegister
                0x00000000       0x3c build/LAN9253_D51_SQI_direct_mode/production/_ext/1865161661/plib_dmac.o
 .text.DMAC_ChannelSettingsGet
                0x00000000       0x2c build/LAN9253_D51_SQI_direct_mode/production/_ext/1865161661/plib_dmac.o
 .text.DMAC_ChannelSettingsSet
                0x00000000       0x68 build/LAN9253_D51_SQI_direct_mode/production/_ext/1865161661/plib_dmac.o
 .text.DMAC_ChannelSuspend
                0x00000000       0x44 build/LAN9253_D51_SQI_direct_mode/production/_ext/1865161661/plib_dmac.o
 .text.DMAC_ChannelResume
                0x00000000       0x44 build/LAN9253_D51_SQI_direct_mode/production/_ext/1865161661/plib_dmac.o
 .text.DMAC_CRCDisable
                0x00000000       0x18 build/LAN9253_D51_SQI_direct_mode/production/_ext/1865161661/plib_dmac.o
 .text.DMAC_ChannelCRCSetup
                0x00000000       0x60 build/LAN9253_D51_SQI_direct_mode/production/_ext/1865161661/plib_dmac.o
 .text.DMAC_CRCRead
                0x00000000       0x18 build/LAN9253_D51_SQI_direct_mode/production/_ext/1865161661/plib_dmac.o
 .text.DMAC_CRCCalculate
                0x00000000      0x104 build/LAN9253_D51_SQI_direct_mode/production/_ext/1865161661/plib_dmac.o
 .text          0x00000000        0x0 build/LAN9253_D51_SQI_direct_mode/production/_ext/60167341/plib_eic.o
 .data          0x00000000        0x0 build/LAN9253_D51_SQI_direct_mode/production/_ext/60167341/plib_eic.o
 .bss           0x00000000        0x0 build/LAN9253_D51_SQI_direct_mode/production/_ext/60167341/plib_eic.o
 .text.EIC_InterruptEnable
                0x00000000       0x28 build/LAN9253_D51_SQI_direct_mode/production/_ext/60167341/plib_eic.o
 .text.EIC_InterruptDisable
                0x00000000       0x28 build/LAN9253_D51_SQI_direct_mode/production/_ext/60167341/plib_eic.o
 .text          0x00000000        0x0 build/LAN9253_D51_SQI_direct_mode/production/_ext/1986646378/plib_evsys.o
 .data          0x00000000        0x0 build/LAN9253_D51_SQI_direct_mode/production/_ext/1986646378/plib_evsys.o
 .bss           0x00000000        0x0 build/LAN9253_D51_SQI_direct_mode/production/_ext/1986646378/plib_evsys.o
 .text          0x00000000        0x0 build/LAN9253_D51_SQI_direct_mode/production/_ext/1865468468/plib_nvic.o
 .data          0x00000000        0x0 build/LAN9253_D51_SQI_direct_mode/production/_ext/1865468468/plib_nvic.o
 .bss           0x00000000        0x0 build/LAN9253_D51_SQI_direct_mode/production/_ext/1865468468/plib_nvic.o
 .text          0x00000000        0x0 build/LAN9253_D51_SQI_direct_mode/production/_ext/1593096446/plib_nvmctrl.o
 .data          0x00000000        0x0 build/LAN9253_D51_SQI_direct_mode/production/_ext/1593096446/plib_nvmctrl.o
 .bss           0x00000000        0x0 build/LAN9253_D51_SQI_direct_mode/production/_ext/1593096446/plib_nvmctrl.o
 .bss.nvm_status
                0x00000000        0x2 build/LAN9253_D51_SQI_direct_mode/production/_ext/1593096446/plib_nvmctrl.o
 .bss.smart_eep_status
                0x00000000        0x4 build/LAN9253_D51_SQI_direct_mode/production/_ext/1593096446/plib_nvmctrl.o
 .text.NVMCTRL_Read
                0x00000000       0x22 build/LAN9253_D51_SQI_direct_mode/production/_ext/1593096446/plib_nvmctrl.o
 .text.NVMCTRL_SetWriteMode
                0x00000000       0x34 build/LAN9253_D51_SQI_direct_mode/production/_ext/1593096446/plib_nvmctrl.o
 .text.NVMCTRL_QuadWordWrite
                0x00000000       0x84 build/LAN9253_D51_SQI_direct_mode/production/_ext/1593096446/plib_nvmctrl.o
 .text.NVMCTRL_DoubleWordWrite
                0x00000000       0x84 build/LAN9253_D51_SQI_direct_mode/production/_ext/1593096446/plib_nvmctrl.o
 .text.NVMCTRL_ErrorGet
                0x00000000       0x40 build/LAN9253_D51_SQI_direct_mode/production/_ext/1593096446/plib_nvmctrl.o
 .text.NVMCTRL_StatusGet
                0x00000000       0x24 build/LAN9253_D51_SQI_direct_mode/production/_ext/1593096446/plib_nvmctrl.o
 .text.NVMCTRL_RegionLock
                0x00000000       0x28 build/LAN9253_D51_SQI_direct_mode/production/_ext/1593096446/plib_nvmctrl.o
 .text.NVMCTRL_RegionUnlock
                0x00000000       0x28 build/LAN9253_D51_SQI_direct_mode/production/_ext/1593096446/plib_nvmctrl.o
 .text.NVMCTRL_RegionLockStatusGet
                0x00000000       0x18 build/LAN9253_D51_SQI_direct_mode/production/_ext/1593096446/plib_nvmctrl.o
 .text.NVMCTRL_SmartEEPROM_IsBusy
                0x00000000       0x24 build/LAN9253_D51_SQI_direct_mode/production/_ext/1593096446/plib_nvmctrl.o
 .text.NVMCTRL_SmartEEPROMStatusGet
                0x00000000       0x24 build/LAN9253_D51_SQI_direct_mode/production/_ext/1593096446/plib_nvmctrl.o
 .text.NVMCTRL_SmartEEPROM_IsActiveSectorFull
                0x00000000       0x28 build/LAN9253_D51_SQI_direct_mode/production/_ext/1593096446/plib_nvmctrl.o
 .text.NVMCTRL_SmartEEPROMSectorReallocate
                0x00000000       0x1c build/LAN9253_D51_SQI_direct_mode/production/_ext/1593096446/plib_nvmctrl.o
 .text.NVMCTRL_SmartEEPROMFlushPageBuffer
                0x00000000       0x24 build/LAN9253_D51_SQI_direct_mode/production/_ext/1593096446/plib_nvmctrl.o
 .text          0x00000000        0x0 build/LAN9253_D51_SQI_direct_mode/production/_ext/1865521619/plib_port.o
 .data          0x00000000        0x0 build/LAN9253_D51_SQI_direct_mode/production/_ext/1865521619/plib_port.o
 .bss           0x00000000        0x0 build/LAN9253_D51_SQI_direct_mode/production/_ext/1865521619/plib_port.o
 .text.PORT_GroupRead
                0x00000000       0x18 build/LAN9253_D51_SQI_direct_mode/production/_ext/1865521619/plib_port.o
 .text.PORT_GroupWrite
                0x00000000       0x2e build/LAN9253_D51_SQI_direct_mode/production/_ext/1865521619/plib_port.o
 .text.PORT_GroupLatchRead
                0x00000000       0x18 build/LAN9253_D51_SQI_direct_mode/production/_ext/1865521619/plib_port.o
 .text.PORT_GroupToggle
                0x00000000       0x1c build/LAN9253_D51_SQI_direct_mode/production/_ext/1865521619/plib_port.o
 .text.PORT_GroupInputEnable
                0x00000000       0x1c build/LAN9253_D51_SQI_direct_mode/production/_ext/1865521619/plib_port.o
 .text          0x00000000        0x0 build/LAN9253_D51_SQI_direct_mode/production/_ext/1865555181/plib_qspi_spi.o
 .data          0x00000000        0x0 build/LAN9253_D51_SQI_direct_mode/production/_ext/1865555181/plib_qspi_spi.o
 .bss           0x00000000        0x0 build/LAN9253_D51_SQI_direct_mode/production/_ext/1865555181/plib_qspi_spi.o
 .debug_line    0x00000000        0x0 build/LAN9253_D51_SQI_direct_mode/production/_ext/1865555181/plib_qspi_spi.o
 .debug_str     0x00000000        0x0 build/LAN9253_D51_SQI_direct_mode/production/_ext/1865555181/plib_qspi_spi.o
 .comment       0x00000000       0x3d build/LAN9253_D51_SQI_direct_mode/production/_ext/1865555181/plib_qspi_spi.o
 .ARM.attributes
                0x00000000       0x39 build/LAN9253_D51_SQI_direct_mode/production/_ext/1865555181/plib_qspi_spi.o
 .text          0x00000000        0x0 build/LAN9253_D51_SQI_direct_mode/production/_ext/1865555181/plib_qspi.o
 .data          0x00000000        0x0 build/LAN9253_D51_SQI_direct_mode/production/_ext/1865555181/plib_qspi.o
 .bss           0x00000000        0x0 build/LAN9253_D51_SQI_direct_mode/production/_ext/1865555181/plib_qspi.o
 .text.QSPI_RegisterRead
                0x00000000       0x90 build/LAN9253_D51_SQI_direct_mode/production/_ext/1865555181/plib_qspi.o
 .text          0x00000000        0x0 build/LAN9253_D51_SQI_direct_mode/production/_ext/1827571544/plib_systick.o
 .data          0x00000000        0x0 build/LAN9253_D51_SQI_direct_mode/production/_ext/1827571544/plib_systick.o
 .bss           0x00000000        0x0 build/LAN9253_D51_SQI_direct_mode/production/_ext/1827571544/plib_systick.o
 .text.SYSTICK_TimerRestart
                0x00000000       0x30 build/LAN9253_D51_SQI_direct_mode/production/_ext/1827571544/plib_systick.o
 .text.SYSTICK_TimerStop
                0x00000000       0x20 build/LAN9253_D51_SQI_direct_mode/production/_ext/1827571544/plib_systick.o
 .text.SYSTICK_TimerPeriodSet
                0x00000000       0x20 build/LAN9253_D51_SQI_direct_mode/production/_ext/1827571544/plib_systick.o
 .text.SYSTICK_TimerPeriodGet
                0x00000000       0x18 build/LAN9253_D51_SQI_direct_mode/production/_ext/1827571544/plib_systick.o
 .text.SYSTICK_TimerCounterGet
                0x00000000       0x18 build/LAN9253_D51_SQI_direct_mode/production/_ext/1827571544/plib_systick.o
 .text.SYSTICK_TimerFrequencyGet
                0x00000000       0x14 build/LAN9253_D51_SQI_direct_mode/production/_ext/1827571544/plib_systick.o
 .text.SYSTICK_DelayMs
                0x00000000       0x58 build/LAN9253_D51_SQI_direct_mode/production/_ext/1827571544/plib_systick.o
 .text          0x00000000        0x0 build/LAN9253_D51_SQI_direct_mode/production/_ext/163028504/xc32_monitor.o
 .data          0x00000000        0x0 build/LAN9253_D51_SQI_direct_mode/production/_ext/163028504/xc32_monitor.o
 .bss           0x00000000        0x0 build/LAN9253_D51_SQI_direct_mode/production/_ext/163028504/xc32_monitor.o
 .text._mon_getc
                0x00000000       0x16 build/LAN9253_D51_SQI_direct_mode/production/_ext/163028504/xc32_monitor.o
 .text._mon_putc
                0x00000000       0x16 build/LAN9253_D51_SQI_direct_mode/production/_ext/163028504/xc32_monitor.o
 .debug_info    0x00000000      0x2bd build/LAN9253_D51_SQI_direct_mode/production/_ext/163028504/xc32_monitor.o
 .debug_abbrev  0x00000000       0x66 build/LAN9253_D51_SQI_direct_mode/production/_ext/163028504/xc32_monitor.o
 .debug_loc     0x00000000       0xb8 build/LAN9253_D51_SQI_direct_mode/production/_ext/163028504/xc32_monitor.o
 .debug_aranges
                0x00000000       0x28 build/LAN9253_D51_SQI_direct_mode/production/_ext/163028504/xc32_monitor.o
 .debug_ranges  0x00000000       0x18 build/LAN9253_D51_SQI_direct_mode/production/_ext/163028504/xc32_monitor.o
 .debug_line    0x00000000       0x6c build/LAN9253_D51_SQI_direct_mode/production/_ext/163028504/xc32_monitor.o
 .debug_str     0x00000000        0x0 build/LAN9253_D51_SQI_direct_mode/production/_ext/163028504/xc32_monitor.o
 .comment       0x00000000       0x3d build/LAN9253_D51_SQI_direct_mode/production/_ext/163028504/xc32_monitor.o
 .debug_frame   0x00000000       0x60 build/LAN9253_D51_SQI_direct_mode/production/_ext/163028504/xc32_monitor.o
 .ARM.attributes
                0x00000000       0x39 build/LAN9253_D51_SQI_direct_mode/production/_ext/163028504/xc32_monitor.o
 .text          0x00000000        0x0 build/LAN9253_D51_SQI_direct_mode/production/_ext/1014039709/sys_cache.o
 .data          0x00000000        0x0 build/LAN9253_D51_SQI_direct_mode/production/_ext/1014039709/sys_cache.o
 .bss           0x00000000        0x0 build/LAN9253_D51_SQI_direct_mode/production/_ext/1014039709/sys_cache.o
 .text.SYS_CACHE_EnableCaches
                0x00000000        0xe build/LAN9253_D51_SQI_direct_mode/production/_ext/1014039709/sys_cache.o
 .text.SYS_CACHE_DisableCaches
                0x00000000        0xe build/LAN9253_D51_SQI_direct_mode/production/_ext/1014039709/sys_cache.o
 .text.SYS_CACHE_EnableICache
                0x00000000        0xe build/LAN9253_D51_SQI_direct_mode/production/_ext/1014039709/sys_cache.o
 .text.SYS_CACHE_DisableICache
                0x00000000        0xe build/LAN9253_D51_SQI_direct_mode/production/_ext/1014039709/sys_cache.o
 .text.SYS_CACHE_InvalidateICache
                0x00000000        0xe build/LAN9253_D51_SQI_direct_mode/production/_ext/1014039709/sys_cache.o
 .text.SYS_CACHE_EnableDCache
                0x00000000        0xe build/LAN9253_D51_SQI_direct_mode/production/_ext/1014039709/sys_cache.o
 .text.SYS_CACHE_DisableDCache
                0x00000000        0xe build/LAN9253_D51_SQI_direct_mode/production/_ext/1014039709/sys_cache.o
 .text.SYS_CACHE_InvalidateDCache
                0x00000000        0xe build/LAN9253_D51_SQI_direct_mode/production/_ext/1014039709/sys_cache.o
 .text.SYS_CACHE_CleanDCache
                0x00000000        0xe build/LAN9253_D51_SQI_direct_mode/production/_ext/1014039709/sys_cache.o
 .text.SYS_CACHE_CleanInvalidateDCache
                0x00000000        0xe build/LAN9253_D51_SQI_direct_mode/production/_ext/1014039709/sys_cache.o
 .text.SYS_CACHE_InvalidateDCache_by_Addr
                0x00000000       0x16 build/LAN9253_D51_SQI_direct_mode/production/_ext/1014039709/sys_cache.o
 .text.SYS_CACHE_CleanDCache_by_Addr
                0x00000000       0x16 build/LAN9253_D51_SQI_direct_mode/production/_ext/1014039709/sys_cache.o
 .text.SYS_CACHE_CleanInvalidateDCache_by_Addr
                0x00000000       0x16 build/LAN9253_D51_SQI_direct_mode/production/_ext/1014039709/sys_cache.o
 .debug_info    0x00000000      0x62f build/LAN9253_D51_SQI_direct_mode/production/_ext/1014039709/sys_cache.o
 .debug_abbrev  0x00000000       0x90 build/LAN9253_D51_SQI_direct_mode/production/_ext/1014039709/sys_cache.o
 .debug_loc     0x00000000      0x3bc build/LAN9253_D51_SQI_direct_mode/production/_ext/1014039709/sys_cache.o
 .debug_aranges
                0x00000000       0x80 build/LAN9253_D51_SQI_direct_mode/production/_ext/1014039709/sys_cache.o
 .debug_ranges  0x00000000       0x70 build/LAN9253_D51_SQI_direct_mode/production/_ext/1014039709/sys_cache.o
 .debug_line    0x00000000      0x201 build/LAN9253_D51_SQI_direct_mode/production/_ext/1014039709/sys_cache.o
 .debug_str     0x00000000        0x0 build/LAN9253_D51_SQI_direct_mode/production/_ext/1014039709/sys_cache.o
 .comment       0x00000000       0x3d build/LAN9253_D51_SQI_direct_mode/production/_ext/1014039709/sys_cache.o
 .debug_frame   0x00000000      0x1c8 build/LAN9253_D51_SQI_direct_mode/production/_ext/1014039709/sys_cache.o
 .ARM.attributes
                0x00000000       0x39 build/LAN9253_D51_SQI_direct_mode/production/_ext/1014039709/sys_cache.o
 .text          0x00000000        0x0 build/LAN9253_D51_SQI_direct_mode/production/_ext/14461671/sys_dma.o
 .data          0x00000000        0x0 build/LAN9253_D51_SQI_direct_mode/production/_ext/14461671/sys_dma.o
 .bss           0x00000000        0x0 build/LAN9253_D51_SQI_direct_mode/production/_ext/14461671/sys_dma.o
 .text.SYS_DMA_AddressingModeSetup
                0x00000000       0x46 build/LAN9253_D51_SQI_direct_mode/production/_ext/14461671/sys_dma.o
 .text.SYS_DMA_DataWidthSetup
                0x00000000       0x3e build/LAN9253_D51_SQI_direct_mode/production/_ext/14461671/sys_dma.o
 .debug_info    0x00000000     0x148e build/LAN9253_D51_SQI_direct_mode/production/_ext/14461671/sys_dma.o
 .debug_abbrev  0x00000000      0x1e7 build/LAN9253_D51_SQI_direct_mode/production/_ext/14461671/sys_dma.o
 .debug_loc     0x00000000       0xa0 build/LAN9253_D51_SQI_direct_mode/production/_ext/14461671/sys_dma.o
 .debug_aranges
                0x00000000       0x28 build/LAN9253_D51_SQI_direct_mode/production/_ext/14461671/sys_dma.o
 .debug_ranges  0x00000000       0x18 build/LAN9253_D51_SQI_direct_mode/production/_ext/14461671/sys_dma.o
 .debug_line    0x00000000      0x203 build/LAN9253_D51_SQI_direct_mode/production/_ext/14461671/sys_dma.o
 .debug_str     0x00000000        0xe build/LAN9253_D51_SQI_direct_mode/production/_ext/14461671/sys_dma.o
 .comment       0x00000000       0x3d build/LAN9253_D51_SQI_direct_mode/production/_ext/14461671/sys_dma.o
 .debug_frame   0x00000000       0x58 build/LAN9253_D51_SQI_direct_mode/production/_ext/14461671/sys_dma.o
 .ARM.attributes
                0x00000000       0x39 build/LAN9253_D51_SQI_direct_mode/production/_ext/14461671/sys_dma.o
 .text          0x00000000        0x0 build/LAN9253_D51_SQI_direct_mode/production/_ext/1881668453/sys_int.o
 .data          0x00000000        0x0 build/LAN9253_D51_SQI_direct_mode/production/_ext/1881668453/sys_int.o
 .bss           0x00000000        0x0 build/LAN9253_D51_SQI_direct_mode/production/_ext/1881668453/sys_int.o
 .text.__NVIC_EnableIRQ
                0x00000000       0x3c build/LAN9253_D51_SQI_direct_mode/production/_ext/1881668453/sys_int.o
 .text.__NVIC_GetEnableIRQ
                0x00000000       0x40 build/LAN9253_D51_SQI_direct_mode/production/_ext/1881668453/sys_int.o
 .text.__NVIC_DisableIRQ
                0x00000000       0x44 build/LAN9253_D51_SQI_direct_mode/production/_ext/1881668453/sys_int.o
 .text.SYS_INT_Enable
                0x00000000       0x14 build/LAN9253_D51_SQI_direct_mode/production/_ext/1881668453/sys_int.o
 .text.SYS_INT_Disable
                0x00000000       0x2c build/LAN9253_D51_SQI_direct_mode/production/_ext/1881668453/sys_int.o
 .text.SYS_INT_Restore
                0x00000000       0x2a build/LAN9253_D51_SQI_direct_mode/production/_ext/1881668453/sys_int.o
 .text.SYS_INT_SourceDisable
                0x00000000       0x44 build/LAN9253_D51_SQI_direct_mode/production/_ext/1881668453/sys_int.o
 .text.SYS_INT_SourceRestore
                0x00000000       0x2a build/LAN9253_D51_SQI_direct_mode/production/_ext/1881668453/sys_int.o
 .debug_info    0x00000000     0x1113 build/LAN9253_D51_SQI_direct_mode/production/_ext/1881668453/sys_int.o
 .debug_abbrev  0x00000000      0x206 build/LAN9253_D51_SQI_direct_mode/production/_ext/1881668453/sys_int.o
 .debug_loc     0x00000000      0x2b0 build/LAN9253_D51_SQI_direct_mode/production/_ext/1881668453/sys_int.o
 .debug_aranges
                0x00000000       0x58 build/LAN9253_D51_SQI_direct_mode/production/_ext/1881668453/sys_int.o
 .debug_ranges  0x00000000       0x48 build/LAN9253_D51_SQI_direct_mode/production/_ext/1881668453/sys_int.o
 .debug_line    0x00000000      0x291 build/LAN9253_D51_SQI_direct_mode/production/_ext/1881668453/sys_int.o
 .debug_str     0x00000000       0x10 build/LAN9253_D51_SQI_direct_mode/production/_ext/1881668453/sys_int.o
 .comment       0x00000000       0x3d build/LAN9253_D51_SQI_direct_mode/production/_ext/1881668453/sys_int.o
 .debug_frame   0x00000000      0x140 build/LAN9253_D51_SQI_direct_mode/production/_ext/1881668453/sys_int.o
 .ARM.attributes
                0x00000000       0x39 build/LAN9253_D51_SQI_direct_mode/production/_ext/1881668453/sys_int.o
 .text          0x00000000        0x0 build/LAN9253_D51_SQI_direct_mode/production/_ext/1171490990/exceptions.o
 .data          0x00000000        0x0 build/LAN9253_D51_SQI_direct_mode/production/_ext/1171490990/exceptions.o
 .bss           0x00000000        0x0 build/LAN9253_D51_SQI_direct_mode/production/_ext/1171490990/exceptions.o
 .text          0x00000000        0x0 build/LAN9253_D51_SQI_direct_mode/production/_ext/1171490990/initialization.o
 .data          0x00000000        0x0 build/LAN9253_D51_SQI_direct_mode/production/_ext/1171490990/initialization.o
 .bss           0x00000000        0x0 build/LAN9253_D51_SQI_direct_mode/production/_ext/1171490990/initialization.o
 COMMON         0x00000000        0x8 build/LAN9253_D51_SQI_direct_mode/production/_ext/1171490990/initialization.o
 .text          0x00000000        0x0 build/LAN9253_D51_SQI_direct_mode/production/_ext/1171490990/interrupts.o
 .data          0x00000000        0x0 build/LAN9253_D51_SQI_direct_mode/production/_ext/1171490990/interrupts.o
 .bss           0x00000000        0x0 build/LAN9253_D51_SQI_direct_mode/production/_ext/1171490990/interrupts.o
 .text          0x00000000        0x0 build/LAN9253_D51_SQI_direct_mode/production/_ext/1171490990/libc_syscalls.o
 .data          0x00000000        0x0 build/LAN9253_D51_SQI_direct_mode/production/_ext/1171490990/libc_syscalls.o
 .bss           0x00000000        0x0 build/LAN9253_D51_SQI_direct_mode/production/_ext/1171490990/libc_syscalls.o
 .text._exit    0x00000000        0xa build/LAN9253_D51_SQI_direct_mode/production/_ext/1171490990/libc_syscalls.o
 .debug_info    0x00000000      0xed6 build/LAN9253_D51_SQI_direct_mode/production/_ext/1171490990/libc_syscalls.o
 .debug_abbrev  0x00000000      0x1a8 build/LAN9253_D51_SQI_direct_mode/production/_ext/1171490990/libc_syscalls.o
 .debug_loc     0x00000000       0x38 build/LAN9253_D51_SQI_direct_mode/production/_ext/1171490990/libc_syscalls.o
 .debug_aranges
                0x00000000       0x20 build/LAN9253_D51_SQI_direct_mode/production/_ext/1171490990/libc_syscalls.o
 .debug_ranges  0x00000000       0x10 build/LAN9253_D51_SQI_direct_mode/production/_ext/1171490990/libc_syscalls.o
 .debug_line    0x00000000      0x1e8 build/LAN9253_D51_SQI_direct_mode/production/_ext/1171490990/libc_syscalls.o
 .debug_str     0x00000000        0xe build/LAN9253_D51_SQI_direct_mode/production/_ext/1171490990/libc_syscalls.o
 .comment       0x00000000       0x3d build/LAN9253_D51_SQI_direct_mode/production/_ext/1171490990/libc_syscalls.o
 .debug_frame   0x00000000       0x2c build/LAN9253_D51_SQI_direct_mode/production/_ext/1171490990/libc_syscalls.o
 .ARM.attributes
                0x00000000       0x39 build/LAN9253_D51_SQI_direct_mode/production/_ext/1171490990/libc_syscalls.o
 .text          0x00000000        0x0 build/LAN9253_D51_SQI_direct_mode/production/_ext/1171490990/startup_xc32.o
 .data          0x00000000        0x0 build/LAN9253_D51_SQI_direct_mode/production/_ext/1171490990/startup_xc32.o
 .bss           0x00000000        0x0 build/LAN9253_D51_SQI_direct_mode/production/_ext/1171490990/startup_xc32.o
 .text          0x00000000        0x0 build/LAN9253_D51_SQI_direct_mode/production/_ext/1171490990/tasks.o
 .data          0x00000000        0x0 build/LAN9253_D51_SQI_direct_mode/production/_ext/1171490990/tasks.o
 .bss           0x00000000        0x0 build/LAN9253_D51_SQI_direct_mode/production/_ext/1171490990/tasks.o
 .text          0x00000000        0x0 build/LAN9253_D51_SQI_direct_mode/production/_ext/1671622979/Drivers.o
 .data          0x00000000        0x0 build/LAN9253_D51_SQI_direct_mode/production/_ext/1671622979/Drivers.o
 .bss           0x00000000        0x0 build/LAN9253_D51_SQI_direct_mode/production/_ext/1671622979/Drivers.o
 .text.__NVIC_EnableIRQ
                0x00000000       0x3c build/LAN9253_D51_SQI_direct_mode/production/_ext/1671622979/Drivers.o
 .text.__NVIC_DisableIRQ
                0x00000000       0x44 build/LAN9253_D51_SQI_direct_mode/production/_ext/1671622979/Drivers.o
 .text.PDI_GetTimer
                0x00000000       0x10 build/LAN9253_D51_SQI_direct_mode/production/_ext/1671622979/Drivers.o
 .text.PDI_ClearTimer
                0x00000000        0xe build/LAN9253_D51_SQI_direct_mode/production/_ext/1671622979/Drivers.o
 .text.stop_timer
                0x00000000       0x10 build/LAN9253_D51_SQI_direct_mode/production/_ext/1671622979/Drivers.o
 .text.start_timer
                0x00000000       0x10 build/LAN9253_D51_SQI_direct_mode/production/_ext/1671622979/Drivers.o
 COMMON         0x00000000      0x805 build/LAN9253_D51_SQI_direct_mode/production/_ext/1671622979/Drivers.o
 .text          0x00000000        0x0 build/LAN9253_D51_SQI_direct_mode/production/_ext/108147519/ESC_Utils.o
 .data          0x00000000        0x0 build/LAN9253_D51_SQI_direct_mode/production/_ext/108147519/ESC_Utils.o
 .bss           0x00000000        0x0 build/LAN9253_D51_SQI_direct_mode/production/_ext/108147519/ESC_Utils.o
 .text          0x00000000        0x0 build/LAN9253_D51_SQI_direct_mode/production/_ext/108147519/LAN925x.o
 .data          0x00000000        0x0 build/LAN9253_D51_SQI_direct_mode/production/_ext/108147519/LAN925x.o
 .bss           0x00000000        0x0 build/LAN9253_D51_SQI_direct_mode/production/_ext/108147519/LAN925x.o
 .bss.gbALEvtOpEnabled
                0x00000000        0x1 build/LAN9253_D51_SQI_direct_mode/production/_ext/108147519/LAN925x.o
 .text.HW_Release
                0x00000000        0xe build/LAN9253_D51_SQI_direct_mode/production/_ext/108147519/LAN925x.o
 .text.HW_EscWriteMailbox
                0x00000000       0x24 build/LAN9253_D51_SQI_direct_mode/production/_ext/108147519/LAN925x.o
 .text.HW_EscReadMailbox
                0x00000000       0x24 build/LAN9253_D51_SQI_direct_mode/production/_ext/108147519/LAN925x.o
 .text.HW_SetLed
                0x00000000       0x1c build/LAN9253_D51_SQI_direct_mode/production/_ext/108147519/LAN925x.o
 COMMON         0x00000000        0x2 build/LAN9253_D51_SQI_direct_mode/production/_ext/108147519/LAN925x.o
 .text          0x00000000        0x0 build/LAN9253_D51_SQI_direct_mode/production/_ext/108134065/bootmode.o
 .data          0x00000000        0x0 build/LAN9253_D51_SQI_direct_mode/production/_ext/108134065/bootmode.o
 .bss           0x00000000        0x0 build/LAN9253_D51_SQI_direct_mode/production/_ext/108134065/bootmode.o
 .text.BL_StartDownload
                0x00000000       0x14 build/LAN9253_D51_SQI_direct_mode/production/_ext/108134065/bootmode.o
 .text.BL_Data  0x00000000       0x1a build/LAN9253_D51_SQI_direct_mode/production/_ext/108134065/bootmode.o
 .text          0x00000000        0x0 build/LAN9253_D51_SQI_direct_mode/production/_ext/108134065/coeappl.o
 .data          0x00000000        0x0 build/LAN9253_D51_SQI_direct_mode/production/_ext/108134065/coeappl.o
 .bss           0x00000000        0x0 build/LAN9253_D51_SQI_direct_mode/production/_ext/108134065/coeappl.o
 .text          0x00000000        0x0 build/LAN9253_D51_SQI_direct_mode/production/_ext/108134065/ecatappl.o
 .data          0x00000000        0x0 build/LAN9253_D51_SQI_direct_mode/production/_ext/108134065/ecatappl.o
 .bss           0x00000000        0x0 build/LAN9253_D51_SQI_direct_mode/production/_ext/108134065/ecatappl.o
 .text          0x00000000        0x0 build/LAN9253_D51_SQI_direct_mode/production/_ext/108134065/ecatcoe.o
 .data          0x00000000        0x0 build/LAN9253_D51_SQI_direct_mode/production/_ext/108134065/ecatcoe.o
 .bss           0x00000000        0x0 build/LAN9253_D51_SQI_direct_mode/production/_ext/108134065/ecatcoe.o
 .text          0x00000000        0x0 build/LAN9253_D51_SQI_direct_mode/production/_ext/108134065/ecatfoe.o
 .data          0x00000000        0x0 build/LAN9253_D51_SQI_direct_mode/production/_ext/108134065/ecatfoe.o
 .bss           0x00000000        0x0 build/LAN9253_D51_SQI_direct_mode/production/_ext/108134065/ecatfoe.o
 .text          0x00000000        0x0 build/LAN9253_D51_SQI_direct_mode/production/_ext/108134065/ecatslv.o
 .data          0x00000000        0x0 build/LAN9253_D51_SQI_direct_mode/production/_ext/108134065/ecatslv.o
 .bss           0x00000000        0x0 build/LAN9253_D51_SQI_direct_mode/production/_ext/108134065/ecatslv.o
 .text.ECAT_StateChange
                0x00000000      0x188 build/LAN9253_D51_SQI_direct_mode/production/_ext/108134065/ecatslv.o
 .text          0x00000000        0x0 build/LAN9253_D51_SQI_direct_mode/production/_ext/108134065/emcy.o
 .data          0x00000000        0x0 build/LAN9253_D51_SQI_direct_mode/production/_ext/108134065/emcy.o
 .bss           0x00000000        0x0 build/LAN9253_D51_SQI_direct_mode/production/_ext/108134065/emcy.o
 .text          0x00000000        0x0 build/LAN9253_D51_SQI_direct_mode/production/_ext/108134065/foeappl.o
 .data          0x00000000        0x0 build/LAN9253_D51_SQI_direct_mode/production/_ext/108134065/foeappl.o
 .bss           0x00000000        0x0 build/LAN9253_D51_SQI_direct_mode/production/_ext/108134065/foeappl.o
 .text          0x00000000        0x0 build/LAN9253_D51_SQI_direct_mode/production/_ext/108134065/mailbox.o
 .data          0x00000000        0x0 build/LAN9253_D51_SQI_direct_mode/production/_ext/108134065/mailbox.o
 .bss           0x00000000        0x0 build/LAN9253_D51_SQI_direct_mode/production/_ext/108134065/mailbox.o
 .text          0x00000000        0x0 build/LAN9253_D51_SQI_direct_mode/production/_ext/108134065/objdef.o
 .data          0x00000000        0x0 build/LAN9253_D51_SQI_direct_mode/production/_ext/108134065/objdef.o
 .bss           0x00000000        0x0 build/LAN9253_D51_SQI_direct_mode/production/_ext/108134065/objdef.o
 .text          0x00000000        0x0 build/LAN9253_D51_SQI_direct_mode/production/_ext/108134065/sample_app.o
 .data          0x00000000        0x0 build/LAN9253_D51_SQI_direct_mode/production/_ext/108134065/sample_app.o
 .bss           0x00000000        0x0 build/LAN9253_D51_SQI_direct_mode/production/_ext/108134065/sample_app.o
 .text.HW_EepromReload
                0x00000000       0x10 build/LAN9253_D51_SQI_direct_mode/production/_ext/108134065/sample_app.o
 .text          0x00000000        0x0 build/LAN9253_D51_SQI_direct_mode/production/_ext/108134065/sdoserv.o
 .data          0x00000000        0x0 build/LAN9253_D51_SQI_direct_mode/production/_ext/108134065/sdoserv.o
 .bss           0x00000000        0x0 build/LAN9253_D51_SQI_direct_mode/production/_ext/108134065/sdoserv.o
 .text          0x00000000        0x0 build/LAN9253_D51_SQI_direct_mode/production/_ext/1360937237/main.o
 .data          0x00000000        0x0 build/LAN9253_D51_SQI_direct_mode/production/_ext/1360937237/main.o
 .bss           0x00000000        0x0 build/LAN9253_D51_SQI_direct_mode/production/_ext/1360937237/main.o
 .text          0x00000000        0x0 build/LAN9253_D51_SQI_direct_mode/production/_ext/1360937237/app.o
 .data          0x00000000        0x0 build/LAN9253_D51_SQI_direct_mode/production/_ext/1360937237/app.o
 .bss           0x00000000        0x0 build/LAN9253_D51_SQI_direct_mode/production/_ext/1360937237/app.o
 .rodata.gAppBankBOffsetAddr
                0x00000000        0x4 build/LAN9253_D51_SQI_direct_mode/production/_ext/1360937237/app.o
 .rodata.gApplicationStartAddr
                0x00000000        0x4 build/LAN9253_D51_SQI_direct_mode/production/_ext/1360937237/app.o
 .text          0x00000000        0x0 build/LAN9253_D51_SQI_direct_mode/production/_ext/1360937237/Developer_Test.o
 .data          0x00000000        0x0 build/LAN9253_D51_SQI_direct_mode/production/_ext/1360937237/Developer_Test.o
 .bss           0x00000000        0x0 build/LAN9253_D51_SQI_direct_mode/production/_ext/1360937237/Developer_Test.o
 .debug_info    0x00000000     0x192f build/LAN9253_D51_SQI_direct_mode/production/_ext/1360937237/Developer_Test.o
 .debug_abbrev  0x00000000      0x1b3 build/LAN9253_D51_SQI_direct_mode/production/_ext/1360937237/Developer_Test.o
 .debug_aranges
                0x00000000       0x18 build/LAN9253_D51_SQI_direct_mode/production/_ext/1360937237/Developer_Test.o
 .debug_line    0x00000000      0x329 build/LAN9253_D51_SQI_direct_mode/production/_ext/1360937237/Developer_Test.o
 .debug_str     0x00000000        0xe build/LAN9253_D51_SQI_direct_mode/production/_ext/1360937237/Developer_Test.o
 .comment       0x00000000       0x3d build/LAN9253_D51_SQI_direct_mode/production/_ext/1360937237/Developer_Test.o
 .ARM.attributes
                0x00000000       0x39 build/LAN9253_D51_SQI_direct_mode/production/_ext/1360937237/Developer_Test.o
 .text          0x00000000        0x0 c:/program files (x86)/microchip/xc32/v2.30/bin/bin/../../lib/gcc/pic32c/6.2.1/../../../../pic32c/lib/v7e-m/fpv4-sp/hard\libpic32c.a(data_init.o)
 .data          0x00000000        0x0 c:/program files (x86)/microchip/xc32/v2.30/bin/bin/../../lib/gcc/pic32c/6.2.1/../../../../pic32c/lib/v7e-m/fpv4-sp/hard\libpic32c.a(data_init.o)
 .bss           0x00000000        0x0 c:/program files (x86)/microchip/xc32/v2.30/bin/bin/../../lib/gcc/pic32c/6.2.1/../../../../pic32c/lib/v7e-m/fpv4-sp/hard\libpic32c.a(data_init.o)
 .text          0x00000000        0x0 c:/program files (x86)/microchip/xc32/v2.30/bin/bin/../../lib/gcc/pic32c/6.2.1/../../../../pic32c/lib/v7e-m/fpv4-sp/hard\libc.a(lib_a-init.o)
 .data          0x00000000        0x0 c:/program files (x86)/microchip/xc32/v2.30/bin/bin/../../lib/gcc/pic32c/6.2.1/../../../../pic32c/lib/v7e-m/fpv4-sp/hard\libc.a(lib_a-init.o)
 .bss           0x00000000        0x0 c:/program files (x86)/microchip/xc32/v2.30/bin/bin/../../lib/gcc/pic32c/6.2.1/../../../../pic32c/lib/v7e-m/fpv4-sp/hard\libc.a(lib_a-init.o)
 .text          0x00000000        0x0 c:/program files (x86)/microchip/xc32/v2.30/bin/bin/../../lib/gcc/pic32c/6.2.1/../../../../pic32c/lib/v7e-m/fpv4-sp/hard\libc.a(lib_a-malloc.o)
 .data          0x00000000        0x0 c:/program files (x86)/microchip/xc32/v2.30/bin/bin/../../lib/gcc/pic32c/6.2.1/../../../../pic32c/lib/v7e-m/fpv4-sp/hard\libc.a(lib_a-malloc.o)
 .bss           0x00000000        0x0 c:/program files (x86)/microchip/xc32/v2.30/bin/bin/../../lib/gcc/pic32c/6.2.1/../../../../pic32c/lib/v7e-m/fpv4-sp/hard\libc.a(lib_a-malloc.o)
 .text          0x00000000        0x0 c:/program files (x86)/microchip/xc32/v2.30/bin/bin/../../lib/gcc/pic32c/6.2.1/../../../../pic32c/lib/v7e-m/fpv4-sp/hard\libc.a(lib_a-mallocr.o)
 .data          0x00000000        0x0 c:/program files (x86)/microchip/xc32/v2.30/bin/bin/../../lib/gcc/pic32c/6.2.1/../../../../pic32c/lib/v7e-m/fpv4-sp/hard\libc.a(lib_a-mallocr.o)
 .bss           0x00000000        0x0 c:/program files (x86)/microchip/xc32/v2.30/bin/bin/../../lib/gcc/pic32c/6.2.1/../../../../pic32c/lib/v7e-m/fpv4-sp/hard\libc.a(lib_a-mallocr.o)
 .text          0x00000000        0x0 c:/program files (x86)/microchip/xc32/v2.30/bin/bin/../../lib/gcc/pic32c/6.2.1/../../../../pic32c/lib/v7e-m/fpv4-sp/hard\libc.a(lib_a-memcpy-stub.o)
 .data          0x00000000        0x0 c:/program files (x86)/microchip/xc32/v2.30/bin/bin/../../lib/gcc/pic32c/6.2.1/../../../../pic32c/lib/v7e-m/fpv4-sp/hard\libc.a(lib_a-memcpy-stub.o)
 .bss           0x00000000        0x0 c:/program files (x86)/microchip/xc32/v2.30/bin/bin/../../lib/gcc/pic32c/6.2.1/../../../../pic32c/lib/v7e-m/fpv4-sp/hard\libc.a(lib_a-memcpy-stub.o)
 .text          0x00000000        0x0 c:/program files (x86)/microchip/xc32/v2.30/bin/bin/../../lib/gcc/pic32c/6.2.1/../../../../pic32c/lib/v7e-m/fpv4-sp/hard\libc.a(lib_a-memset.o)
 .data          0x00000000        0x0 c:/program files (x86)/microchip/xc32/v2.30/bin/bin/../../lib/gcc/pic32c/6.2.1/../../../../pic32c/lib/v7e-m/fpv4-sp/hard\libc.a(lib_a-memset.o)
 .bss           0x00000000        0x0 c:/program files (x86)/microchip/xc32/v2.30/bin/bin/../../lib/gcc/pic32c/6.2.1/../../../../pic32c/lib/v7e-m/fpv4-sp/hard\libc.a(lib_a-memset.o)
 .text          0x00000000        0x0 c:/program files (x86)/microchip/xc32/v2.30/bin/bin/../../lib/gcc/pic32c/6.2.1/../../../../pic32c/lib/v7e-m/fpv4-sp/hard\libc.a(lib_a-mlock.o)
 .data          0x00000000        0x0 c:/program files (x86)/microchip/xc32/v2.30/bin/bin/../../lib/gcc/pic32c/6.2.1/../../../../pic32c/lib/v7e-m/fpv4-sp/hard\libc.a(lib_a-mlock.o)
 .bss           0x00000000        0x0 c:/program files (x86)/microchip/xc32/v2.30/bin/bin/../../lib/gcc/pic32c/6.2.1/../../../../pic32c/lib/v7e-m/fpv4-sp/hard\libc.a(lib_a-mlock.o)
 .text          0x00000000        0x0 c:/program files (x86)/microchip/xc32/v2.30/bin/bin/../../lib/gcc/pic32c/6.2.1/../../../../pic32c/lib/v7e-m/fpv4-sp/hard\libc.a(lib_a-sbrkr.o)
 .data          0x00000000        0x0 c:/program files (x86)/microchip/xc32/v2.30/bin/bin/../../lib/gcc/pic32c/6.2.1/../../../../pic32c/lib/v7e-m/fpv4-sp/hard\libc.a(lib_a-sbrkr.o)
 .bss           0x00000000        0x0 c:/program files (x86)/microchip/xc32/v2.30/bin/bin/../../lib/gcc/pic32c/6.2.1/../../../../pic32c/lib/v7e-m/fpv4-sp/hard\libc.a(lib_a-sbrkr.o)
 .data          0x00000000        0x0 c:/program files (x86)/microchip/xc32/v2.30/bin/bin/../../lib/gcc/pic32c/6.2.1/../../../../pic32c/lib/v7e-m/fpv4-sp/hard\libc.a(lib_a-strlen.o)
 .bss           0x00000000        0x0 c:/program files (x86)/microchip/xc32/v2.30/bin/bin/../../lib/gcc/pic32c/6.2.1/../../../../pic32c/lib/v7e-m/fpv4-sp/hard\libc.a(lib_a-strlen.o)
 .text          0x00000000        0x0 c:/program files (x86)/microchip/xc32/v2.30/bin/bin/../../lib/gcc/pic32c/6.2.1/../../../../pic32c/lib/v7e-m/fpv4-sp/hard\libc.a(lib_a-freer.o)
 .data          0x00000000        0x0 c:/program files (x86)/microchip/xc32/v2.30/bin/bin/../../lib/gcc/pic32c/6.2.1/../../../../pic32c/lib/v7e-m/fpv4-sp/hard\libc.a(lib_a-freer.o)
 .bss           0x00000000        0x0 c:/program files (x86)/microchip/xc32/v2.30/bin/bin/../../lib/gcc/pic32c/6.2.1/../../../../pic32c/lib/v7e-m/fpv4-sp/hard\libc.a(lib_a-freer.o)
 .text          0x00000000        0x0 c:/program files (x86)/microchip/xc32/v2.30/bin/bin/../../lib/gcc/pic32c/6.2.1/../../../../pic32c/lib/v7e-m/fpv4-sp/hard\libc.a(lib_a-impure.o)
 .data          0x00000000        0x0 c:/program files (x86)/microchip/xc32/v2.30/bin/bin/../../lib/gcc/pic32c/6.2.1/../../../../pic32c/lib/v7e-m/fpv4-sp/hard\libc.a(lib_a-impure.o)
 .bss           0x00000000        0x0 c:/program files (x86)/microchip/xc32/v2.30/bin/bin/../../lib/gcc/pic32c/6.2.1/../../../../pic32c/lib/v7e-m/fpv4-sp/hard\libc.a(lib_a-impure.o)
 .rodata._global_impure_ptr
                0x00000000        0x4 c:/program files (x86)/microchip/xc32/v2.30/bin/bin/../../lib/gcc/pic32c/6.2.1/../../../../pic32c/lib/v7e-m/fpv4-sp/hard\libc.a(lib_a-impure.o)
 .text          0x00000000        0x0 c:/program files (x86)/microchip/xc32/v2.30/bin/bin/../../lib/gcc/pic32c/6.2.1/../../../../pic32c/lib/v7e-m/fpv4-sp/hard\libc.a(lib_a-reent.o)
 .data          0x00000000        0x0 c:/program files (x86)/microchip/xc32/v2.30/bin/bin/../../lib/gcc/pic32c/6.2.1/../../../../pic32c/lib/v7e-m/fpv4-sp/hard\libc.a(lib_a-reent.o)
 .bss           0x00000000        0x0 c:/program files (x86)/microchip/xc32/v2.30/bin/bin/../../lib/gcc/pic32c/6.2.1/../../../../pic32c/lib/v7e-m/fpv4-sp/hard\libc.a(lib_a-reent.o)
 .text.cleanup_glue
                0x00000000       0x1a c:/program files (x86)/microchip/xc32/v2.30/bin/bin/../../lib/gcc/pic32c/6.2.1/../../../../pic32c/lib/v7e-m/fpv4-sp/hard\libc.a(lib_a-reent.o)
 .text._reclaim_reent
                0x00000000       0x84 c:/program files (x86)/microchip/xc32/v2.30/bin/bin/../../lib/gcc/pic32c/6.2.1/../../../../pic32c/lib/v7e-m/fpv4-sp/hard\libc.a(lib_a-reent.o)
 .text          0x00000000        0x0 c:/program files (x86)/microchip/xc32/v2.30/bin/bin/../../lib/gcc/pic32c/6.2.1/../../../../pic32c/lib/v7e-m/fpv4-sp/hard\libpic32c.a(sbrk.o)
 .data          0x00000000        0x0 c:/program files (x86)/microchip/xc32/v2.30/bin/bin/../../lib/gcc/pic32c/6.2.1/../../../../pic32c/lib/v7e-m/fpv4-sp/hard\libpic32c.a(sbrk.o)
 .text          0x00000000        0x0 c:/program files (x86)/microchip/xc32/v2.30/bin/bin/../../lib/gcc/pic32c/6.2.1/v7e-m/fpv4-sp/hard/crtend.o
 .data          0x00000000        0x0 c:/program files (x86)/microchip/xc32/v2.30/bin/bin/../../lib/gcc/pic32c/6.2.1/v7e-m/fpv4-sp/hard/crtend.o
 .bss           0x00000000        0x0 c:/program files (x86)/microchip/xc32/v2.30/bin/bin/../../lib/gcc/pic32c/6.2.1/v7e-m/fpv4-sp/hard/crtend.o
 .eh_frame      0x00000000        0x4 c:/program files (x86)/microchip/xc32/v2.30/bin/bin/../../lib/gcc/pic32c/6.2.1/v7e-m/fpv4-sp/hard/crtend.o
 .comment       0x00000000       0x3d c:/program files (x86)/microchip/xc32/v2.30/bin/bin/../../lib/gcc/pic32c/6.2.1/v7e-m/fpv4-sp/hard/crtend.o
 .ARM.attributes
                0x00000000       0x34 c:/program files (x86)/microchip/xc32/v2.30/bin/bin/../../lib/gcc/pic32c/6.2.1/v7e-m/fpv4-sp/hard/crtend.o
 .text          0x00000000        0x0 c:/program files (x86)/microchip/xc32/v2.30/bin/bin/../../lib/gcc/pic32c/6.2.1/v7e-m/fpv4-sp/hard/crtn.o
 .data          0x00000000        0x0 c:/program files (x86)/microchip/xc32/v2.30/bin/bin/../../lib/gcc/pic32c/6.2.1/v7e-m/fpv4-sp/hard/crtn.o
 .bss           0x00000000        0x0 c:/program files (x86)/microchip/xc32/v2.30/bin/bin/../../lib/gcc/pic32c/6.2.1/v7e-m/fpv4-sp/hard/crtn.o

Memory Configuration

Name             Origin             Length             Attributes
rom              0x00000000         0x00080000         xrl
ram              0x20000000         0x00030000         xw !r
config_00804000  0x00804000         0x00000004
config_00804004  0x00804004         0x00000004
config_00804008  0x00804008         0x00000004
*default*        0x00000000         0xffffffff

Linker script and memory map

LOAD c:/program files (x86)/microchip/xc32/v2.30/bin/bin/../../lib/gcc/pic32c/6.2.1/v7e-m/fpv4-sp/hard/crti.o
LOAD c:/program files (x86)/microchip/xc32/v2.30/bin/bin/../../lib/gcc/pic32c/6.2.1/v7e-m/fpv4-sp/hard/crtbegin.o
LOAD build/LAN9253_D51_SQI_direct_mode/production/_ext/2070931557/drv_spi.o
LOAD build/LAN9253_D51_SQI_direct_mode/production/_ext/1984496892/plib_clock.o
LOAD build/LAN9253_D51_SQI_direct_mode/production/_ext/1865131932/plib_cmcc.o
LOAD build/LAN9253_D51_SQI_direct_mode/production/_ext/1865161661/plib_dmac.o
LOAD build/LAN9253_D51_SQI_direct_mode/production/_ext/60167341/plib_eic.o
LOAD build/LAN9253_D51_SQI_direct_mode/production/_ext/1986646378/plib_evsys.o
LOAD build/LAN9253_D51_SQI_direct_mode/production/_ext/1865468468/plib_nvic.o
LOAD build/LAN9253_D51_SQI_direct_mode/production/_ext/1593096446/plib_nvmctrl.o
LOAD build/LAN9253_D51_SQI_direct_mode/production/_ext/1865521619/plib_port.o
LOAD build/LAN9253_D51_SQI_direct_mode/production/_ext/1865555181/plib_qspi_spi.o
LOAD build/LAN9253_D51_SQI_direct_mode/production/_ext/1865555181/plib_qspi.o
LOAD build/LAN9253_D51_SQI_direct_mode/production/_ext/1827571544/plib_systick.o
LOAD build/LAN9253_D51_SQI_direct_mode/production/_ext/163028504/xc32_monitor.o
LOAD build/LAN9253_D51_SQI_direct_mode/production/_ext/1014039709/sys_cache.o
LOAD build/LAN9253_D51_SQI_direct_mode/production/_ext/14461671/sys_dma.o
LOAD build/LAN9253_D51_SQI_direct_mode/production/_ext/1881668453/sys_int.o
LOAD build/LAN9253_D51_SQI_direct_mode/production/_ext/1171490990/exceptions.o
LOAD build/LAN9253_D51_SQI_direct_mode/production/_ext/1171490990/initialization.o
LOAD build/LAN9253_D51_SQI_direct_mode/production/_ext/1171490990/interrupts.o
LOAD build/LAN9253_D51_SQI_direct_mode/production/_ext/1171490990/libc_syscalls.o
LOAD build/LAN9253_D51_SQI_direct_mode/production/_ext/1171490990/startup_xc32.o
LOAD build/LAN9253_D51_SQI_direct_mode/production/_ext/1171490990/tasks.o
LOAD build/LAN9253_D51_SQI_direct_mode/production/_ext/1671622979/Drivers.o
LOAD build/LAN9253_D51_SQI_direct_mode/production/_ext/108147519/ESC_Utils.o
LOAD build/LAN9253_D51_SQI_direct_mode/production/_ext/108147519/LAN925x.o
LOAD build/LAN9253_D51_SQI_direct_mode/production/_ext/108134065/bootmode.o
LOAD build/LAN9253_D51_SQI_direct_mode/production/_ext/108134065/coeappl.o
LOAD build/LAN9253_D51_SQI_direct_mode/production/_ext/108134065/ecatappl.o
LOAD build/LAN9253_D51_SQI_direct_mode/production/_ext/108134065/ecatcoe.o
LOAD build/LAN9253_D51_SQI_direct_mode/production/_ext/108134065/ecatfoe.o
LOAD build/LAN9253_D51_SQI_direct_mode/production/_ext/108134065/ecatslv.o
LOAD build/LAN9253_D51_SQI_direct_mode/production/_ext/108134065/emcy.o
LOAD build/LAN9253_D51_SQI_direct_mode/production/_ext/108134065/foeappl.o
LOAD build/LAN9253_D51_SQI_direct_mode/production/_ext/108134065/mailbox.o
LOAD build/LAN9253_D51_SQI_direct_mode/production/_ext/108134065/objdef.o
LOAD build/LAN9253_D51_SQI_direct_mode/production/_ext/108134065/sample_app.o
LOAD build/LAN9253_D51_SQI_direct_mode/production/_ext/108134065/sdoserv.o
LOAD build/LAN9253_D51_SQI_direct_mode/production/_ext/1360937237/main.o
LOAD build/LAN9253_D51_SQI_direct_mode/production/_ext/1360937237/app.o
LOAD build/LAN9253_D51_SQI_direct_mode/production/_ext/1360937237/Developer_Test.o
                0x00000001                __MPLAB_BUILD = 0x1
                0x00000200                _min_heap_size = 0x200
START GROUP
LOAD c:/program files (x86)/microchip/xc32/v2.30/bin/bin/../../lib/gcc/pic32c/6.2.1/../../../../pic32c/lib/v7e-m/fpv4-sp/hard\libpic32c.a
LOAD c:/program files (x86)/microchip/xc32/v2.30/bin/bin/../../lib/gcc/pic32c/6.2.1/v7e-m/fpv4-sp/hard\libgcc.a
LOAD c:/program files (x86)/microchip/xc32/v2.30/bin/bin/../../lib/gcc/pic32c/6.2.1/../../../../pic32c/lib/v7e-m/fpv4-sp/hard\libc.a
LOAD c:/program files (x86)/microchip/xc32/v2.30/bin/bin/../../lib/gcc/pic32c/6.2.1/../../../../pic32c/lib/v7e-m/fpv4-sp/hard\libm.a
END GROUP
LOAD c:/program files (x86)/microchip/xc32/v2.30/bin/bin/../../lib/gcc/pic32c/6.2.1/v7e-m/fpv4-sp/hard/crtend.o
LOAD c:/program files (x86)/microchip/xc32/v2.30/bin/bin/../../lib/gcc/pic32c/6.2.1/v7e-m/fpv4-sp/hard/crtn.o
                0x00080000                __rom_end = (ORIGIN (rom) + LENGTH (rom))
                0x20030000                __ram_end = (ORIGIN (ram) + LENGTH (ram))

.config_00804000
 *(.config_00804000)

.config_00804004
 *(.config_00804004)

.config_00804008
 *(.config_00804008)

.vectors        0x00000000      0x260
                0x00000000                . = ALIGN (0x4)
                0x00000000                _sfixed = .
 *(.vectors .vectors.* .vectors_default .vectors_default.*)
 .vectors       0x00000000      0x260 build/LAN9253_D51_SQI_direct_mode/production/_ext/1171490990/interrupts.o
                0x00000000                exception_table
 *(.isr_vector)
 *(.reset*)
 *(.after_vectors)

.text           0x00000260       0x20
                0x00000260                . = ALIGN (0x4)
 *(.glue_7t)
 .glue_7t       0x00000260        0x0 linker stubs
 *(.glue_7)
 .glue_7        0x00000260        0x0 linker stubs
 *(.gnu.linkonce.r.*)
 *(.ARM.extab* .gnu.linkonce.armextab.*)
                0x00000260                . = ALIGN (0x4)
 *(.init)
 .init          0x00000260        0x4 c:/program files (x86)/microchip/xc32/v2.30/bin/bin/../../lib/gcc/pic32c/6.2.1/v7e-m/fpv4-sp/hard/crti.o
                0x00000260                _init
 .init          0x00000264        0x8 c:/program files (x86)/microchip/xc32/v2.30/bin/bin/../../lib/gcc/pic32c/6.2.1/v7e-m/fpv4-sp/hard/crtn.o
                0x0000026c                . = ALIGN (0x4)
                0x0000026c                __preinit_array_start = .
 *(.preinit_array)
                0x0000026c                __preinit_array_end = .
                0x0000026c                . = ALIGN (0x4)
                0x0000026c                __init_array_start = .
 *(SORT(.init_array.*))
 *(.init_array)
 .init_array    0x0000026c        0x4 c:/program files (x86)/microchip/xc32/v2.30/bin/bin/../../lib/gcc/pic32c/6.2.1/v7e-m/fpv4-sp/hard/crtbegin.o
                0x00000270                __init_array_end = .
                0x00000270                . = ALIGN (0x4)
 *crtbegin.o(.ctors)
 *(EXCLUDE_FILE(*crtend.o) .ctors)
 *(SORT(.ctors.*))
 *crtend.o(.ctors)
                0x00000270                . = ALIGN (0x4)
 *(.fini)
 .fini          0x00000270        0x4 c:/program files (x86)/microchip/xc32/v2.30/bin/bin/../../lib/gcc/pic32c/6.2.1/v7e-m/fpv4-sp/hard/crti.o
                0x00000270                _fini
 .fini          0x00000274        0x8 c:/program files (x86)/microchip/xc32/v2.30/bin/bin/../../lib/gcc/pic32c/6.2.1/v7e-m/fpv4-sp/hard/crtn.o
                0x0000027c                . = ALIGN (0x4)
                0x0000027c                __fini_array_start = .
 *(.fini_array)
 .fini_array    0x0000027c        0x4 c:/program files (x86)/microchip/xc32/v2.30/bin/bin/../../lib/gcc/pic32c/6.2.1/v7e-m/fpv4-sp/hard/crtbegin.o
 *(SORT(.fini_array.*))
                0x00000280                __fini_array_end = .
 *crtbegin.o(.dtors)
 *(EXCLUDE_FILE(*crtend.o) .dtors)
 *(SORT(.dtors.*))
 *crtend.o(.dtors)
                0x00000280                . = ALIGN (0x4)
                0x00000280                _efixed = .
                [!provide]                PROVIDE (__exidx_start, .)

.ARM.exidx
 *(.ARM.exidx* .gnu.linkonce.armexidx.*)
                [!provide]                PROVIDE (__exidx_end, .)
                0x00000280                . = ALIGN (0x4)
                0x00000280                _etext = .

.bss            0x20000000     0x355c
                0x20000000                . = ALIGN (0x4)
                0x20000000                __bss_start__ = .
                0x20000000                _sbss = .
                0x20000000                _szero = .
 *(COMMON)
 COMMON         0x20000000       0x20 build/LAN9253_D51_SQI_direct_mode/production/_ext/1865161661/plib_dmac.o
                0x20000000                dmacChannelObj
 COMMON         0x20000020       0xc0 build/LAN9253_D51_SQI_direct_mode/production/_ext/60167341/plib_eic.o
                0x20000020                eicCallbackObject
 COMMON         0x200000e0        0xc build/LAN9253_D51_SQI_direct_mode/production/_ext/1827571544/plib_systick.o
                0x200000e0                systick
 COMMON         0x200000ec        0x8 build/LAN9253_D51_SQI_direct_mode/production/_ext/108134065/coeappl.o
                0x200000ec                u32LastDc32Value
                0x200000f0                u32CheckForDcOverrunCnt
 COMMON         0x200000f4     0x123c build/LAN9253_D51_SQI_direct_mode/production/_ext/108134065/ecatappl.o
                0x200000f4                bMinCycleTimeMeasurementStarted
                0x200000f8                u32CycleTimeStartValue
                0x200000fc                bRunApplication
                0x20000100                u32SystemTimeReadFailure
                0x20000104                bEcatWaitForInputUpdate
                0x20000108                u32MinCycleTimeValue
                0x2000010c                aPdOutputData
                0x20000a0c                pAPPL_FoeError
                0x20000a10                pAPPL_FoeReadData
                0x20000a14                pAPPL_MainLoop
                0x20000a18                bEtherCATErrorLed
                0x20000a1c                u32MinCycleTimeStartValue
                0x20000a20                aPdInputData
                0x20001320                bEtherCATRunLed
                0x20001324                pAPPL_FoeWriteData
                0x20001328                pAPPL_FoeRead
                0x2000132c                pAPPL_FoeWrite
 COMMON         0x20001330        0x4 build/LAN9253_D51_SQI_direct_mode/production/_ext/108134065/ecatcoe.o
                0x20001330                pCoeSendStored
 COMMON         0x20001334       0x16 build/LAN9253_D51_SQI_direct_mode/production/_ext/108134065/ecatfoe.o
                0x20001334                u32FileOffset
                0x20001338                u16FileAccessState
                0x2000133c                u32PacketNo
                0x20001340                pFoeSendStored
                0x20001344                u32LastFileOffset
                0x20001348                u16FoeMaxSendBlockSize
 *fill*         0x2000134a        0x2 
 COMMON         0x2000134c       0x52 build/LAN9253_D51_SQI_direct_mode/production/_ext/108134065/ecatslv.o
                0x2000134c                b3BufferMode
                0x2000134e                nEcatStateTrans
                0x20001350                EcatWdCounter
                0x20001352                bApplEsmPending
                0x20001353                nAlStatus
                0x20001354                nPdOutputSize
                0x20001356                u16LocalErrorCode
                0x20001358                Sync0WdCounter
                0x2000135a                bLocalErrorFlag
                0x2000135c                LatchInputSync0Counter
                0x2000135e                i16WaitForPllRunningCnt
                0x20001360                nEscAddrOutputData
                0x20001362                Sync0WdValue
                0x20001364                u8EcatRunLed
                0x20001366                i16WaitForPllRunningTimeout
                0x20001368                Sync1WdValue
                0x2000136a                u16ALEventMask
                0x2000136c                bDcRunning
                0x20001370                u32dummy
                0x20001374                SyncManInfo
                0x2000137c                b32BitDc
                0x2000137e                LatchInputSync0Value
                0x20001380                bEcatWaitForAlControlRes
                0x20001382                nPdInputSize
                0x20001384                u16SmSync0Value
                0x20001386                nMaxEscAddress
                0x20001388                bEcatFirstOutputsReceived
                0x20001389                bSmSyncSequenceValid
                0x2000138a                EsmTimeoutCounter
                0x2000138c                bBootMode
                0x2000138d                bDcSyncActive
                0x2000138e                bEcatOutputUpdateRunning
                0x20001390                Sync1WdCounter
                0x20001392                EcatWdValue
                0x20001394                bEcatInputUpdateRunning
                0x20001395                bEscIntEnabled
                0x20001396                bWdTrigger
                0x20001398                u16SmSync0Counter
                0x2000139a                nMaxSyncMan
                0x2000139b                u8EcatErrorLed
                0x2000139c                nEscAddrInputData
 *fill*         0x2000139e        0x2 
 COMMON         0x200013a0       0x28 build/LAN9253_D51_SQI_direct_mode/production/_ext/108134065/emcy.o
                0x200013a0                sSendEmcyQueue
                0x200013b0                asEmcy
                0x200013b8                sEmptyEmcyQueue
 COMMON         0x200013c8       0x94 build/LAN9253_D51_SQI_direct_mode/production/_ext/108134065/mailbox.o
                0x200013c8                u8MbxReadCounter
                0x200013cc                sMbxSendQueue
                0x20001400                sMbxReceiveQueue
                0x20001434                bNoMbxMemoryAvailable
                0x20001435                bSendMbxIsFull
                0x20001436                bMbxRunning
                0x20001438                u16EscAddrReceiveMbx
                0x2000143c                psStoreMbx
                0x20001440                u16SendMbxSize
                0x20001444                psReadMbx
                0x20001448                bReceiveMbxIsLocked
                0x2000144a                u16EscAddrSendMbx
                0x2000144c                psWriteMbx
                0x20001450                u8MbxWriteCounter
                0x20001451                u8MailboxSendReqStored
                0x20001452                u16ReceiveMbxSize
                0x20001454                bMbxRepeatToggle
                0x20001458                psRepeatMbx
 COMMON         0x2000145c       0x8e build/LAN9253_D51_SQI_direct_mode/production/_ext/108134065/objdef.o
                0x2000145c                sSyncManInPar
                0x200014a0                sSyncManOutPar
                0x200014e4                bSyncSetByUser
                0x200014e8                sCycleDiag
 *fill*         0x200014ea        0x2 
 COMMON         0x200014ec     0x2016 build/LAN9253_D51_SQI_direct_mode/production/_ext/108134065/sample_app.o
                0x200014ec                aFileData
                0x200034ec                aFileName
 *fill*         0x20003502        0x2 
 COMMON         0x20003504       0x4d build/LAN9253_D51_SQI_direct_mode/production/_ext/108134065/sdoserv.o
                0x20003504                nSdoInfoIndex
                0x20003508                pStoreData
                0x2000350c                nSdoSegBytesToHandle
                0x20003510                bSdoSegAccess
                0x20003511                bSdoSegFollows
                0x20003514                nSdoSegCompleteSize
                0x20003518                pSdoPendFunc
                0x2000351c                u8PendingSdo
                0x2000351d                bStoreCompleteAccess
                0x2000351e                bSdoSegLastToggle
                0x2000351f                nSdoSegService
                0x20003520                pSdoInfoObjEntry
                0x20003524                nSdoInfoFragmentsLeft
                0x20003528                pSdoResStored
                0x2000352c                u32StoreDataSize
                0x20003530                pSdoSegData
                0x20003534                nSdoSegIndex
                0x20003538                aSdoInfoHeader
                0x20003548                pSdoSegObjEntry
                0x2000354c                nSdoSegSubindex
                0x2000354e                u16StoreIndex
                0x20003550                u8StoreSubindex
 *fill*         0x20003551        0x3 
 COMMON         0x20003554        0x1 build/LAN9253_D51_SQI_direct_mode/production/_ext/1360937237/app.o
                0x20003554                appData
 *fill*         0x20003555        0x3 
 COMMON         0x20003558        0x4 c:/program files (x86)/microchip/xc32/v2.30/bin/bin/../../lib/gcc/pic32c/6.2.1/../../../../pic32c/lib/v7e-m/fpv4-sp/hard\libc.a(lib_a-reent.o)
                0x20003558                errno
                0x2000355c                . = ALIGN (0x4)
                0x2000355c                __bss_end__ = .
                0x2000355c                _ebss = .
                0x2000355c                _ezero = .
                0x2000355c                . = ALIGN (0x4)
                0x2000355c                _end = .
                0x2002ffff                _ram_end_ = ((ORIGIN (ram) + LENGTH (ram)) - 0x1)
OUTPUT(dist/LAN9253_D51_SQI_direct_mode/production/ESF_EVB_LAN9253.production.elf elf32-littlearm)
LOAD stack
LOAD data_init

.ARM.attributes
                0x00000000       0x30
 .ARM.attributes
                0x00000000       0x22 c:/program files (x86)/microchip/xc32/v2.30/bin/bin/../../lib/gcc/pic32c/6.2.1/v7e-m/fpv4-sp/hard/crti.o
 .ARM.attributes
                0x00000022       0x34 c:/program files (x86)/microchip/xc32/v2.30/bin/bin/../../lib/gcc/pic32c/6.2.1/v7e-m/fpv4-sp/hard/crtbegin.o
 .ARM.attributes
                0x00000056       0x39 build/LAN9253_D51_SQI_direct_mode/production/_ext/1984496892/plib_clock.o
 .ARM.attributes
                0x0000008f       0x39 build/LAN9253_D51_SQI_direct_mode/production/_ext/1865161661/plib_dmac.o
 .ARM.attributes
                0x000000c8       0x39 build/LAN9253_D51_SQI_direct_mode/production/_ext/60167341/plib_eic.o
 .ARM.attributes
                0x00000101       0x39 build/LAN9253_D51_SQI_direct_mode/production/_ext/1986646378/plib_evsys.o
 .ARM.attributes
                0x0000013a       0x39 build/LAN9253_D51_SQI_direct_mode/production/_ext/1865468468/plib_nvic.o
 .ARM.attributes
                0x00000173       0x39 build/LAN9253_D51_SQI_direct_mode/production/_ext/1593096446/plib_nvmctrl.o
 .ARM.attributes
                0x000001ac       0x39 build/LAN9253_D51_SQI_direct_mode/production/_ext/1865521619/plib_port.o
 .ARM.attributes
                0x000001e5       0x39 build/LAN9253_D51_SQI_direct_mode/production/_ext/1865555181/plib_qspi.o
 .ARM.attributes
                0x0000021e       0x39 build/LAN9253_D51_SQI_direct_mode/production/_ext/1827571544/plib_systick.o
 .ARM.attributes
                0x00000257       0x39 build/LAN9253_D51_SQI_direct_mode/production/_ext/1171490990/exceptions.o
 .ARM.attributes
                0x00000290       0x39 build/LAN9253_D51_SQI_direct_mode/production/_ext/1171490990/initialization.o
 .ARM.attributes
                0x000002c9       0x39 build/LAN9253_D51_SQI_direct_mode/production/_ext/1171490990/interrupts.o
 .ARM.attributes
                0x00000302       0x39 build/LAN9253_D51_SQI_direct_mode/production/_ext/1171490990/startup_xc32.o
 .ARM.attributes
                0x0000033b       0x39 build/LAN9253_D51_SQI_direct_mode/production/_ext/1171490990/tasks.o
 .ARM.attributes
                0x00000374       0x39 build/LAN9253_D51_SQI_direct_mode/production/_ext/1671622979/Drivers.o
 .ARM.attributes
                0x000003ad       0x39 build/LAN9253_D51_SQI_direct_mode/production/_ext/108147519/ESC_Utils.o
 .ARM.attributes
                0x000003e6       0x39 build/LAN9253_D51_SQI_direct_mode/production/_ext/108147519/LAN925x.o
 .ARM.attributes
                0x0000041f       0x39 build/LAN9253_D51_SQI_direct_mode/production/_ext/108134065/bootmode.o
 .ARM.attributes
                0x00000458       0x39 build/LAN9253_D51_SQI_direct_mode/production/_ext/108134065/coeappl.o
 .ARM.attributes
                0x00000491       0x39 build/LAN9253_D51_SQI_direct_mode/production/_ext/108134065/ecatappl.o
 .ARM.attributes
                0x000004ca       0x39 build/LAN9253_D51_SQI_direct_mode/production/_ext/108134065/ecatcoe.o
 .ARM.attributes
                0x00000503       0x39 build/LAN9253_D51_SQI_direct_mode/production/_ext/108134065/ecatfoe.o
 .ARM.attributes
                0x0000053c       0x39 build/LAN9253_D51_SQI_direct_mode/production/_ext/108134065/ecatslv.o
 .ARM.attributes
                0x00000575       0x39 build/LAN9253_D51_SQI_direct_mode/production/_ext/108134065/emcy.o
 .ARM.attributes
                0x000005ae       0x39 build/LAN9253_D51_SQI_direct_mode/production/_ext/108134065/foeappl.o
 .ARM.attributes
                0x000005e7       0x39 build/LAN9253_D51_SQI_direct_mode/production/_ext/108134065/mailbox.o
 .ARM.attributes
                0x00000620       0x39 build/LAN9253_D51_SQI_direct_mode/production/_ext/108134065/objdef.o
 .ARM.attributes
                0x00000659       0x39 build/LAN9253_D51_SQI_direct_mode/production/_ext/108134065/sample_app.o
 .ARM.attributes
                0x00000692       0x39 build/LAN9253_D51_SQI_direct_mode/production/_ext/108134065/sdoserv.o
 .ARM.attributes
                0x000006cb       0x39 build/LAN9253_D51_SQI_direct_mode/production/_ext/1360937237/main.o
 .ARM.attributes
                0x00000704       0x39 build/LAN9253_D51_SQI_direct_mode/production/_ext/1360937237/app.o
 .ARM.attributes
                0x0000073d       0x34 c:/program files (x86)/microchip/xc32/v2.30/bin/bin/../../lib/gcc/pic32c/6.2.1/../../../../pic32c/lib/v7e-m/fpv4-sp/hard\libpic32c.a(data_init.o)
 .ARM.attributes
                0x00000771       0x34 c:/program files (x86)/microchip/xc32/v2.30/bin/bin/../../lib/gcc/pic32c/6.2.1/../../../../pic32c/lib/v7e-m/fpv4-sp/hard\libc.a(lib_a-init.o)
 .ARM.attributes
                0x000007a5       0x34 c:/program files (x86)/microchip/xc32/v2.30/bin/bin/../../lib/gcc/pic32c/6.2.1/../../../../pic32c/lib/v7e-m/fpv4-sp/hard\libc.a(lib_a-malloc.o)
 .ARM.attributes
                0x000007d9       0x34 c:/program files (x86)/microchip/xc32/v2.30/bin/bin/../../lib/gcc/pic32c/6.2.1/../../../../pic32c/lib/v7e-m/fpv4-sp/hard\libc.a(lib_a-mallocr.o)
 .ARM.attributes
                0x0000080d       0x34 c:/program files (x86)/microchip/xc32/v2.30/bin/bin/../../lib/gcc/pic32c/6.2.1/../../../../pic32c/lib/v7e-m/fpv4-sp/hard\libc.a(lib_a-memcpy-stub.o)
 .ARM.attributes
                0x00000841       0x34 c:/program files (x86)/microchip/xc32/v2.30/bin/bin/../../lib/gcc/pic32c/6.2.1/../../../../pic32c/lib/v7e-m/fpv4-sp/hard\libc.a(lib_a-memset.o)
 .ARM.attributes
                0x00000875       0x34 c:/program files (x86)/microchip/xc32/v2.30/bin/bin/../../lib/gcc/pic32c/6.2.1/../../../../pic32c/lib/v7e-m/fpv4-sp/hard\libc.a(lib_a-mlock.o)
 .ARM.attributes
                0x000008a9       0x34 c:/program files (x86)/microchip/xc32/v2.30/bin/bin/../../lib/gcc/pic32c/6.2.1/../../../../pic32c/lib/v7e-m/fpv4-sp/hard\libc.a(lib_a-sbrkr.o)
 .ARM.attributes
                0x000008dd       0x1b c:/program files (x86)/microchip/xc32/v2.30/bin/bin/../../lib/gcc/pic32c/6.2.1/../../../../pic32c/lib/v7e-m/fpv4-sp/hard\libc.a(lib_a-strlen.o)
 .ARM.attributes
                0x000008f8       0x34 c:/program files (x86)/microchip/xc32/v2.30/bin/bin/../../lib/gcc/pic32c/6.2.1/../../../../pic32c/lib/v7e-m/fpv4-sp/hard\libc.a(lib_a-freer.o)
 .ARM.attributes
                0x0000092c       0x34 c:/program files (x86)/microchip/xc32/v2.30/bin/bin/../../lib/gcc/pic32c/6.2.1/../../../../pic32c/lib/v7e-m/fpv4-sp/hard\libc.a(lib_a-impure.o)
 .ARM.attributes
                0x00000960       0x34 c:/program files (x86)/microchip/xc32/v2.30/bin/bin/../../lib/gcc/pic32c/6.2.1/../../../../pic32c/lib/v7e-m/fpv4-sp/hard\libc.a(lib_a-reent.o)
 .ARM.attributes
                0x00000994       0x34 c:/program files (x86)/microchip/xc32/v2.30/bin/bin/../../lib/gcc/pic32c/6.2.1/../../../../pic32c/lib/v7e-m/fpv4-sp/hard\libpic32c.a(sbrk.o)
 .ARM.attributes
                0x000009c8       0x22 c:/program files (x86)/microchip/xc32/v2.30/bin/bin/../../lib/gcc/pic32c/6.2.1/v7e-m/fpv4-sp/hard/crtn.o

.comment        0x00000000       0x3c
 .comment       0x00000000       0x3c c:/program files (x86)/microchip/xc32/v2.30/bin/bin/../../lib/gcc/pic32c/6.2.1/v7e-m/fpv4-sp/hard/crtbegin.o
                                 0x3d (size before relaxing)
 .comment       0x0000003c       0x3d build/LAN9253_D51_SQI_direct_mode/production/_ext/1984496892/plib_clock.o
 .comment       0x0000003c       0x3d build/LAN9253_D51_SQI_direct_mode/production/_ext/1865161661/plib_dmac.o
 .comment       0x0000003c       0x3d build/LAN9253_D51_SQI_direct_mode/production/_ext/60167341/plib_eic.o
 .comment       0x0000003c       0x3d build/LAN9253_D51_SQI_direct_mode/production/_ext/1986646378/plib_evsys.o
 .comment       0x0000003c       0x3d build/LAN9253_D51_SQI_direct_mode/production/_ext/1865468468/plib_nvic.o
 .comment       0x0000003c       0x3d build/LAN9253_D51_SQI_direct_mode/production/_ext/1593096446/plib_nvmctrl.o
 .comment       0x0000003c       0x3d build/LAN9253_D51_SQI_direct_mode/production/_ext/1865521619/plib_port.o
 .comment       0x0000003c       0x3d build/LAN9253_D51_SQI_direct_mode/production/_ext/1865555181/plib_qspi.o
 .comment       0x0000003c       0x3d build/LAN9253_D51_SQI_direct_mode/production/_ext/1827571544/plib_systick.o
 .comment       0x0000003c       0x3d build/LAN9253_D51_SQI_direct_mode/production/_ext/1171490990/exceptions.o
 .comment       0x0000003c       0x3d build/LAN9253_D51_SQI_direct_mode/production/_ext/1171490990/initialization.o
 .comment       0x0000003c       0x3d build/LAN9253_D51_SQI_direct_mode/production/_ext/1171490990/interrupts.o
 .comment       0x0000003c       0x3d build/LAN9253_D51_SQI_direct_mode/production/_ext/1171490990/startup_xc32.o
 .comment       0x0000003c       0x3d build/LAN9253_D51_SQI_direct_mode/production/_ext/1171490990/tasks.o
 .comment       0x0000003c       0x3d build/LAN9253_D51_SQI_direct_mode/production/_ext/1671622979/Drivers.o
 .comment       0x0000003c       0x3d build/LAN9253_D51_SQI_direct_mode/production/_ext/108147519/ESC_Utils.o
 .comment       0x0000003c       0x3d build/LAN9253_D51_SQI_direct_mode/production/_ext/108147519/LAN925x.o
 .comment       0x0000003c       0x3d build/LAN9253_D51_SQI_direct_mode/production/_ext/108134065/bootmode.o
 .comment       0x0000003c       0x3d build/LAN9253_D51_SQI_direct_mode/production/_ext/108134065/coeappl.o
 .comment       0x0000003c       0x3d build/LAN9253_D51_SQI_direct_mode/production/_ext/108134065/ecatappl.o
 .comment       0x0000003c       0x3d build/LAN9253_D51_SQI_direct_mode/production/_ext/108134065/ecatcoe.o
 .comment       0x0000003c       0x3d build/LAN9253_D51_SQI_direct_mode/production/_ext/108134065/ecatfoe.o
 .comment       0x0000003c       0x3d build/LAN9253_D51_SQI_direct_mode/production/_ext/108134065/ecatslv.o
 .comment       0x0000003c       0x3d build/LAN9253_D51_SQI_direct_mode/production/_ext/108134065/emcy.o
 .comment       0x0000003c       0x3d build/LAN9253_D51_SQI_direct_mode/production/_ext/108134065/foeappl.o
 .comment       0x0000003c       0x3d build/LAN9253_D51_SQI_direct_mode/production/_ext/108134065/mailbox.o
 .comment       0x0000003c       0x3d build/LAN9253_D51_SQI_direct_mode/production/_ext/108134065/objdef.o
 .comment       0x0000003c       0x3d build/LAN9253_D51_SQI_direct_mode/production/_ext/108134065/sample_app.o
 .comment       0x0000003c       0x3d build/LAN9253_D51_SQI_direct_mode/production/_ext/108134065/sdoserv.o
 .comment       0x0000003c       0x3d build/LAN9253_D51_SQI_direct_mode/production/_ext/1360937237/main.o
 .comment       0x0000003c       0x3d build/LAN9253_D51_SQI_direct_mode/production/_ext/1360937237/app.o
 .comment       0x0000003c       0x3d c:/program files (x86)/microchip/xc32/v2.30/bin/bin/../../lib/gcc/pic32c/6.2.1/../../../../pic32c/lib/v7e-m/fpv4-sp/hard\libpic32c.a(data_init.o)
 .comment       0x0000003c       0x3d c:/program files (x86)/microchip/xc32/v2.30/bin/bin/../../lib/gcc/pic32c/6.2.1/../../../../pic32c/lib/v7e-m/fpv4-sp/hard\libc.a(lib_a-init.o)
 .comment       0x0000003c       0x3d c:/program files (x86)/microchip/xc32/v2.30/bin/bin/../../lib/gcc/pic32c/6.2.1/../../../../pic32c/lib/v7e-m/fpv4-sp/hard\libc.a(lib_a-malloc.o)
 .comment       0x0000003c       0x3d c:/program files (x86)/microchip/xc32/v2.30/bin/bin/../../lib/gcc/pic32c/6.2.1/../../../../pic32c/lib/v7e-m/fpv4-sp/hard\libc.a(lib_a-mallocr.o)
 .comment       0x0000003c       0x3d c:/program files (x86)/microchip/xc32/v2.30/bin/bin/../../lib/gcc/pic32c/6.2.1/../../../../pic32c/lib/v7e-m/fpv4-sp/hard\libc.a(lib_a-memcpy-stub.o)
 .comment       0x0000003c       0x3d c:/program files (x86)/microchip/xc32/v2.30/bin/bin/../../lib/gcc/pic32c/6.2.1/../../../../pic32c/lib/v7e-m/fpv4-sp/hard\libc.a(lib_a-memset.o)
 .comment       0x0000003c       0x3d c:/program files (x86)/microchip/xc32/v2.30/bin/bin/../../lib/gcc/pic32c/6.2.1/../../../../pic32c/lib/v7e-m/fpv4-sp/hard\libc.a(lib_a-mlock.o)
 .comment       0x0000003c       0x3d c:/program files (x86)/microchip/xc32/v2.30/bin/bin/../../lib/gcc/pic32c/6.2.1/../../../../pic32c/lib/v7e-m/fpv4-sp/hard\libc.a(lib_a-sbrkr.o)
 .comment       0x0000003c       0x3d c:/program files (x86)/microchip/xc32/v2.30/bin/bin/../../lib/gcc/pic32c/6.2.1/../../../../pic32c/lib/v7e-m/fpv4-sp/hard\libc.a(lib_a-freer.o)
 .comment       0x0000003c       0x3d c:/program files (x86)/microchip/xc32/v2.30/bin/bin/../../lib/gcc/pic32c/6.2.1/../../../../pic32c/lib/v7e-m/fpv4-sp/hard\libc.a(lib_a-impure.o)
 .comment       0x0000003c       0x3d c:/program files (x86)/microchip/xc32/v2.30/bin/bin/../../lib/gcc/pic32c/6.2.1/../../../../pic32c/lib/v7e-m/fpv4-sp/hard\libc.a(lib_a-reent.o)
 .comment       0x0000003c       0x3d c:/program files (x86)/microchip/xc32/v2.30/bin/bin/../../lib/gcc/pic32c/6.2.1/../../../../pic32c/lib/v7e-m/fpv4-sp/hard\libpic32c.a(sbrk.o)

.debug_info     0x00000000    0x53553
 .debug_info    0x00000000      0xb91 build/LAN9253_D51_SQI_direct_mode/production/_ext/1984496892/plib_clock.o
 .debug_info    0x00000b91     0x2c63 build/LAN9253_D51_SQI_direct_mode/production/_ext/1865161661/plib_dmac.o
 .debug_info    0x000037f4      0x7ff build/LAN9253_D51_SQI_direct_mode/production/_ext/60167341/plib_eic.o
 .debug_info    0x00003ff3      0x37a build/LAN9253_D51_SQI_direct_mode/production/_ext/1986646378/plib_evsys.o
 .debug_info    0x0000436d     0x110d build/LAN9253_D51_SQI_direct_mode/production/_ext/1865468468/plib_nvic.o
 .debug_info    0x0000547a     0x16da build/LAN9253_D51_SQI_direct_mode/production/_ext/1593096446/plib_nvmctrl.o
 .debug_info    0x00006b54      0x836 build/LAN9253_D51_SQI_direct_mode/production/_ext/1865521619/plib_port.o
 .debug_info    0x0000738a      0xc9c build/LAN9253_D51_SQI_direct_mode/production/_ext/1865555181/plib_qspi.o
 .debug_info    0x00008026      0x6d5 build/LAN9253_D51_SQI_direct_mode/production/_ext/1827571544/plib_systick.o
 .debug_info    0x000086fb     0x1a2d build/LAN9253_D51_SQI_direct_mode/production/_ext/1171490990/exceptions.o
 .debug_info    0x0000a128     0x1a50 build/LAN9253_D51_SQI_direct_mode/production/_ext/1171490990/initialization.o
 .debug_info    0x0000bb78     0x2d09 build/LAN9253_D51_SQI_direct_mode/production/_ext/1171490990/interrupts.o
 .debug_info    0x0000e881     0x1e36 build/LAN9253_D51_SQI_direct_mode/production/_ext/1171490990/startup_xc32.o
 .debug_info    0x000106b7     0x195d build/LAN9253_D51_SQI_direct_mode/production/_ext/1171490990/tasks.o
 .debug_info    0x00012014     0x3a9d build/LAN9253_D51_SQI_direct_mode/production/_ext/1671622979/Drivers.o
 .debug_info    0x00015ab1     0x1b94 build/LAN9253_D51_SQI_direct_mode/production/_ext/108147519/ESC_Utils.o
 .debug_info    0x00017645     0x28af build/LAN9253_D51_SQI_direct_mode/production/_ext/108147519/LAN925x.o
 .debug_info    0x00019ef4     0x126c build/LAN9253_D51_SQI_direct_mode/production/_ext/108134065/bootmode.o
 .debug_info    0x0001b160     0x5b2d build/LAN9253_D51_SQI_direct_mode/production/_ext/108134065/coeappl.o
 .debug_info    0x00020c8d     0x53c9 build/LAN9253_D51_SQI_direct_mode/production/_ext/108134065/ecatappl.o
 .debug_info    0x00026056     0x1684 build/LAN9253_D51_SQI_direct_mode/production/_ext/108134065/ecatcoe.o
 .debug_info    0x000276da     0x242e build/LAN9253_D51_SQI_direct_mode/production/_ext/108134065/ecatfoe.o
 .debug_info    0x00029b08     0x59d4 build/LAN9253_D51_SQI_direct_mode/production/_ext/108134065/ecatslv.o
 .debug_info    0x0002f4dc     0x24b6 build/LAN9253_D51_SQI_direct_mode/production/_ext/108134065/emcy.o
 .debug_info    0x00031992     0x288c build/LAN9253_D51_SQI_direct_mode/production/_ext/108134065/foeappl.o
 .debug_info    0x0003421e     0x2b73 build/LAN9253_D51_SQI_direct_mode/production/_ext/108134065/mailbox.o
 .debug_info    0x00036d91     0x3181 build/LAN9253_D51_SQI_direct_mode/production/_ext/108134065/objdef.o
 .debug_info    0x00039f12     0x5852 build/LAN9253_D51_SQI_direct_mode/production/_ext/108134065/sample_app.o
 .debug_info    0x0003f764     0x3486 build/LAN9253_D51_SQI_direct_mode/production/_ext/108134065/sdoserv.o
 .debug_info    0x00042bea     0x194c build/LAN9253_D51_SQI_direct_mode/production/_ext/1360937237/main.o
 .debug_info    0x00044536     0x51d5 build/LAN9253_D51_SQI_direct_mode/production/_ext/1360937237/app.o
 .debug_info    0x0004970b      0x2a2 c:/program files (x86)/microchip/xc32/v2.30/bin/bin/../../lib/gcc/pic32c/6.2.1/../../../../pic32c/lib/v7e-m/fpv4-sp/hard\libpic32c.a(data_init.o)
 .debug_info    0x000499ad      0x41a c:/program files (x86)/microchip/xc32/v2.30/bin/bin/../../lib/gcc/pic32c/6.2.1/../../../../pic32c/lib/v7e-m/fpv4-sp/hard\libc.a(lib_a-init.o)
 .debug_info    0x00049dc7      0xe58 c:/program files (x86)/microchip/xc32/v2.30/bin/bin/../../lib/gcc/pic32c/6.2.1/../../../../pic32c/lib/v7e-m/fpv4-sp/hard\libc.a(lib_a-malloc.o)
 .debug_info    0x0004ac1f     0x14ca c:/program files (x86)/microchip/xc32/v2.30/bin/bin/../../lib/gcc/pic32c/6.2.1/../../../../pic32c/lib/v7e-m/fpv4-sp/hard\libc.a(lib_a-mallocr.o)
 .debug_info    0x0004c0e9      0xe2e c:/program files (x86)/microchip/xc32/v2.30/bin/bin/../../lib/gcc/pic32c/6.2.1/../../../../pic32c/lib/v7e-m/fpv4-sp/hard\libc.a(lib_a-memcpy-stub.o)
 .debug_info    0x0004cf17     0x156f c:/program files (x86)/microchip/xc32/v2.30/bin/bin/../../lib/gcc/pic32c/6.2.1/../../../../pic32c/lib/v7e-m/fpv4-sp/hard\libc.a(lib_a-memset.o)
 .debug_info    0x0004e486      0xdf2 c:/program files (x86)/microchip/xc32/v2.30/bin/bin/../../lib/gcc/pic32c/6.2.1/../../../../pic32c/lib/v7e-m/fpv4-sp/hard\libc.a(lib_a-mlock.o)
 .debug_info    0x0004f278      0xea5 c:/program files (x86)/microchip/xc32/v2.30/bin/bin/../../lib/gcc/pic32c/6.2.1/../../../../pic32c/lib/v7e-m/fpv4-sp/hard\libc.a(lib_a-sbrkr.o)
 .debug_info    0x0005011d      0x125 c:/program files (x86)/microchip/xc32/v2.30/bin/bin/../../lib/gcc/pic32c/6.2.1/../../../../pic32c/lib/v7e-m/fpv4-sp/hard\libc.a(lib_a-strlen.o)
 .debug_info    0x00050242     0x137d c:/program files (x86)/microchip/xc32/v2.30/bin/bin/../../lib/gcc/pic32c/6.2.1/../../../../pic32c/lib/v7e-m/fpv4-sp/hard\libc.a(lib_a-freer.o)
 .debug_info    0x000515bf      0xdb5 c:/program files (x86)/microchip/xc32/v2.30/bin/bin/../../lib/gcc/pic32c/6.2.1/../../../../pic32c/lib/v7e-m/fpv4-sp/hard\libc.a(lib_a-impure.o)
 .debug_info    0x00052374      0xf59 c:/program files (x86)/microchip/xc32/v2.30/bin/bin/../../lib/gcc/pic32c/6.2.1/../../../../pic32c/lib/v7e-m/fpv4-sp/hard\libc.a(lib_a-reent.o)
 .debug_info    0x000532cd      0x286 c:/program files (x86)/microchip/xc32/v2.30/bin/bin/../../lib/gcc/pic32c/6.2.1/../../../../pic32c/lib/v7e-m/fpv4-sp/hard\libpic32c.a(sbrk.o)

.debug_abbrev   0x00000000     0x58fd
 .debug_abbrev  0x00000000       0xfd build/LAN9253_D51_SQI_direct_mode/production/_ext/1984496892/plib_clock.o
 .debug_abbrev  0x000000fd      0x345 build/LAN9253_D51_SQI_direct_mode/production/_ext/1865161661/plib_dmac.o
 .debug_abbrev  0x00000442      0x15d build/LAN9253_D51_SQI_direct_mode/production/_ext/60167341/plib_eic.o
 .debug_abbrev  0x0000059f       0x5e build/LAN9253_D51_SQI_direct_mode/production/_ext/1986646378/plib_evsys.o
 .debug_abbrev  0x000005fd      0x14d build/LAN9253_D51_SQI_direct_mode/production/_ext/1865468468/plib_nvic.o
 .debug_abbrev  0x0000074a      0x25d build/LAN9253_D51_SQI_direct_mode/production/_ext/1593096446/plib_nvmctrl.o
 .debug_abbrev  0x000009a7      0x151 build/LAN9253_D51_SQI_direct_mode/production/_ext/1865521619/plib_port.o
 .debug_abbrev  0x00000af8      0x227 build/LAN9253_D51_SQI_direct_mode/production/_ext/1865555181/plib_qspi.o
 .debug_abbrev  0x00000d1f      0x15c build/LAN9253_D51_SQI_direct_mode/production/_ext/1827571544/plib_systick.o
 .debug_abbrev  0x00000e7b      0x1d1 build/LAN9253_D51_SQI_direct_mode/production/_ext/1171490990/exceptions.o
 .debug_abbrev  0x0000104c      0x1ed build/LAN9253_D51_SQI_direct_mode/production/_ext/1171490990/initialization.o
 .debug_abbrev  0x00001239      0x1d1 build/LAN9253_D51_SQI_direct_mode/production/_ext/1171490990/interrupts.o
 .debug_abbrev  0x0000140a      0x2a9 build/LAN9253_D51_SQI_direct_mode/production/_ext/1171490990/startup_xc32.o
 .debug_abbrev  0x000016b3      0x1d1 build/LAN9253_D51_SQI_direct_mode/production/_ext/1171490990/tasks.o
 .debug_abbrev  0x00001884      0x396 build/LAN9253_D51_SQI_direct_mode/production/_ext/1671622979/Drivers.o
 .debug_abbrev  0x00001c1a      0x232 build/LAN9253_D51_SQI_direct_mode/production/_ext/108147519/ESC_Utils.o
 .debug_abbrev  0x00001e4c      0x2cc build/LAN9253_D51_SQI_direct_mode/production/_ext/108147519/LAN925x.o
 .debug_abbrev  0x00002118      0x1f9 build/LAN9253_D51_SQI_direct_mode/production/_ext/108134065/bootmode.o
 .debug_abbrev  0x00002311      0x300 build/LAN9253_D51_SQI_direct_mode/production/_ext/108134065/coeappl.o
 .debug_abbrev  0x00002611      0x2b2 build/LAN9253_D51_SQI_direct_mode/production/_ext/108134065/ecatappl.o
 .debug_abbrev  0x000028c3      0x1ee build/LAN9253_D51_SQI_direct_mode/production/_ext/108134065/ecatcoe.o
 .debug_abbrev  0x00002ab1      0x283 build/LAN9253_D51_SQI_direct_mode/production/_ext/108134065/ecatfoe.o
 .debug_abbrev  0x00002d34      0x2fb build/LAN9253_D51_SQI_direct_mode/production/_ext/108134065/ecatslv.o
 .debug_abbrev  0x0000302f      0x2c7 build/LAN9253_D51_SQI_direct_mode/production/_ext/108134065/emcy.o
 .debug_abbrev  0x000032f6      0x292 build/LAN9253_D51_SQI_direct_mode/production/_ext/108134065/foeappl.o
 .debug_abbrev  0x00003588      0x2ba build/LAN9253_D51_SQI_direct_mode/production/_ext/108134065/mailbox.o
 .debug_abbrev  0x00003842      0x2ec build/LAN9253_D51_SQI_direct_mode/production/_ext/108134065/objdef.o
 .debug_abbrev  0x00003b2e      0x375 build/LAN9253_D51_SQI_direct_mode/production/_ext/108134065/sample_app.o
 .debug_abbrev  0x00003ea3      0x309 build/LAN9253_D51_SQI_direct_mode/production/_ext/108134065/sdoserv.o
 .debug_abbrev  0x000041ac      0x1d3 build/LAN9253_D51_SQI_direct_mode/production/_ext/1360937237/main.o
 .debug_abbrev  0x0000437f      0x2b8 build/LAN9253_D51_SQI_direct_mode/production/_ext/1360937237/app.o
 .debug_abbrev  0x00004637       0x2a c:/program files (x86)/microchip/xc32/v2.30/bin/bin/../../lib/gcc/pic32c/6.2.1/../../../../pic32c/lib/v7e-m/fpv4-sp/hard\libpic32c.a(data_init.o)
 .debug_abbrev  0x00004661       0xa3 c:/program files (x86)/microchip/xc32/v2.30/bin/bin/../../lib/gcc/pic32c/6.2.1/../../../../pic32c/lib/v7e-m/fpv4-sp/hard\libc.a(lib_a-init.o)
 .debug_abbrev  0x00004704      0x1f8 c:/program files (x86)/microchip/xc32/v2.30/bin/bin/../../lib/gcc/pic32c/6.2.1/../../../../pic32c/lib/v7e-m/fpv4-sp/hard\libc.a(lib_a-malloc.o)
 .debug_abbrev  0x000048fc      0x29b c:/program files (x86)/microchip/xc32/v2.30/bin/bin/../../lib/gcc/pic32c/6.2.1/../../../../pic32c/lib/v7e-m/fpv4-sp/hard\libc.a(lib_a-mallocr.o)
 .debug_abbrev  0x00004b97      0x1c1 c:/program files (x86)/microchip/xc32/v2.30/bin/bin/../../lib/gcc/pic32c/6.2.1/../../../../pic32c/lib/v7e-m/fpv4-sp/hard\libc.a(lib_a-memcpy-stub.o)
 .debug_abbrev  0x00004d58      0x1b5 c:/program files (x86)/microchip/xc32/v2.30/bin/bin/../../lib/gcc/pic32c/6.2.1/../../../../pic32c/lib/v7e-m/fpv4-sp/hard\libc.a(lib_a-memset.o)
 .debug_abbrev  0x00004f0d      0x1aa c:/program files (x86)/microchip/xc32/v2.30/bin/bin/../../lib/gcc/pic32c/6.2.1/../../../../pic32c/lib/v7e-m/fpv4-sp/hard\libc.a(lib_a-mlock.o)
 .debug_abbrev  0x000050b7      0x1ed c:/program files (x86)/microchip/xc32/v2.30/bin/bin/../../lib/gcc/pic32c/6.2.1/../../../../pic32c/lib/v7e-m/fpv4-sp/hard\libc.a(lib_a-sbrkr.o)
 .debug_abbrev  0x000052a4       0x14 c:/program files (x86)/microchip/xc32/v2.30/bin/bin/../../lib/gcc/pic32c/6.2.1/../../../../pic32c/lib/v7e-m/fpv4-sp/hard\libc.a(lib_a-strlen.o)
 .debug_abbrev  0x000052b8      0x24d c:/program files (x86)/microchip/xc32/v2.30/bin/bin/../../lib/gcc/pic32c/6.2.1/../../../../pic32c/lib/v7e-m/fpv4-sp/hard\libc.a(lib_a-freer.o)
 .debug_abbrev  0x00005505      0x176 c:/program files (x86)/microchip/xc32/v2.30/bin/bin/../../lib/gcc/pic32c/6.2.1/../../../../pic32c/lib/v7e-m/fpv4-sp/hard\libc.a(lib_a-impure.o)
 .debug_abbrev  0x0000567b      0x258 c:/program files (x86)/microchip/xc32/v2.30/bin/bin/../../lib/gcc/pic32c/6.2.1/../../../../pic32c/lib/v7e-m/fpv4-sp/hard\libc.a(lib_a-reent.o)
 .debug_abbrev  0x000058d3       0x2a c:/program files (x86)/microchip/xc32/v2.30/bin/bin/../../lib/gcc/pic32c/6.2.1/../../../../pic32c/lib/v7e-m/fpv4-sp/hard\libpic32c.a(sbrk.o)

.debug_loc      0x00000000     0x60f8
 .debug_loc     0x00000000      0x208 build/LAN9253_D51_SQI_direct_mode/production/_ext/1984496892/plib_clock.o
 .debug_loc     0x00000208      0x5c4 build/LAN9253_D51_SQI_direct_mode/production/_ext/1865161661/plib_dmac.o
 .debug_loc     0x000007cc      0x1dc build/LAN9253_D51_SQI_direct_mode/production/_ext/60167341/plib_eic.o
 .debug_loc     0x000009a8       0x44 build/LAN9253_D51_SQI_direct_mode/production/_ext/1986646378/plib_evsys.o
 .debug_loc     0x000009ec      0x140 build/LAN9253_D51_SQI_direct_mode/production/_ext/1865468468/plib_nvic.o
 .debug_loc     0x00000b2c      0x5c0 build/LAN9253_D51_SQI_direct_mode/production/_ext/1593096446/plib_nvmctrl.o
 .debug_loc     0x000010ec      0x324 build/LAN9253_D51_SQI_direct_mode/production/_ext/1865521619/plib_port.o
 .debug_loc     0x00001410      0x338 build/LAN9253_D51_SQI_direct_mode/production/_ext/1865555181/plib_qspi.o
 .debug_loc     0x00001748      0x31c build/LAN9253_D51_SQI_direct_mode/production/_ext/1827571544/plib_systick.o
 .debug_loc     0x00001a64      0x108 build/LAN9253_D51_SQI_direct_mode/production/_ext/1171490990/exceptions.o
 .debug_loc     0x00001b6c       0x50 build/LAN9253_D51_SQI_direct_mode/production/_ext/1171490990/initialization.o
 .debug_loc     0x00001bbc      0x11c build/LAN9253_D51_SQI_direct_mode/production/_ext/1171490990/startup_xc32.o
 .debug_loc     0x00001cd8       0x2c build/LAN9253_D51_SQI_direct_mode/production/_ext/1171490990/tasks.o
 .debug_loc     0x00001d04      0x758 build/LAN9253_D51_SQI_direct_mode/production/_ext/1671622979/Drivers.o
 .debug_loc     0x0000245c      0x130 build/LAN9253_D51_SQI_direct_mode/production/_ext/108147519/ESC_Utils.o
 .debug_loc     0x0000258c      0x4b0 build/LAN9253_D51_SQI_direct_mode/production/_ext/108147519/LAN925x.o
 .debug_loc     0x00002a3c      0x158 build/LAN9253_D51_SQI_direct_mode/production/_ext/108134065/bootmode.o
 .debug_loc     0x00002b94      0x370 build/LAN9253_D51_SQI_direct_mode/production/_ext/108134065/coeappl.o
 .debug_loc     0x00002f04      0x2e0 build/LAN9253_D51_SQI_direct_mode/production/_ext/108134065/ecatappl.o
 .debug_loc     0x000031e4       0xe4 build/LAN9253_D51_SQI_direct_mode/production/_ext/108134065/ecatcoe.o
 .debug_loc     0x000032c8       0xe4 build/LAN9253_D51_SQI_direct_mode/production/_ext/108134065/ecatfoe.o
 .debug_loc     0x000033ac      0x682 build/LAN9253_D51_SQI_direct_mode/production/_ext/108134065/ecatslv.o
 .debug_loc     0x00003a2e      0x2f4 build/LAN9253_D51_SQI_direct_mode/production/_ext/108134065/emcy.o
 .debug_loc     0x00003d22      0x1e0 build/LAN9253_D51_SQI_direct_mode/production/_ext/108134065/foeappl.o
 .debug_loc     0x00003f02      0x428 build/LAN9253_D51_SQI_direct_mode/production/_ext/108134065/mailbox.o
 .debug_loc     0x0000432a      0x40e build/LAN9253_D51_SQI_direct_mode/production/_ext/108134065/objdef.o
 .debug_loc     0x00004738      0x5d4 build/LAN9253_D51_SQI_direct_mode/production/_ext/108134065/sample_app.o
 .debug_loc     0x00004d0c      0x210 build/LAN9253_D51_SQI_direct_mode/production/_ext/108134065/sdoserv.o
 .debug_loc     0x00004f1c       0x2c build/LAN9253_D51_SQI_direct_mode/production/_ext/1360937237/main.o
 .debug_loc     0x00004f48      0x148 build/LAN9253_D51_SQI_direct_mode/production/_ext/1360937237/app.o
 .debug_loc     0x00005090       0x74 c:/program files (x86)/microchip/xc32/v2.30/bin/bin/../../lib/gcc/pic32c/6.2.1/../../../../pic32c/lib/v7e-m/fpv4-sp/hard\libc.a(lib_a-init.o)
 .debug_loc     0x00005104       0x58 c:/program files (x86)/microchip/xc32/v2.30/bin/bin/../../lib/gcc/pic32c/6.2.1/../../../../pic32c/lib/v7e-m/fpv4-sp/hard\libc.a(lib_a-malloc.o)
 .debug_loc     0x0000515c      0x875 c:/program files (x86)/microchip/xc32/v2.30/bin/bin/../../lib/gcc/pic32c/6.2.1/../../../../pic32c/lib/v7e-m/fpv4-sp/hard\libc.a(lib_a-mallocr.o)
 .debug_loc     0x000059d1       0xb2 c:/program files (x86)/microchip/xc32/v2.30/bin/bin/../../lib/gcc/pic32c/6.2.1/../../../../pic32c/lib/v7e-m/fpv4-sp/hard\libc.a(lib_a-memcpy-stub.o)
 .debug_loc     0x00005a83       0x4c c:/program files (x86)/microchip/xc32/v2.30/bin/bin/../../lib/gcc/pic32c/6.2.1/../../../../pic32c/lib/v7e-m/fpv4-sp/hard\libc.a(lib_a-memset.o)
 .debug_loc     0x00005acf       0x6d c:/program files (x86)/microchip/xc32/v2.30/bin/bin/../../lib/gcc/pic32c/6.2.1/../../../../pic32c/lib/v7e-m/fpv4-sp/hard\libc.a(lib_a-sbrkr.o)
 .debug_loc     0x00005b3c      0x42d c:/program files (x86)/microchip/xc32/v2.30/bin/bin/../../lib/gcc/pic32c/6.2.1/../../../../pic32c/lib/v7e-m/fpv4-sp/hard\libc.a(lib_a-freer.o)
 .debug_loc     0x00005f69      0x18f c:/program files (x86)/microchip/xc32/v2.30/bin/bin/../../lib/gcc/pic32c/6.2.1/../../../../pic32c/lib/v7e-m/fpv4-sp/hard\libc.a(lib_a-reent.o)

.debug_aranges  0x00000000      0xd18
 .debug_aranges
                0x00000000       0x58 build/LAN9253_D51_SQI_direct_mode/production/_ext/1984496892/plib_clock.o
 .debug_aranges
                0x00000058       0xa8 build/LAN9253_D51_SQI_direct_mode/production/_ext/1865161661/plib_dmac.o
 .debug_aranges
                0x00000100       0x50 build/LAN9253_D51_SQI_direct_mode/production/_ext/60167341/plib_eic.o
 .debug_aranges
                0x00000150       0x20 build/LAN9253_D51_SQI_direct_mode/production/_ext/1986646378/plib_evsys.o
 .debug_aranges
                0x00000170       0x38 build/LAN9253_D51_SQI_direct_mode/production/_ext/1865468468/plib_nvic.o
 .debug_aranges
                0x000001a8       0xb0 build/LAN9253_D51_SQI_direct_mode/production/_ext/1593096446/plib_nvmctrl.o
 .debug_aranges
                0x00000258       0x60 build/LAN9253_D51_SQI_direct_mode/production/_ext/1865521619/plib_port.o
 .debug_aranges
                0x000002b8       0x68 build/LAN9253_D51_SQI_direct_mode/production/_ext/1865555181/plib_qspi.o
 .debug_aranges
                0x00000320       0x70 build/LAN9253_D51_SQI_direct_mode/production/_ext/1827571544/plib_systick.o
 .debug_aranges
                0x00000390       0x48 build/LAN9253_D51_SQI_direct_mode/production/_ext/1171490990/exceptions.o
 .debug_aranges
                0x000003d8       0x20 build/LAN9253_D51_SQI_direct_mode/production/_ext/1171490990/initialization.o
 .debug_aranges
                0x000003f8       0x20 build/LAN9253_D51_SQI_direct_mode/production/_ext/1171490990/interrupts.o
 .debug_aranges
                0x00000418       0x38 build/LAN9253_D51_SQI_direct_mode/production/_ext/1171490990/startup_xc32.o
 .debug_aranges
                0x00000450       0x20 build/LAN9253_D51_SQI_direct_mode/production/_ext/1171490990/tasks.o
 .debug_aranges
                0x00000470       0xe0 build/LAN9253_D51_SQI_direct_mode/production/_ext/1671622979/Drivers.o
 .debug_aranges
                0x00000550       0x40 build/LAN9253_D51_SQI_direct_mode/production/_ext/108147519/ESC_Utils.o
 .debug_aranges
                0x00000590       0x90 build/LAN9253_D51_SQI_direct_mode/production/_ext/108147519/LAN925x.o
 .debug_aranges
                0x00000620       0x38 build/LAN9253_D51_SQI_direct_mode/production/_ext/108134065/bootmode.o
 .debug_aranges
                0x00000658       0x70 build/LAN9253_D51_SQI_direct_mode/production/_ext/108134065/coeappl.o
 .debug_aranges
                0x000006c8       0x70 build/LAN9253_D51_SQI_direct_mode/production/_ext/108134065/ecatappl.o
 .debug_aranges
                0x00000738       0x30 build/LAN9253_D51_SQI_direct_mode/production/_ext/108134065/ecatcoe.o
 .debug_aranges
                0x00000768       0x30 build/LAN9253_D51_SQI_direct_mode/production/_ext/108134065/ecatfoe.o
 .debug_aranges
                0x00000798       0xc8 build/LAN9253_D51_SQI_direct_mode/production/_ext/108134065/ecatslv.o
 .debug_aranges
                0x00000860       0x60 build/LAN9253_D51_SQI_direct_mode/production/_ext/108134065/emcy.o
 .debug_aranges
                0x000008c0       0x48 build/LAN9253_D51_SQI_direct_mode/production/_ext/108134065/foeappl.o
 .debug_aranges
                0x00000908       0x80 build/LAN9253_D51_SQI_direct_mode/production/_ext/108134065/mailbox.o
 .debug_aranges
                0x00000988       0x78 build/LAN9253_D51_SQI_direct_mode/production/_ext/108134065/objdef.o
 .debug_aranges
                0x00000a00       0xb8 build/LAN9253_D51_SQI_direct_mode/production/_ext/108134065/sample_app.o
 .debug_aranges
                0x00000ab8       0x50 build/LAN9253_D51_SQI_direct_mode/production/_ext/108134065/sdoserv.o
 .debug_aranges
                0x00000b08       0x20 build/LAN9253_D51_SQI_direct_mode/production/_ext/1360937237/main.o
 .debug_aranges
                0x00000b28       0x40 build/LAN9253_D51_SQI_direct_mode/production/_ext/1360937237/app.o
 .debug_aranges
                0x00000b68       0x20 c:/program files (x86)/microchip/xc32/v2.30/bin/bin/../../lib/gcc/pic32c/6.2.1/../../../../pic32c/lib/v7e-m/fpv4-sp/hard\libpic32c.a(data_init.o)
 .debug_aranges
                0x00000b88       0x20 c:/program files (x86)/microchip/xc32/v2.30/bin/bin/../../lib/gcc/pic32c/6.2.1/../../../../pic32c/lib/v7e-m/fpv4-sp/hard\libc.a(lib_a-init.o)
 .debug_aranges
                0x00000ba8       0x28 c:/program files (x86)/microchip/xc32/v2.30/bin/bin/../../lib/gcc/pic32c/6.2.1/../../../../pic32c/lib/v7e-m/fpv4-sp/hard\libc.a(lib_a-malloc.o)
 .debug_aranges
                0x00000bd0       0x20 c:/program files (x86)/microchip/xc32/v2.30/bin/bin/../../lib/gcc/pic32c/6.2.1/../../../../pic32c/lib/v7e-m/fpv4-sp/hard\libc.a(lib_a-mallocr.o)
 .debug_aranges
                0x00000bf0       0x20 c:/program files (x86)/microchip/xc32/v2.30/bin/bin/../../lib/gcc/pic32c/6.2.1/../../../../pic32c/lib/v7e-m/fpv4-sp/hard\libc.a(lib_a-memcpy-stub.o)
 .debug_aranges
                0x00000c10       0x20 c:/program files (x86)/microchip/xc32/v2.30/bin/bin/../../lib/gcc/pic32c/6.2.1/../../../../pic32c/lib/v7e-m/fpv4-sp/hard\libc.a(lib_a-memset.o)
 .debug_aranges
                0x00000c30       0x20 c:/program files (x86)/microchip/xc32/v2.30/bin/bin/../../lib/gcc/pic32c/6.2.1/../../../../pic32c/lib/v7e-m/fpv4-sp/hard\libc.a(lib_a-mlock.o)
 .debug_aranges
                0x00000c50       0x20 c:/program files (x86)/microchip/xc32/v2.30/bin/bin/../../lib/gcc/pic32c/6.2.1/../../../../pic32c/lib/v7e-m/fpv4-sp/hard\libc.a(lib_a-sbrkr.o)
 .debug_aranges
                0x00000c70       0x20 c:/program files (x86)/microchip/xc32/v2.30/bin/bin/../../lib/gcc/pic32c/6.2.1/../../../../pic32c/lib/v7e-m/fpv4-sp/hard\libc.a(lib_a-strlen.o)
 .debug_aranges
                0x00000c90       0x28 c:/program files (x86)/microchip/xc32/v2.30/bin/bin/../../lib/gcc/pic32c/6.2.1/../../../../pic32c/lib/v7e-m/fpv4-sp/hard\libc.a(lib_a-freer.o)
 .debug_aranges
                0x00000cb8       0x18 c:/program files (x86)/microchip/xc32/v2.30/bin/bin/../../lib/gcc/pic32c/6.2.1/../../../../pic32c/lib/v7e-m/fpv4-sp/hard\libc.a(lib_a-impure.o)
 .debug_aranges
                0x00000cd0       0x28 c:/program files (x86)/microchip/xc32/v2.30/bin/bin/../../lib/gcc/pic32c/6.2.1/../../../../pic32c/lib/v7e-m/fpv4-sp/hard\libc.a(lib_a-reent.o)
 .debug_aranges
                0x00000cf8       0x20 c:/program files (x86)/microchip/xc32/v2.30/bin/bin/../../lib/gcc/pic32c/6.2.1/../../../../pic32c/lib/v7e-m/fpv4-sp/hard\libpic32c.a(sbrk.o)

.debug_ranges   0x00000000      0xb58
 .debug_ranges  0x00000000       0x48 build/LAN9253_D51_SQI_direct_mode/production/_ext/1984496892/plib_clock.o
 .debug_ranges  0x00000048       0x98 build/LAN9253_D51_SQI_direct_mode/production/_ext/1865161661/plib_dmac.o
 .debug_ranges  0x000000e0       0x40 build/LAN9253_D51_SQI_direct_mode/production/_ext/60167341/plib_eic.o
 .debug_ranges  0x00000120       0x10 build/LAN9253_D51_SQI_direct_mode/production/_ext/1986646378/plib_evsys.o
 .debug_ranges  0x00000130       0x28 build/LAN9253_D51_SQI_direct_mode/production/_ext/1865468468/plib_nvic.o
 .debug_ranges  0x00000158       0xa0 build/LAN9253_D51_SQI_direct_mode/production/_ext/1593096446/plib_nvmctrl.o
 .debug_ranges  0x000001f8       0x50 build/LAN9253_D51_SQI_direct_mode/production/_ext/1865521619/plib_port.o
 .debug_ranges  0x00000248       0x58 build/LAN9253_D51_SQI_direct_mode/production/_ext/1865555181/plib_qspi.o
 .debug_ranges  0x000002a0       0x60 build/LAN9253_D51_SQI_direct_mode/production/_ext/1827571544/plib_systick.o
 .debug_ranges  0x00000300       0x38 build/LAN9253_D51_SQI_direct_mode/production/_ext/1171490990/exceptions.o
 .debug_ranges  0x00000338       0x10 build/LAN9253_D51_SQI_direct_mode/production/_ext/1171490990/initialization.o
 .debug_ranges  0x00000348       0x10 build/LAN9253_D51_SQI_direct_mode/production/_ext/1171490990/interrupts.o
 .debug_ranges  0x00000358       0x28 build/LAN9253_D51_SQI_direct_mode/production/_ext/1171490990/startup_xc32.o
 .debug_ranges  0x00000380       0x10 build/LAN9253_D51_SQI_direct_mode/production/_ext/1171490990/tasks.o
 .debug_ranges  0x00000390       0xd0 build/LAN9253_D51_SQI_direct_mode/production/_ext/1671622979/Drivers.o
 .debug_ranges  0x00000460       0x30 build/LAN9253_D51_SQI_direct_mode/production/_ext/108147519/ESC_Utils.o
 .debug_ranges  0x00000490       0x80 build/LAN9253_D51_SQI_direct_mode/production/_ext/108147519/LAN925x.o
 .debug_ranges  0x00000510       0x28 build/LAN9253_D51_SQI_direct_mode/production/_ext/108134065/bootmode.o
 .debug_ranges  0x00000538       0x78 build/LAN9253_D51_SQI_direct_mode/production/_ext/108134065/coeappl.o
 .debug_ranges  0x000005b0       0x78 build/LAN9253_D51_SQI_direct_mode/production/_ext/108134065/ecatappl.o
 .debug_ranges  0x00000628       0x20 build/LAN9253_D51_SQI_direct_mode/production/_ext/108134065/ecatcoe.o
 .debug_ranges  0x00000648       0x80 build/LAN9253_D51_SQI_direct_mode/production/_ext/108134065/ecatfoe.o
 .debug_ranges  0x000006c8       0xb8 build/LAN9253_D51_SQI_direct_mode/production/_ext/108134065/ecatslv.o
 .debug_ranges  0x00000780       0x50 build/LAN9253_D51_SQI_direct_mode/production/_ext/108134065/emcy.o
 .debug_ranges  0x000007d0       0x38 build/LAN9253_D51_SQI_direct_mode/production/_ext/108134065/foeappl.o
 .debug_ranges  0x00000808       0x70 build/LAN9253_D51_SQI_direct_mode/production/_ext/108134065/mailbox.o
 .debug_ranges  0x00000878       0x80 build/LAN9253_D51_SQI_direct_mode/production/_ext/108134065/objdef.o
 .debug_ranges  0x000008f8       0xa8 build/LAN9253_D51_SQI_direct_mode/production/_ext/108134065/sample_app.o
 .debug_ranges  0x000009a0       0x68 build/LAN9253_D51_SQI_direct_mode/production/_ext/108134065/sdoserv.o
 .debug_ranges  0x00000a08       0x10 build/LAN9253_D51_SQI_direct_mode/production/_ext/1360937237/main.o
 .debug_ranges  0x00000a18       0x30 build/LAN9253_D51_SQI_direct_mode/production/_ext/1360937237/app.o
 .debug_ranges  0x00000a48       0x10 c:/program files (x86)/microchip/xc32/v2.30/bin/bin/../../lib/gcc/pic32c/6.2.1/../../../../pic32c/lib/v7e-m/fpv4-sp/hard\libpic32c.a(data_init.o)
 .debug_ranges  0x00000a58       0x10 c:/program files (x86)/microchip/xc32/v2.30/bin/bin/../../lib/gcc/pic32c/6.2.1/../../../../pic32c/lib/v7e-m/fpv4-sp/hard\libc.a(lib_a-init.o)
 .debug_ranges  0x00000a68       0x18 c:/program files (x86)/microchip/xc32/v2.30/bin/bin/../../lib/gcc/pic32c/6.2.1/../../../../pic32c/lib/v7e-m/fpv4-sp/hard\libc.a(lib_a-malloc.o)
 .debug_ranges  0x00000a80       0x28 c:/program files (x86)/microchip/xc32/v2.30/bin/bin/../../lib/gcc/pic32c/6.2.1/../../../../pic32c/lib/v7e-m/fpv4-sp/hard\libc.a(lib_a-mallocr.o)
 .debug_ranges  0x00000aa8       0x10 c:/program files (x86)/microchip/xc32/v2.30/bin/bin/../../lib/gcc/pic32c/6.2.1/../../../../pic32c/lib/v7e-m/fpv4-sp/hard\libc.a(lib_a-memcpy-stub.o)
 .debug_ranges  0x00000ab8       0x10 c:/program files (x86)/microchip/xc32/v2.30/bin/bin/../../lib/gcc/pic32c/6.2.1/../../../../pic32c/lib/v7e-m/fpv4-sp/hard\libc.a(lib_a-memset.o)
 .debug_ranges  0x00000ac8       0x10 c:/program files (x86)/microchip/xc32/v2.30/bin/bin/../../lib/gcc/pic32c/6.2.1/../../../../pic32c/lib/v7e-m/fpv4-sp/hard\libc.a(lib_a-mlock.o)
 .debug_ranges  0x00000ad8       0x10 c:/program files (x86)/microchip/xc32/v2.30/bin/bin/../../lib/gcc/pic32c/6.2.1/../../../../pic32c/lib/v7e-m/fpv4-sp/hard\libc.a(lib_a-sbrkr.o)
 .debug_ranges  0x00000ae8       0x18 c:/program files (x86)/microchip/xc32/v2.30/bin/bin/../../lib/gcc/pic32c/6.2.1/../../../../pic32c/lib/v7e-m/fpv4-sp/hard\libc.a(lib_a-freer.o)
 .debug_ranges  0x00000b00       0x48 c:/program files (x86)/microchip/xc32/v2.30/bin/bin/../../lib/gcc/pic32c/6.2.1/../../../../pic32c/lib/v7e-m/fpv4-sp/hard\libc.a(lib_a-reent.o)
 .debug_ranges  0x00000b48       0x10 c:/program files (x86)/microchip/xc32/v2.30/bin/bin/../../lib/gcc/pic32c/6.2.1/../../../../pic32c/lib/v7e-m/fpv4-sp/hard\libpic32c.a(sbrk.o)

.debug_line     0x00000000     0x954f
 .debug_line    0x00000000      0x246 build/LAN9253_D51_SQI_direct_mode/production/_ext/1984496892/plib_clock.o
 .debug_line    0x00000246      0x588 build/LAN9253_D51_SQI_direct_mode/production/_ext/1865161661/plib_dmac.o
 .debug_line    0x000007ce      0x20e build/LAN9253_D51_SQI_direct_mode/production/_ext/60167341/plib_eic.o
 .debug_line    0x000009dc      0x13b build/LAN9253_D51_SQI_direct_mode/production/_ext/1986646378/plib_evsys.o
 .debug_line    0x00000b17      0x1da build/LAN9253_D51_SQI_direct_mode/production/_ext/1865468468/plib_nvic.o
 .debug_line    0x00000cf1      0x379 build/LAN9253_D51_SQI_direct_mode/production/_ext/1593096446/plib_nvmctrl.o
 .debug_line    0x0000106a      0x21a build/LAN9253_D51_SQI_direct_mode/production/_ext/1865521619/plib_port.o
 .debug_line    0x00001284      0x2d7 build/LAN9253_D51_SQI_direct_mode/production/_ext/1865555181/plib_qspi.o
 .debug_line    0x0000155b      0x216 build/LAN9253_D51_SQI_direct_mode/production/_ext/1827571544/plib_systick.o
 .debug_line    0x00001771      0x39e build/LAN9253_D51_SQI_direct_mode/production/_ext/1171490990/exceptions.o
 .debug_line    0x00001b0f      0x358 build/LAN9253_D51_SQI_direct_mode/production/_ext/1171490990/initialization.o
 .debug_line    0x00001e67      0x379 build/LAN9253_D51_SQI_direct_mode/production/_ext/1171490990/interrupts.o
 .debug_line    0x000021e0      0x407 build/LAN9253_D51_SQI_direct_mode/production/_ext/1171490990/startup_xc32.o
 .debug_line    0x000025e7      0x348 build/LAN9253_D51_SQI_direct_mode/production/_ext/1171490990/tasks.o
 .debug_line    0x0000292f      0x6a3 build/LAN9253_D51_SQI_direct_mode/production/_ext/1671622979/Drivers.o
 .debug_line    0x00002fd2      0x402 build/LAN9253_D51_SQI_direct_mode/production/_ext/108147519/ESC_Utils.o
 .debug_line    0x000033d4      0x5fe build/LAN9253_D51_SQI_direct_mode/production/_ext/108147519/LAN925x.o
 .debug_line    0x000039d2      0x19b build/LAN9253_D51_SQI_direct_mode/production/_ext/108134065/bootmode.o
 .debug_line    0x00003b6d      0x50c build/LAN9253_D51_SQI_direct_mode/production/_ext/108134065/coeappl.o
 .debug_line    0x00004079      0x56e build/LAN9253_D51_SQI_direct_mode/production/_ext/108134065/ecatappl.o
 .debug_line    0x000045e7      0x1b0 build/LAN9253_D51_SQI_direct_mode/production/_ext/108134065/ecatcoe.o
 .debug_line    0x00004797      0x42c build/LAN9253_D51_SQI_direct_mode/production/_ext/108134065/ecatfoe.o
 .debug_line    0x00004bc3      0x9b3 build/LAN9253_D51_SQI_direct_mode/production/_ext/108134065/ecatslv.o
 .debug_line    0x00005576      0x448 build/LAN9253_D51_SQI_direct_mode/production/_ext/108134065/emcy.o
 .debug_line    0x000059be      0x414 build/LAN9253_D51_SQI_direct_mode/production/_ext/108134065/foeappl.o
 .debug_line    0x00005dd2      0x596 build/LAN9253_D51_SQI_direct_mode/production/_ext/108134065/mailbox.o
 .debug_line    0x00006368      0x71c build/LAN9253_D51_SQI_direct_mode/production/_ext/108134065/objdef.o
 .debug_line    0x00006a84      0x5ac build/LAN9253_D51_SQI_direct_mode/production/_ext/108134065/sample_app.o
 .debug_line    0x00007030      0x5fa build/LAN9253_D51_SQI_direct_mode/production/_ext/108134065/sdoserv.o
 .debug_line    0x0000762a      0x34b build/LAN9253_D51_SQI_direct_mode/production/_ext/1360937237/main.o
 .debug_line    0x00007975      0x46c build/LAN9253_D51_SQI_direct_mode/production/_ext/1360937237/app.o
 .debug_line    0x00007de1       0xd8 c:/program files (x86)/microchip/xc32/v2.30/bin/bin/../../lib/gcc/pic32c/6.2.1/../../../../pic32c/lib/v7e-m/fpv4-sp/hard\libpic32c.a(data_init.o)
 .debug_line    0x00007eb9      0x11d c:/program files (x86)/microchip/xc32/v2.30/bin/bin/../../lib/gcc/pic32c/6.2.1/../../../../pic32c/lib/v7e-m/fpv4-sp/hard\libc.a(lib_a-init.o)
 .debug_line    0x00007fd6      0x21e c:/program files (x86)/microchip/xc32/v2.30/bin/bin/../../lib/gcc/pic32c/6.2.1/../../../../pic32c/lib/v7e-m/fpv4-sp/hard\libc.a(lib_a-malloc.o)
 .debug_line    0x000081f4      0x347 c:/program files (x86)/microchip/xc32/v2.30/bin/bin/../../lib/gcc/pic32c/6.2.1/../../../../pic32c/lib/v7e-m/fpv4-sp/hard\libc.a(lib_a-mallocr.o)
 .debug_line    0x0000853b      0x218 c:/program files (x86)/microchip/xc32/v2.30/bin/bin/../../lib/gcc/pic32c/6.2.1/../../../../pic32c/lib/v7e-m/fpv4-sp/hard\libc.a(lib_a-memcpy-stub.o)
 .debug_line    0x00008753      0x2ae c:/program files (x86)/microchip/xc32/v2.30/bin/bin/../../lib/gcc/pic32c/6.2.1/../../../../pic32c/lib/v7e-m/fpv4-sp/hard\libc.a(lib_a-memset.o)
 .debug_line    0x00008a01      0x18d c:/program files (x86)/microchip/xc32/v2.30/bin/bin/../../lib/gcc/pic32c/6.2.1/../../../../pic32c/lib/v7e-m/fpv4-sp/hard\libc.a(lib_a-mlock.o)
 .debug_line    0x00008b8e      0x212 c:/program files (x86)/microchip/xc32/v2.30/bin/bin/../../lib/gcc/pic32c/6.2.1/../../../../pic32c/lib/v7e-m/fpv4-sp/hard\libc.a(lib_a-sbrkr.o)
 .debug_line    0x00008da0       0xb1 c:/program files (x86)/microchip/xc32/v2.30/bin/bin/../../lib/gcc/pic32c/6.2.1/../../../../pic32c/lib/v7e-m/fpv4-sp/hard\libc.a(lib_a-strlen.o)
 .debug_line    0x00008e51      0x2a1 c:/program files (x86)/microchip/xc32/v2.30/bin/bin/../../lib/gcc/pic32c/6.2.1/../../../../pic32c/lib/v7e-m/fpv4-sp/hard\libc.a(lib_a-freer.o)
 .debug_line    0x000090f2      0x17e c:/program files (x86)/microchip/xc32/v2.30/bin/bin/../../lib/gcc/pic32c/6.2.1/../../../../pic32c/lib/v7e-m/fpv4-sp/hard\libc.a(lib_a-impure.o)
 .debug_line    0x00009270      0x23d c:/program files (x86)/microchip/xc32/v2.30/bin/bin/../../lib/gcc/pic32c/6.2.1/../../../../pic32c/lib/v7e-m/fpv4-sp/hard\libc.a(lib_a-reent.o)
 .debug_line    0x000094ad       0xa2 c:/program files (x86)/microchip/xc32/v2.30/bin/bin/../../lib/gcc/pic32c/6.2.1/../../../../pic32c/lib/v7e-m/fpv4-sp/hard\libpic32c.a(sbrk.o)

.debug_str      0x00000000      0x836
 .debug_str     0x00000000       0x1e build/LAN9253_D51_SQI_direct_mode/production/_ext/1984496892/plib_clock.o
 .debug_str     0x0000001e       0x5a build/LAN9253_D51_SQI_direct_mode/production/_ext/1865161661/plib_dmac.o
 .debug_str     0x00000078        0x9 build/LAN9253_D51_SQI_direct_mode/production/_ext/60167341/plib_eic.o
 .debug_str     0x00000081        0x0 build/LAN9253_D51_SQI_direct_mode/production/_ext/1986646378/plib_evsys.o
 .debug_str     0x00000081        0xa build/LAN9253_D51_SQI_direct_mode/production/_ext/1865468468/plib_nvic.o
 .debug_str     0x0000008b       0x29 build/LAN9253_D51_SQI_direct_mode/production/_ext/1593096446/plib_nvmctrl.o
 .debug_str     0x000000b4        0xb build/LAN9253_D51_SQI_direct_mode/production/_ext/1865521619/plib_port.o
 .debug_str     0x000000bf       0x9a build/LAN9253_D51_SQI_direct_mode/production/_ext/1865555181/plib_qspi.o
 .debug_str     0x00000159        0x9 build/LAN9253_D51_SQI_direct_mode/production/_ext/1827571544/plib_systick.o
 .debug_str     0x00000162        0xe build/LAN9253_D51_SQI_direct_mode/production/_ext/1171490990/exceptions.o
 .debug_str     0x00000170        0xe build/LAN9253_D51_SQI_direct_mode/production/_ext/1171490990/initialization.o
 .debug_str     0x0000017e        0xe build/LAN9253_D51_SQI_direct_mode/production/_ext/1171490990/interrupts.o
 .debug_str     0x0000018c        0xe build/LAN9253_D51_SQI_direct_mode/production/_ext/1171490990/startup_xc32.o
 .debug_str     0x0000019a        0xe build/LAN9253_D51_SQI_direct_mode/production/_ext/1171490990/tasks.o
 .debug_str     0x000001a8       0x6d build/LAN9253_D51_SQI_direct_mode/production/_ext/1671622979/Drivers.o
 .debug_str     0x00000215        0xe build/LAN9253_D51_SQI_direct_mode/production/_ext/108147519/ESC_Utils.o
 .debug_str     0x00000223       0x4b build/LAN9253_D51_SQI_direct_mode/production/_ext/108147519/LAN925x.o
 .debug_str     0x0000026e        0xe build/LAN9253_D51_SQI_direct_mode/production/_ext/108134065/bootmode.o
 .debug_str     0x0000027c       0x48 build/LAN9253_D51_SQI_direct_mode/production/_ext/108134065/coeappl.o
 .debug_str     0x000002c4       0x42 build/LAN9253_D51_SQI_direct_mode/production/_ext/108134065/ecatappl.o
 .debug_str     0x00000306       0x35 build/LAN9253_D51_SQI_direct_mode/production/_ext/108134065/ecatcoe.o
 .debug_str     0x0000033b       0x24 build/LAN9253_D51_SQI_direct_mode/production/_ext/108134065/ecatfoe.o
 .debug_str     0x0000035f       0x6b build/LAN9253_D51_SQI_direct_mode/production/_ext/108134065/ecatslv.o
 .debug_str     0x000003ca       0x2d build/LAN9253_D51_SQI_direct_mode/production/_ext/108134065/emcy.o
 .debug_str     0x000003f7       0x31 build/LAN9253_D51_SQI_direct_mode/production/_ext/108134065/foeappl.o
 .debug_str     0x00000428       0x50 build/LAN9253_D51_SQI_direct_mode/production/_ext/108134065/mailbox.o
 .debug_str     0x00000478       0xa5 build/LAN9253_D51_SQI_direct_mode/production/_ext/108134065/objdef.o
 .debug_str     0x0000051d       0x5c build/LAN9253_D51_SQI_direct_mode/production/_ext/108134065/sample_app.o
 .debug_str     0x00000579       0xa8 build/LAN9253_D51_SQI_direct_mode/production/_ext/108134065/sdoserv.o
 .debug_str     0x00000621        0xe build/LAN9253_D51_SQI_direct_mode/production/_ext/1360937237/main.o
 .debug_str     0x0000062f       0x24 build/LAN9253_D51_SQI_direct_mode/production/_ext/1360937237/app.o
 .debug_str     0x00000653        0x0 c:/program files (x86)/microchip/xc32/v2.30/bin/bin/../../lib/gcc/pic32c/6.2.1/../../../../pic32c/lib/v7e-m/fpv4-sp/hard\libpic32c.a(data_init.o)
 .debug_str     0x00000653        0x0 c:/program files (x86)/microchip/xc32/v2.30/bin/bin/../../lib/gcc/pic32c/6.2.1/../../../../pic32c/lib/v7e-m/fpv4-sp/hard\libc.a(lib_a-init.o)
 .debug_str     0x00000653       0x18 c:/program files (x86)/microchip/xc32/v2.30/bin/bin/../../lib/gcc/pic32c/6.2.1/../../../../pic32c/lib/v7e-m/fpv4-sp/hard\libc.a(lib_a-malloc.o)
 .debug_str     0x0000066b       0x36 c:/program files (x86)/microchip/xc32/v2.30/bin/bin/../../lib/gcc/pic32c/6.2.1/../../../../pic32c/lib/v7e-m/fpv4-sp/hard\libc.a(lib_a-mallocr.o)
 .debug_str     0x000006a1        0xe c:/program files (x86)/microchip/xc32/v2.30/bin/bin/../../lib/gcc/pic32c/6.2.1/../../../../pic32c/lib/v7e-m/fpv4-sp/hard\libc.a(lib_a-memcpy-stub.o)
 .debug_str     0x000006af      0x119 c:/program files (x86)/microchip/xc32/v2.30/bin/bin/../../lib/gcc/pic32c/6.2.1/../../../../pic32c/lib/v7e-m/fpv4-sp/hard\libc.a(lib_a-memset.o)
 .debug_str     0x000007c8        0xe c:/program files (x86)/microchip/xc32/v2.30/bin/bin/../../lib/gcc/pic32c/6.2.1/../../../../pic32c/lib/v7e-m/fpv4-sp/hard\libc.a(lib_a-mlock.o)
 .debug_str     0x000007d6        0xe c:/program files (x86)/microchip/xc32/v2.30/bin/bin/../../lib/gcc/pic32c/6.2.1/../../../../pic32c/lib/v7e-m/fpv4-sp/hard\libc.a(lib_a-sbrkr.o)
 .debug_str     0x000007e4       0x36 c:/program files (x86)/microchip/xc32/v2.30/bin/bin/../../lib/gcc/pic32c/6.2.1/../../../../pic32c/lib/v7e-m/fpv4-sp/hard\libc.a(lib_a-freer.o)
 .debug_str     0x0000081a        0xe c:/program files (x86)/microchip/xc32/v2.30/bin/bin/../../lib/gcc/pic32c/6.2.1/../../../../pic32c/lib/v7e-m/fpv4-sp/hard\libc.a(lib_a-impure.o)
 .debug_str     0x00000828        0xe c:/program files (x86)/microchip/xc32/v2.30/bin/bin/../../lib/gcc/pic32c/6.2.1/../../../../pic32c/lib/v7e-m/fpv4-sp/hard\libc.a(lib_a-reent.o)
 .debug_str     0x00000836        0x0 c:/program files (x86)/microchip/xc32/v2.30/bin/bin/../../lib/gcc/pic32c/6.2.1/../../../../pic32c/lib/v7e-m/fpv4-sp/hard\libpic32c.a(sbrk.o)

.debug_frame    0x00000000     0x29c8
 .debug_frame   0x00000000      0x10c build/LAN9253_D51_SQI_direct_mode/production/_ext/1984496892/plib_clock.o
 .debug_frame   0x0000010c      0x2ac build/LAN9253_D51_SQI_direct_mode/production/_ext/1865161661/plib_dmac.o
 .debug_frame   0x000003b8       0xfc build/LAN9253_D51_SQI_direct_mode/production/_ext/60167341/plib_eic.o
 .debug_frame   0x000004b4       0x30 build/LAN9253_D51_SQI_direct_mode/production/_ext/1986646378/plib_evsys.o
 .debug_frame   0x000004e4       0xa4 build/LAN9253_D51_SQI_direct_mode/production/_ext/1865468468/plib_nvic.o
 .debug_frame   0x00000588      0x2ac build/LAN9253_D51_SQI_direct_mode/production/_ext/1593096446/plib_nvmctrl.o
 .debug_frame   0x00000834      0x170 build/LAN9253_D51_SQI_direct_mode/production/_ext/1865521619/plib_port.o
 .debug_frame   0x000009a4      0x180 build/LAN9253_D51_SQI_direct_mode/production/_ext/1865555181/plib_qspi.o
 .debug_frame   0x00000b24      0x184 build/LAN9253_D51_SQI_direct_mode/production/_ext/1827571544/plib_systick.o
 .debug_frame   0x00000ca8       0xa0 build/LAN9253_D51_SQI_direct_mode/production/_ext/1171490990/exceptions.o
 .debug_frame   0x00000d48       0x34 build/LAN9253_D51_SQI_direct_mode/production/_ext/1171490990/initialization.o
 .debug_frame   0x00000d7c       0x20 build/LAN9253_D51_SQI_direct_mode/production/_ext/1171490990/interrupts.o
 .debug_frame   0x00000d9c       0x98 build/LAN9253_D51_SQI_direct_mode/production/_ext/1171490990/startup_xc32.o
 .debug_frame   0x00000e34       0x2c build/LAN9253_D51_SQI_direct_mode/production/_ext/1171490990/tasks.o
 .debug_frame   0x00000e60      0x37c build/LAN9253_D51_SQI_direct_mode/production/_ext/1671622979/Drivers.o
 .debug_frame   0x000011dc       0xb4 build/LAN9253_D51_SQI_direct_mode/production/_ext/108147519/ESC_Utils.o
 .debug_frame   0x00001290      0x22c build/LAN9253_D51_SQI_direct_mode/production/_ext/108147519/LAN925x.o
 .debug_frame   0x000014bc       0xa8 build/LAN9253_D51_SQI_direct_mode/production/_ext/108134065/bootmode.o
 .debug_frame   0x00001564      0x1a8 build/LAN9253_D51_SQI_direct_mode/production/_ext/108134065/coeappl.o
 .debug_frame   0x0000170c      0x180 build/LAN9253_D51_SQI_direct_mode/production/_ext/108134065/ecatappl.o
 .debug_frame   0x0000188c       0x78 build/LAN9253_D51_SQI_direct_mode/production/_ext/108134065/ecatcoe.o
 .debug_frame   0x00001904       0x7c build/LAN9253_D51_SQI_direct_mode/production/_ext/108134065/ecatfoe.o
 .debug_frame   0x00001980      0x320 build/LAN9253_D51_SQI_direct_mode/production/_ext/108134065/ecatslv.o
 .debug_frame   0x00001ca0      0x160 build/LAN9253_D51_SQI_direct_mode/production/_ext/108134065/emcy.o
 .debug_frame   0x00001e00       0xec build/LAN9253_D51_SQI_direct_mode/production/_ext/108134065/foeappl.o
 .debug_frame   0x00001eec      0x1ec build/LAN9253_D51_SQI_direct_mode/production/_ext/108134065/mailbox.o
 .debug_frame   0x000020d8      0x1e8 build/LAN9253_D51_SQI_direct_mode/production/_ext/108134065/objdef.o
 .debug_frame   0x000022c0      0x2c4 build/LAN9253_D51_SQI_direct_mode/production/_ext/108134065/sample_app.o
 .debug_frame   0x00002584      0x120 build/LAN9253_D51_SQI_direct_mode/production/_ext/108134065/sdoserv.o
 .debug_frame   0x000026a4       0x2c build/LAN9253_D51_SQI_direct_mode/production/_ext/1360937237/main.o
 .debug_frame   0x000026d0       0xb4 build/LAN9253_D51_SQI_direct_mode/production/_ext/1360937237/app.o
 .debug_frame   0x00002784       0x2c c:/program files (x86)/microchip/xc32/v2.30/bin/bin/../../lib/gcc/pic32c/6.2.1/../../../../pic32c/lib/v7e-m/fpv4-sp/hard\libpic32c.a(data_init.o)
 .debug_frame   0x000027b0       0x2c c:/program files (x86)/microchip/xc32/v2.30/bin/bin/../../lib/gcc/pic32c/6.2.1/../../../../pic32c/lib/v7e-m/fpv4-sp/hard\libc.a(lib_a-init.o)
 .debug_frame   0x000027dc       0x30 c:/program files (x86)/microchip/xc32/v2.30/bin/bin/../../lib/gcc/pic32c/6.2.1/../../../../pic32c/lib/v7e-m/fpv4-sp/hard\libc.a(lib_a-malloc.o)
 .debug_frame   0x0000280c       0x40 c:/program files (x86)/microchip/xc32/v2.30/bin/bin/../../lib/gcc/pic32c/6.2.1/../../../../pic32c/lib/v7e-m/fpv4-sp/hard\libc.a(lib_a-mallocr.o)
 .debug_frame   0x0000284c       0x28 c:/program files (x86)/microchip/xc32/v2.30/bin/bin/../../lib/gcc/pic32c/6.2.1/../../../../pic32c/lib/v7e-m/fpv4-sp/hard\libc.a(lib_a-memcpy-stub.o)
 .debug_frame   0x00002874       0x20 c:/program files (x86)/microchip/xc32/v2.30/bin/bin/../../lib/gcc/pic32c/6.2.1/../../../../pic32c/lib/v7e-m/fpv4-sp/hard\libc.a(lib_a-memset.o)
 .debug_frame   0x00002894       0x30 c:/program files (x86)/microchip/xc32/v2.30/bin/bin/../../lib/gcc/pic32c/6.2.1/../../../../pic32c/lib/v7e-m/fpv4-sp/hard\libc.a(lib_a-mlock.o)
 .debug_frame   0x000028c4       0x2c c:/program files (x86)/microchip/xc32/v2.30/bin/bin/../../lib/gcc/pic32c/6.2.1/../../../../pic32c/lib/v7e-m/fpv4-sp/hard\libc.a(lib_a-sbrkr.o)
 .debug_frame   0x000028f0       0x5c c:/program files (x86)/microchip/xc32/v2.30/bin/bin/../../lib/gcc/pic32c/6.2.1/../../../../pic32c/lib/v7e-m/fpv4-sp/hard\libc.a(lib_a-freer.o)
 .debug_frame   0x0000294c       0x5c c:/program files (x86)/microchip/xc32/v2.30/bin/bin/../../lib/gcc/pic32c/6.2.1/../../../../pic32c/lib/v7e-m/fpv4-sp/hard\libc.a(lib_a-reent.o)
 .debug_frame   0x000029a8       0x20 c:/program files (x86)/microchip/xc32/v2.30/bin/bin/../../lib/gcc/pic32c/6.2.1/../../../../pic32c/lib/v7e-m/fpv4-sp/hard\libpic32c.a(sbrk.o)

.stack          0x20004c10      0x100
 .stack         0x20004c10      0x100 stack

.data.impure_data%1
                0x20003560      0x418
 .data.impure_data
                0x20003560      0x418 c:/program files (x86)/microchip/xc32/v2.30/bin/bin/../../lib/gcc/pic32c/6.2.1/../../../../pic32c/lib/v7e-m/fpv4-sp/hard\libc.a(lib_a-impure.o)

.data.__malloc_av_%2
                0x20003978      0x408
 .data.__malloc_av_
                0x20003978      0x408 c:/program files (x86)/microchip/xc32/v2.30/bin/bin/../../lib/gcc/pic32c/6.2.1/../../../../pic32c/lib/v7e-m/fpv4-sp/hard\libc.a(lib_a-mallocr.o)
                0x20003978                __malloc_av_

.data.OutputsProcessDataMapping0x1601%3
                0x20003d80      0x204
 .data.OutputsProcessDataMapping0x1601
                0x20003d80      0x204 build/LAN9253_D51_SQI_direct_mode/production/_ext/108134065/sample_app.o
                0x20003d80                OutputsProcessDataMapping0x1601

.data.InputsProcessDataMapping0x1A00%4
                0x20003f84      0x204
 .data.InputsProcessDataMapping0x1A00
                0x20003f84      0x204 build/LAN9253_D51_SQI_direct_mode/production/_ext/108134065/sample_app.o
                0x20003f84                InputsProcessDataMapping0x1A00

.data.Inputs0x6000%5
                0x20004188      0x204
 .data.Inputs0x6000
                0x20004188      0x204 build/LAN9253_D51_SQI_direct_mode/production/_ext/108134065/sample_app.o
                0x20004188                Inputs0x6000

.data.Outputs0x7010%6
                0x2000438c      0x204
 .data.Outputs0x7010
                0x2000438c      0x204 build/LAN9253_D51_SQI_direct_mode/production/_ext/108134065/sample_app.o
                0x2000438c                Outputs0x7010

.data.GenObjDic%7
                0x20004590      0x1e0
 .data.GenObjDic
                0x20004590      0x1e0 build/LAN9253_D51_SQI_direct_mode/production/_ext/108134065/coeappl.o
                0x20004590                GenObjDic

.data.ApplicationObjDic%8
                0x20004770      0x118
 .data.ApplicationObjDic
                0x20004770      0x118 build/LAN9253_D51_SQI_direct_mode/production/_ext/108134065/coeappl.o
                0x20004770                ApplicationObjDic

.bss.__malloc_current_mallinfo%9
                0x20004888       0x28
 .bss.__malloc_current_mallinfo
                0x20004888       0x28 c:/program files (x86)/microchip/xc32/v2.30/bin/bin/../../lib/gcc/pic32c/6.2.1/../../../../pic32c/lib/v7e-m/fpv4-sp/hard\libc.a(lib_a-mallocr.o)
                0x20004888                __malloc_current_mallinfo

.data.gau8DummyCntArr%10
                0x200048b0       0x27
 .data.gau8DummyCntArr
                0x200048b0       0x27 build/LAN9253_D51_SQI_direct_mode/production/_ext/108147519/LAN925x.o
                0x200048b0                gau8DummyCntArr

.bss._write_back_section%11
                0x200048d8       0x20
 .bss._write_back_section
                0x200048d8       0x20 build/LAN9253_D51_SQI_direct_mode/production/_ext/1865161661/plib_dmac.o

.bss.descriptor_section%12
                0x200048f8       0x20
 .bss.descriptor_section
                0x200048f8       0x20 build/LAN9253_D51_SQI_direct_mode/production/_ext/1865161661/plib_dmac.o

.bss.gau8rx_data%13
                0x20004918       0x20
 .bss.gau8rx_data
                0x20004918       0x20 build/LAN9253_D51_SQI_direct_mode/production/_ext/1671622979/Drivers.o

.bss%14         0x20004938       0x1c
 .bss           0x20004938       0x1c c:/program files (x86)/microchip/xc32/v2.30/bin/bin/../../lib/gcc/pic32c/6.2.1/v7e-m/fpv4-sp/hard/crtbegin.o

.data.acDevicename%15
                0x20004954       0x16
 .data.acDevicename
                0x20004954       0x16 build/LAN9253_D51_SQI_direct_mode/production/_ext/108134065/coeappl.o
                0x20004954                acDevicename

.data.sIdentity%16
                0x2000496c       0x14
 .data.sIdentity
                0x2000496c       0x14 build/LAN9253_D51_SQI_direct_mode/production/_ext/108134065/coeappl.o
                0x2000496c                sIdentity

.data.aSubindexDesc%17
                0x20004980        0xd
 .data.aSubindexDesc
                0x20004980        0xd build/LAN9253_D51_SQI_direct_mode/production/_ext/108134065/objdef.o
                0x20004980                aSubindexDesc

.data.sErrorSettings%18
                0x20004990        0xc
 .data.sErrorSettings
                0x20004990        0xc build/LAN9253_D51_SQI_direct_mode/production/_ext/108134065/objdef.o
                0x20004990                sErrorSettings

.bss.u64Timestamp%19
                0x200049a0        0x8
 .bss.u64Timestamp
                0x200049a0        0x8 build/LAN9253_D51_SQI_direct_mode/production/_ext/108134065/coeappl.o
                0x200049a0                u64Timestamp

.data.sSyncmanagertype%20
                0x200049a8        0x6
 .data.sSyncmanagertype
                0x200049a8        0x6 build/LAN9253_D51_SQI_direct_mode/production/_ext/108134065/coeappl.o
                0x200049a8                sSyncmanagertype

.data.u32Devicetype%21
                0x2000355c        0x4
 .data.u32Devicetype
                0x2000355c        0x4 build/LAN9253_D51_SQI_direct_mode/production/_ext/108134065/coeappl.o
                0x2000355c                u32Devicetype

.data.acHardwareversion%22
                0x2000499c        0x4
 .data.acHardwareversion
                0x2000499c        0x4 build/LAN9253_D51_SQI_direct_mode/production/_ext/108134065/coeappl.o
                0x2000499c                acHardwareversion

.data.acSoftwareversion%23
                0x200049b0        0x4
 .data.acSoftwareversion
                0x200049b0        0x4 build/LAN9253_D51_SQI_direct_mode/production/_ext/108134065/coeappl.o
                0x200049b0                acSoftwareversion

.bss.ObjDicList%24
                0x200049b4        0x4
 .bss.ObjDicList
                0x200049b4        0x4 build/LAN9253_D51_SQI_direct_mode/production/_ext/108134065/coeappl.o
                0x200049b4                ObjDicList

.bss.SMActivate%25
                0x200049b8        0x4
 .bss.SMActivate
                0x200049b8        0x4 build/LAN9253_D51_SQI_direct_mode/production/_ext/108134065/ecatslv.o
                0x200049b8                SMActivate

.data.sRxPDOassign%26
                0x200049bc        0x4
 .data.sRxPDOassign
                0x200049bc        0x4 build/LAN9253_D51_SQI_direct_mode/production/_ext/108134065/sample_app.o
                0x200049bc                sRxPDOassign

.data.sTxPDOassign%27
                0x200049c0        0x4
 .data.sTxPDOassign
                0x200049c0        0x4 build/LAN9253_D51_SQI_direct_mode/production/_ext/108134065/sample_app.o
                0x200049c0                sTxPDOassign

.bss.gTriggerCounterValMeasure%28
                0x200049c4        0x4
 .bss.gTriggerCounterValMeasure
                0x200049c4        0x4 build/LAN9253_D51_SQI_direct_mode/production/_ext/108134065/sample_app.o
                0x200049c4                gTriggerCounterValMeasure

.data.gFOETestFrameSize%29
                0x200049c8        0x4
 .data.gFOETestFrameSize
                0x200049c8        0x4 build/LAN9253_D51_SQI_direct_mode/production/_ext/108134065/sample_app.o
                0x200049c8                gFOETestFrameSize

.bss.nFileWriteOffset%30
                0x200049cc        0x4
 .bss.nFileWriteOffset
                0x200049cc        0x4 build/LAN9253_D51_SQI_direct_mode/production/_ext/108134065/sample_app.o
                0x200049cc                nFileWriteOffset

.bss.nFileStartWriteAddress%31
                0x200049d0        0x4
 .bss.nFileStartWriteAddress
                0x200049d0        0x4 build/LAN9253_D51_SQI_direct_mode/production/_ext/108134065/sample_app.o
                0x200049d0                nFileStartWriteAddress

.bss.u32FileSize%32
                0x200049d4        0x4
 .bss.u32FileSize
                0x200049d4        0x4 build/LAN9253_D51_SQI_direct_mode/production/_ext/108134065/sample_app.o
                0x200049d4                u32FileSize

.bss.__malloc_max_sbrked_mem%33
                0x200049d8        0x4
 .bss.__malloc_max_sbrked_mem
                0x200049d8        0x4 c:/program files (x86)/microchip/xc32/v2.30/bin/bin/../../lib/gcc/pic32c/6.2.1/../../../../pic32c/lib/v7e-m/fpv4-sp/hard\libc.a(lib_a-mallocr.o)
                0x200049d8                __malloc_max_sbrked_mem

.bss.__malloc_max_total_mem%34
                0x200049dc        0x4
 .bss.__malloc_max_total_mem
                0x200049dc        0x4 c:/program files (x86)/microchip/xc32/v2.30/bin/bin/../../lib/gcc/pic32c/6.2.1/../../../../pic32c/lib/v7e-m/fpv4-sp/hard\libc.a(lib_a-mallocr.o)
                0x200049dc                __malloc_max_total_mem

.bss.__malloc_top_pad%35
                0x200049e0        0x4
 .bss.__malloc_top_pad
                0x200049e0        0x4 c:/program files (x86)/microchip/xc32/v2.30/bin/bin/../../lib/gcc/pic32c/6.2.1/../../../../pic32c/lib/v7e-m/fpv4-sp/hard\libc.a(lib_a-mallocr.o)
                0x200049e0                __malloc_top_pad

.data.__malloc_sbrk_base%36
                0x200049e4        0x4
 .data.__malloc_sbrk_base
                0x200049e4        0x4 c:/program files (x86)/microchip/xc32/v2.30/bin/bin/../../lib/gcc/pic32c/6.2.1/../../../../pic32c/lib/v7e-m/fpv4-sp/hard\libc.a(lib_a-mallocr.o)
                0x200049e4                __malloc_sbrk_base

.data.__malloc_trim_threshold%37
                0x200049e8        0x4
 .data.__malloc_trim_threshold
                0x200049e8        0x4 c:/program files (x86)/microchip/xc32/v2.30/bin/bin/../../lib/gcc/pic32c/6.2.1/../../../../pic32c/lib/v7e-m/fpv4-sp/hard\libc.a(lib_a-mallocr.o)
                0x200049e8                __malloc_trim_threshold

.data._impure_ptr%38
                0x200049ec        0x4
 .data._impure_ptr
                0x200049ec        0x4 c:/program files (x86)/microchip/xc32/v2.30/bin/bin/../../lib/gcc/pic32c/6.2.1/../../../../pic32c/lib/v7e-m/fpv4-sp/hard\libc.a(lib_a-impure.o)
                0x200049ec                _impure_ptr

.bss%39         0x200049f0        0x4
 .bss           0x200049f0        0x4 c:/program files (x86)/microchip/xc32/v2.30/bin/bin/../../lib/gcc/pic32c/6.2.1/../../../../pic32c/lib/v7e-m/fpv4-sp/hard\libpic32c.a(sbrk.o)

.bss.nvm_error%40
                0x2000496a        0x2
 .bss.nvm_error
                0x2000496a        0x2 build/LAN9253_D51_SQI_direct_mode/production/_ext/1593096446/plib_nvmctrl.o

.bss.u16ErrorRegister%41
                0x200049ae        0x2
 .bss.u16ErrorRegister
                0x200049ae        0x2 build/LAN9253_D51_SQI_direct_mode/production/_ext/108134065/coeappl.o
                0x200049ae                u16ErrorRegister

.bss.bInitFinished%42
                0x200048d7        0x1
 .bss.bInitFinished
                0x200048d7        0x1 build/LAN9253_D51_SQI_direct_mode/production/_ext/108134065/ecatappl.o
                0x200048d7                bInitFinished

.bss.EepromLoaded%43
                0x2000498d        0x1
 .bss.EepromLoaded
                0x2000498d        0x1 build/LAN9253_D51_SQI_direct_mode/production/_ext/108134065/ecatslv.o
                0x2000498d                EepromLoaded

.bss.gFirmwareDownload_Started%44
                0x2000498e        0x1
 .bss.gFirmwareDownload_Started
                0x2000498e        0x1 build/LAN9253_D51_SQI_direct_mode/production/_ext/108134065/sample_app.o
                0x2000498e                gFirmwareDownload_Started

.bss.gFirmwareDownload_Finished%45
                0x2000498f        0x1
 .bss.gFirmwareDownload_Finished
                0x2000498f        0x1 build/LAN9253_D51_SQI_direct_mode/production/_ext/108134065/sample_app.o
                0x2000498f                gFirmwareDownload_Finished

.bss.bSdoInWork%46
                0x200049f4        0x1
 .bss.bSdoInWork
                0x200049f4        0x1 build/LAN9253_D51_SQI_direct_mode/production/_ext/108134065/sdoserv.o
                0x200049f4                bSdoInWork

.eh_frame%z1    0x00000000        0x0
 .eh_frame      0x00000000        0x0 c:/program files (x86)/microchip/xc32/v2.30/bin/bin/../../lib/gcc/pic32c/6.2.1/v7e-m/fpv4-sp/hard/crtbegin.o

.dinit%47       0x00000280     0x16b0
 .dinit         0x00000280     0x16b0 data_init

.text.StartInputHandler%48
                0x00001930      0x7e4
 .text.StartInputHandler
                0x00001930      0x7e4 build/LAN9253_D51_SQI_direct_mode/production/_ext/108134065/ecatslv.o
                0x00001930                StartInputHandler

.text.AL_ControlInd%49
                0x00002114      0x790
 .text.AL_ControlInd
                0x00002114      0x790 build/LAN9253_D51_SQI_direct_mode/production/_ext/108134065/ecatslv.o
                0x00002114                AL_ControlInd

.text.OBJ_Write%50
                0x000028a4      0x710
 .text.OBJ_Write
                0x000028a4      0x710 build/LAN9253_D51_SQI_direct_mode/production/_ext/108134065/objdef.o
                0x000028a4                OBJ_Write

.rodata.aName0x1601%51
                0x00002fb4      0x6a0
 .rodata.aName0x1601
                0x00002fb4      0x6a0 build/LAN9253_D51_SQI_direct_mode/production/_ext/108134065/coeappl.o
                0x00002fb4                aName0x1601

.rodata.aName0x1A00%52
                0x00003654      0x6a0
 .rodata.aName0x1A00
                0x00003654      0x6a0 build/LAN9253_D51_SQI_direct_mode/production/_ext/108134065/coeappl.o
                0x00003654                aName0x1A00

.text.OBJ_Read%53
                0x00003cf4      0x67c
 .text.OBJ_Read
                0x00003cf4      0x67c build/LAN9253_D51_SQI_direct_mode/production/_ext/108134065/objdef.o
                0x00003cf4                OBJ_Read

.text.SDOS_SdoInd%54
                0x00004370      0x5e4
 .text.SDOS_SdoInd
                0x00004370      0x5e4 build/LAN9253_D51_SQI_direct_mode/production/_ext/108134065/sdoserv.o
                0x00004370                SDOS_SdoInd

.rodata.aName0x7010%55
                0x00004954      0x520
 .rodata.aName0x7010
                0x00004954      0x520 build/LAN9253_D51_SQI_direct_mode/production/_ext/108134065/coeappl.o
                0x00004954                aName0x7010

.rodata.aName0x6000%56
                0x00004e74      0x51c
 .rodata.aName0x6000
                0x00004e74      0x51c build/LAN9253_D51_SQI_direct_mode/production/_ext/108134065/coeappl.o
                0x00004e74                aName0x6000

.text.FOE_ServiceInd%57
                0x00005390      0x488
 .text.FOE_ServiceInd
                0x00005390      0x488 build/LAN9253_D51_SQI_direct_mode/production/_ext/108134065/ecatfoe.o
                0x00005390                FOE_ServiceInd

.text._malloc_r%58
                0x00005818      0x438
 .text._malloc_r
                0x00005818      0x438 c:/program files (x86)/microchip/xc32/v2.30/bin/bin/../../lib/gcc/pic32c/6.2.1/../../../../pic32c/lib/v7e-m/fpv4-sp/hard\libc.a(lib_a-mallocr.o)
                0x00005818                _malloc_r

.text.SDOS_SdoInfoInd%59
                0x00005c50      0x434
 .text.SDOS_SdoInfoInd
                0x00005c50      0x434 build/LAN9253_D51_SQI_direct_mode/production/_ext/108134065/sdoserv.o
                0x00005c50                SDOS_SdoInfoInd

.text.SdoDownloadSegmentInd%60
                0x00006084      0x3b4
 .text.SdoDownloadSegmentInd
                0x00006084      0x3b4 build/LAN9253_D51_SQI_direct_mode/production/_ext/108134065/sdoserv.o

.text.CheckSmSettings%61
                0x00006438      0x3a4
 .text.CheckSmSettings
                0x00006438      0x3a4 build/LAN9253_D51_SQI_direct_mode/production/_ext/108134065/ecatslv.o
                0x00006438                CheckSmSettings

.rodata.asEntryDesc0x1601%62
                0x000067dc      0x308
 .rodata.asEntryDesc0x1601
                0x000067dc      0x308 build/LAN9253_D51_SQI_direct_mode/production/_ext/108134065/coeappl.o
                0x000067dc                asEntryDesc0x1601

.rodata.asEntryDesc0x1A00%63
                0x00006ae4      0x308
 .rodata.asEntryDesc0x1A00
                0x00006ae4      0x308 build/LAN9253_D51_SQI_direct_mode/production/_ext/108134065/coeappl.o
                0x00006ae4                asEntryDesc0x1A00

.rodata.asEntryDesc0x6000%64
                0x00006dec      0x308
 .rodata.asEntryDesc0x6000
                0x00006dec      0x308 build/LAN9253_D51_SQI_direct_mode/production/_ext/108134065/coeappl.o
                0x00006dec                asEntryDesc0x6000

.rodata.asEntryDesc0x7010%65
                0x000070f4      0x308
 .rodata.asEntryDesc0x7010
                0x000070f4      0x308 build/LAN9253_D51_SQI_direct_mode/production/_ext/108134065/coeappl.o
                0x000070f4                asEntryDesc0x7010

.text.AL_ControlRes%66
                0x000073fc      0x2bc
 .text.AL_ControlRes
                0x000073fc      0x2bc build/LAN9253_D51_SQI_direct_mode/production/_ext/108134065/ecatslv.o
                0x000073fc                AL_ControlRes

.text.SdoUploadSegmentInd%67
                0x000076b8      0x260
 .text.SdoUploadSegmentInd
                0x000076b8      0x260 build/LAN9253_D51_SQI_direct_mode/production/_ext/108134065/sdoserv.o

.text.SendSmFailedEmergency%68
                0x00007918      0x1e0
 .text.SendSmFailedEmergency
                0x00007918      0x1e0 build/LAN9253_D51_SQI_direct_mode/production/_ext/108134065/ecatslv.o
                0x00007918                SendSmFailedEmergency

.text.SdoRes%69
                0x00007af8      0x1bc
 .text.SdoRes   0x00007af8      0x1bc build/LAN9253_D51_SQI_direct_mode/production/_ext/108134065/sdoserv.o
                0x00007af8                SdoRes

.text.CheckSyncTypeValue%70
                0x00007cb4      0x1b4
 .text.CheckSyncTypeValue
                0x00007cb4      0x1b4 build/LAN9253_D51_SQI_direct_mode/production/_ext/108134065/objdef.o
                0x00007cb4                CheckSyncTypeValue

.text.ECAT_Main%71
                0x00007e68      0x1a8
 .text.ECAT_Main
                0x00007e68      0x1a8 build/LAN9253_D51_SQI_direct_mode/production/_ext/108134065/ecatslv.o
                0x00007e68                ECAT_Main

.text.OBJ_GetEntryOffset%72
                0x00008010      0x178
 .text.OBJ_GetEntryOffset
                0x00008010      0x178 build/LAN9253_D51_SQI_direct_mode/production/_ext/108134065/objdef.o
                0x00008010                OBJ_GetEntryOffset

.text._free_r%73
                0x00008188      0x178
 .text._free_r  0x00008188      0x178 c:/program files (x86)/microchip/xc32/v2.30/bin/bin/../../lib/gcc/pic32c/6.2.1/../../../../pic32c/lib/v7e-m/fpv4-sp/hard\libc.a(lib_a-freer.o)
                0x00008188                _free_r

.text.APPL_GenerateMapping%74
                0x00008300      0x174
 .text.APPL_GenerateMapping
                0x00008300      0x174 build/LAN9253_D51_SQI_direct_mode/production/_ext/108134065/sample_app.o
                0x00008300                APPL_GenerateMapping

.text.ECAT_Init%75
                0x00008474      0x170
 .text.ECAT_Init
                0x00008474      0x170 build/LAN9253_D51_SQI_direct_mode/production/_ext/108134065/ecatslv.o
                0x00008474                ECAT_Init

.text.SetALStatus%76
                0x000085e4      0x164
 .text.SetALStatus
                0x000085e4      0x164 build/LAN9253_D51_SQI_direct_mode/production/_ext/108134065/ecatslv.o
                0x000085e4                SetALStatus

.text.MBX_CheckAndCopyMailbox%77
                0x00008748      0x164
 .text.MBX_CheckAndCopyMailbox
                0x00008748      0x164 build/LAN9253_D51_SQI_direct_mode/production/_ext/108134065/mailbox.o
                0x00008748                MBX_CheckAndCopyMailbox

.text.COE_ObjInit%78
                0x000088ac      0x160
 .text.COE_ObjInit
                0x000088ac      0x160 build/LAN9253_D51_SQI_direct_mode/production/_ext/108134065/coeappl.o
                0x000088ac                COE_ObjInit

.text.Sync0_Isr%79
                0x00008a0c      0x15c
 .text.Sync0_Isr
                0x00008a0c      0x15c build/LAN9253_D51_SQI_direct_mode/production/_ext/108134065/ecatappl.o
                0x00008a0c                Sync0_Isr

.text.MBX_StopMailboxHandler%80
                0x00008b68      0x154
 .text.MBX_StopMailboxHandler
                0x00008b68      0x154 build/LAN9253_D51_SQI_direct_mode/production/_ext/108134065/mailbox.o
                0x00008b68                MBX_StopMailboxHandler

.text.PDI_Isr%81
                0x00008cbc      0x14c
 .text.PDI_Isr  0x00008cbc      0x14c build/LAN9253_D51_SQI_direct_mode/production/_ext/108134065/ecatappl.o
                0x00008cbc                PDI_Isr

.text.FoE_WriteData%82
                0x00008e08      0x148
 .text.FoE_WriteData
                0x00008e08      0x148 build/LAN9253_D51_SQI_direct_mode/production/_ext/108134065/sample_app.o
                0x00008e08                FoE_WriteData

.text.StopInputHandler%83
                0x00008f50      0x12c
 .text.StopInputHandler
                0x00008f50      0x12c build/LAN9253_D51_SQI_direct_mode/production/_ext/108134065/ecatslv.o
                0x00008f50                StopInputHandler

.text.MBX_MailboxReadInd%84
                0x0000907c      0x124
 .text.MBX_MailboxReadInd
                0x0000907c      0x124 build/LAN9253_D51_SQI_direct_mode/production/_ext/108134065/mailbox.o
                0x0000907c                MBX_MailboxReadInd

.text.OBJ_GetObjectLength%85
                0x000091a0      0x124
 .text.OBJ_GetObjectLength
                0x000091a0      0x124 build/LAN9253_D51_SQI_direct_mode/production/_ext/108134065/objdef.o
                0x000091a0                OBJ_GetObjectLength

.text.SDOS_SdoRes%86
                0x000092c4      0x124
 .text.SDOS_SdoRes
                0x000092c4      0x124 build/LAN9253_D51_SQI_direct_mode/production/_ext/108134065/sdoserv.o
                0x000092c4                SDOS_SdoRes

.text.DC_CheckWatchdog%87
                0x000093e8      0x120
 .text.DC_CheckWatchdog
                0x000093e8      0x120 build/LAN9253_D51_SQI_direct_mode/production/_ext/108134065/ecatslv.o
                0x000093e8                DC_CheckWatchdog

.text.OBJ_GetDesc%88
                0x00009508      0x120
 .text.OBJ_GetDesc
                0x00009508      0x120 build/LAN9253_D51_SQI_direct_mode/production/_ext/108134065/objdef.o
                0x00009508                OBJ_GetDesc

.text.MBX_StartMailboxHandler%89
                0x00009628      0x114
 .text.MBX_StartMailboxHandler
                0x00009628      0x114 build/LAN9253_D51_SQI_direct_mode/production/_ext/108134065/mailbox.o
                0x00009628                MBX_StartMailboxHandler

.text.MBX_CopyToSendMailbox%90
                0x0000973c      0x10c
 .text.MBX_CopyToSendMailbox
                0x0000973c      0x10c build/LAN9253_D51_SQI_direct_mode/production/_ext/108134065/mailbox.o
                0x0000973c                MBX_CopyToSendMailbox

.rodata.aName0x1C32%91
                0x00009848      0x100
 .rodata.aName0x1C32
                0x00009848      0x100 build/LAN9253_D51_SQI_direct_mode/production/_ext/108134065/coeappl.o
                0x00009848                aName0x1C32

.rodata.aName0x1C33%92
                0x00009948      0x100
 .rodata.aName0x1C33
                0x00009948      0x100 build/LAN9253_D51_SQI_direct_mode/production/_ext/108134065/coeappl.o
                0x00009948                aName0x1C33

.text.MainInit%93
                0x00009a48      0x100
 .text.MainInit
                0x00009a48      0x100 build/LAN9253_D51_SQI_direct_mode/production/_ext/108134065/ecatappl.o
                0x00009a48                MainInit

.text.MBX_Init%94
                0x00009b48      0x100
 .text.MBX_Init
                0x00009b48      0x100 build/LAN9253_D51_SQI_direct_mode/production/_ext/108134065/mailbox.o
                0x00009b48                MBX_Init

.text.OBJ_GetObjectList%95
                0x00009c48       0xf8
 .text.OBJ_GetObjectList
                0x00009c48       0xf8 build/LAN9253_D51_SQI_direct_mode/production/_ext/108134065/objdef.o
                0x00009c48                OBJ_GetObjectList

.text.MBX_MailboxWriteInd%96
                0x00009d40       0xf4
 .text.MBX_MailboxWriteInd
                0x00009d40       0xf4 build/LAN9253_D51_SQI_direct_mode/production/_ext/108134065/mailbox.o
                0x00009d40                MBX_MailboxWriteInd

.text.LAN9253SQI_Read%97
                0x00009e34       0xec
 .text.LAN9253SQI_Read
                0x00009e34       0xec build/LAN9253_D51_SQI_direct_mode/production/_ext/1671622979/Drivers.o
                0x00009e34                LAN9253SQI_Read

.text.MainLoop%98
                0x00009f20       0xec
 .text.MainLoop
                0x00009f20       0xec build/LAN9253_D51_SQI_direct_mode/production/_ext/108134065/ecatappl.o
                0x00009f20                MainLoop

.text.HW_EscWriteIsr%99
                0x0000a00c       0xe8
 .text.HW_EscWriteIsr
                0x0000a00c       0xe8 build/LAN9253_D51_SQI_direct_mode/production/_ext/108147519/LAN925x.o
                0x0000a00c                HW_EscWriteIsr

.text.COE_AddObjectToDic%100
                0x0000a0f4       0xe8
 .text.COE_AddObjectToDic
                0x0000a0f4       0xe8 build/LAN9253_D51_SQI_direct_mode/production/_ext/108134065/coeappl.o
                0x0000a0f4                COE_AddObjectToDic

.text.COE_Main%101
                0x0000a1dc       0xe8
 .text.COE_Main
                0x0000a1dc       0xe8 build/LAN9253_D51_SQI_direct_mode/production/_ext/108134065/coeappl.o
                0x0000a1dc                COE_Main

.text.HW_EscReadIsr%102
                0x0000a2c4       0xe6
 .text.HW_EscReadIsr
                0x0000a2c4       0xe6 build/LAN9253_D51_SQI_direct_mode/production/_ext/108147519/LAN925x.o
                0x0000a2c4                HW_EscReadIsr

.text.EIC_Initialize%103
                0x0000a3ac       0xe4
 .text.EIC_Initialize
                0x0000a3ac       0xe4 build/LAN9253_D51_SQI_direct_mode/production/_ext/60167341/plib_eic.o
                0x0000a3ac                EIC_Initialize

.text.MBX_MailboxSendReq%104
                0x0000a490       0xdc
 .text.MBX_MailboxSendReq
                0x0000a490       0xdc build/LAN9253_D51_SQI_direct_mode/production/_ext/108134065/mailbox.o
                0x0000a490                MBX_MailboxSendReq

.text.HW_EscWrite%105
                0x0000a56c       0xce
 .text.HW_EscWrite
                0x0000a56c       0xce build/LAN9253_D51_SQI_direct_mode/production/_ext/108147519/LAN925x.o
                0x0000a56c                HW_EscWrite

.text.DMAC_Initialize%106
                0x0000a63c       0xcc
 .text.DMAC_Initialize
                0x0000a63c       0xcc build/LAN9253_D51_SQI_direct_mode/production/_ext/1865161661/plib_dmac.o
                0x0000a63c                DMAC_Initialize

.text.HW_EscRead%107
                0x0000a708       0xcc
 .text.HW_EscRead
                0x0000a708       0xcc build/LAN9253_D51_SQI_direct_mode/production/_ext/108147519/LAN925x.o
                0x0000a708                HW_EscRead

.text.SODS_ClearPendingResponse%108
                0x0000a7d4       0xcc
 .text.SODS_ClearPendingResponse
                0x0000a7d4       0xcc build/LAN9253_D51_SQI_direct_mode/production/_ext/108134065/sdoserv.o
                0x0000a7d4                SODS_ClearPendingResponse

.rodata.asEntryDesc0x1C3x%109
                0x0000a8a0       0xc8
 .rodata.asEntryDesc0x1C3x
                0x0000a8a0       0xc8 build/LAN9253_D51_SQI_direct_mode/production/_ext/108134065/coeappl.o
                0x0000a8a0                asEntryDesc0x1C3x

.text.GetDummyBytesRequired%110
                0x0000a968       0xc6
 .text.GetDummyBytesRequired
                0x0000a968       0xc6 build/LAN9253_D51_SQI_direct_mode/production/_ext/108147519/ESC_Utils.o
                0x0000a968                GetDummyBytesRequired

.text.EscWrite%111
                0x0000aa2e       0xc6
 .text.EscWrite
                0x0000aa2e       0xc6 build/LAN9253_D51_SQI_direct_mode/production/_ext/108147519/LAN925x.o
                0x0000aa2e                EscWrite

.text.EscRead%112
                0x0000aaf4       0xc4
 .text.EscRead  0x0000aaf4       0xc4 build/LAN9253_D51_SQI_direct_mode/production/_ext/108147519/LAN925x.o
                0x0000aaf4                EscRead

.text.LAN925x_Init%113
                0x0000abb8       0xbc
 .text.LAN925x_Init
                0x0000abb8       0xbc build/LAN9253_D51_SQI_direct_mode/production/_ext/108147519/LAN925x.o
                0x0000abb8                LAN925x_Init

.text.FoE_Read%114
                0x0000ac74       0xbc
 .text.FoE_Read
                0x0000ac74       0xbc build/LAN9253_D51_SQI_direct_mode/production/_ext/108134065/sample_app.o
                0x0000ac74                FoE_Read

.text.MBX_Main%115
                0x0000ad30       0xb8
 .text.MBX_Main
                0x0000ad30       0xb8 build/LAN9253_D51_SQI_direct_mode/production/_ext/108134065/mailbox.o
                0x0000ad30                MBX_Main

.text.qspi_setup_transfer%116
                0x0000ade8       0xb4
 .text.qspi_setup_transfer
                0x0000ade8       0xb4 build/LAN9253_D51_SQI_direct_mode/production/_ext/1865555181/plib_qspi.o

.text.LAN9253SQI_Write%117
                0x0000ae9c       0xb0
 .text.LAN9253SQI_Write
                0x0000ae9c       0xb0 build/LAN9253_D51_SQI_direct_mode/production/_ext/1671622979/Drivers.o
                0x0000ae9c                LAN9253SQI_Write

.text.PDO_OutputMapping%118
                0x0000af4c       0xb0
 .text.PDO_OutputMapping
                0x0000af4c       0xb0 build/LAN9253_D51_SQI_direct_mode/production/_ext/108134065/ecatappl.o
                0x0000af4c                PDO_OutputMapping

.text.ECAT_CheckTimer%119
                0x0000affc       0xb0
 .text.ECAT_CheckTimer
                0x0000affc       0xb0 build/LAN9253_D51_SQI_direct_mode/production/_ext/108134065/ecatappl.o
                0x0000affc                ECAT_CheckTimer

.text.QSPI_MemoryRead%120
                0x0000b0ac       0xac
 .text.QSPI_MemoryRead
                0x0000b0ac       0xac build/LAN9253_D51_SQI_direct_mode/production/_ext/1865555181/plib_qspi.o
                0x0000b0ac                QSPI_MemoryRead

.text.QSPI_MemoryWrite%121
                0x0000b158       0xa8
 .text.QSPI_MemoryWrite
                0x0000b158       0xa8 build/LAN9253_D51_SQI_direct_mode/production/_ext/1865555181/plib_qspi.o
                0x0000b158                QSPI_MemoryWrite

.text.EMCY_Init%122
                0x0000b200       0xa8
 .text.EMCY_Init
                0x0000b200       0xa8 build/LAN9253_D51_SQI_direct_mode/production/_ext/108134065/emcy.o
                0x0000b200                EMCY_Init

.text.EMCY_SendEmergency%123
                0x0000b2a8       0xa4
 .text.EMCY_SendEmergency
                0x0000b2a8       0xa4 build/LAN9253_D51_SQI_direct_mode/production/_ext/108134065/emcy.o
                0x0000b2a8                EMCY_SendEmergency

.text._DMAC_interruptHandler%124
                0x0000b34c       0x9c
 .text._DMAC_interruptHandler
                0x0000b34c       0x9c build/LAN9253_D51_SQI_direct_mode/production/_ext/1865161661/plib_dmac.o
                0x0000b34c                _DMAC_interruptHandler

.text.COE_SyncTimeStamp%125
                0x0000b3e8       0x9c
 .text.COE_SyncTimeStamp
                0x0000b3e8       0x9c build/LAN9253_D51_SQI_direct_mode/production/_ext/108134065/coeappl.o
                0x0000b3e8                COE_SyncTimeStamp

.text.OBJ_GetNoOfObjects%126
                0x0000b484       0x98
 .text.OBJ_GetNoOfObjects
                0x0000b484       0x98 build/LAN9253_D51_SQI_direct_mode/production/_ext/108134065/objdef.o
                0x0000b484                OBJ_GetNoOfObjects

.text.RoundUpMultipleOf%127
                0x0000b51c       0x96
 .text.RoundUpMultipleOf
                0x0000b51c       0x96 build/LAN9253_D51_SQI_direct_mode/production/_ext/108147519/ESC_Utils.o

.text.PDO_InputMapping%128
                0x0000b5b4       0x94
 .text.PDO_InputMapping
                0x0000b5b4       0x94 build/LAN9253_D51_SQI_direct_mode/production/_ext/108134065/ecatappl.o
                0x0000b5b4                PDO_InputMapping

.text.OBJ_CopyNumberToString%129
                0x0000b648       0x94
 .text.OBJ_CopyNumberToString
                0x0000b648       0x94 build/LAN9253_D51_SQI_direct_mode/production/_ext/108134065/objdef.o
                0x0000b648                OBJ_CopyNumberToString

.text.FoE_Write%130
                0x0000b6dc       0x94
 .text.FoE_Write
                0x0000b6dc       0x94 build/LAN9253_D51_SQI_direct_mode/production/_ext/108134065/sample_app.o
                0x0000b6dc                FoE_Write

.text._malloc_trim_r%131
                0x0000b770       0x94
 .text._malloc_trim_r
                0x0000b770       0x94 c:/program files (x86)/microchip/xc32/v2.30/bin/bin/../../lib/gcc/pic32c/6.2.1/../../../../pic32c/lib/v7e-m/fpv4-sp/hard\libc.a(lib_a-freer.o)
                0x0000b770                _malloc_trim_r

.text.QSPI_CommandWrite%132
                0x0000b804       0x88
 .text.QSPI_CommandWrite
                0x0000b804       0x88 build/LAN9253_D51_SQI_direct_mode/production/_ext/1865555181/plib_qspi.o
                0x0000b804                QSPI_CommandWrite

.text.QSPI_RegisterWrite%133
                0x0000b88c       0x88
 .text.QSPI_RegisterWrite
                0x0000b88c       0x88 build/LAN9253_D51_SQI_direct_mode/production/_ext/1865555181/plib_qspi.o
                0x0000b88c                QSPI_RegisterWrite

.text.ReBuild_SQI_SetCfg_data%134
                0x0000b914       0x88
 .text.ReBuild_SQI_SetCfg_data
                0x0000b914       0x88 build/LAN9253_D51_SQI_direct_mode/production/_ext/1671622979/Drivers.o
                0x0000b914                ReBuild_SQI_SetCfg_data

.text.COE_RemoveDicEntry%135
                0x0000b99c       0x80
 .text.COE_RemoveDicEntry
                0x0000b99c       0x80 build/LAN9253_D51_SQI_direct_mode/production/_ext/108134065/coeappl.o
                0x0000b99c                COE_RemoveDicEntry

.text.__pic32c_data_initialization%136
                0x0000ba1c       0x80
 .text.__pic32c_data_initialization
                0x0000ba1c       0x80 c:/program files (x86)/microchip/xc32/v2.30/bin/bin/../../lib/gcc/pic32c/6.2.1/../../../../pic32c/lib/v7e-m/fpv4-sp/hard\libpic32c.a(data_init.o)
                0x0000ba1c                __pic32c_data_initialization

.text.PORT_Initialize%137
                0x0000ba9c       0x7c
 .text.PORT_Initialize
                0x0000ba9c       0x7c build/LAN9253_D51_SQI_direct_mode/production/_ext/1865521619/plib_port.o
                0x0000ba9c                PORT_Initialize

.text.HandleCycleTimeMeasurement%138
                0x0000bb18       0x7c
 .text.HandleCycleTimeMeasurement
                0x0000bb18       0x7c build/LAN9253_D51_SQI_direct_mode/production/_ext/108134065/ecatappl.o
                0x0000bb18                HandleCycleTimeMeasurement

.text.MBX_MailboxRepeatReq%139
                0x0000bb94       0x7c
 .text.MBX_MailboxRepeatReq
                0x0000bb94       0x7c build/LAN9253_D51_SQI_direct_mode/production/_ext/108134065/mailbox.o
                0x0000bb94                MBX_MailboxRepeatReq

.rodata.cAbortCode%140
                0x0000bc10       0x78
 .rodata.cAbortCode
                0x0000bc10       0x78 build/LAN9253_D51_SQI_direct_mode/production/_ext/108134065/sdoserv.o
                0x0000bc10                cAbortCode

.text.APP_FlashWrite%141
                0x0000bc88       0x78
 .text.APP_FlashWrite
                0x0000bc88       0x78 build/LAN9253_D51_SQI_direct_mode/production/_ext/1360937237/app.o
                0x0000bc88                APP_FlashWrite

.text.COE_ServiceInd%142
                0x0000bd00       0x74
 .text.COE_ServiceInd
                0x0000bd00       0x74 build/LAN9253_D51_SQI_direct_mode/production/_ext/108134065/ecatcoe.o
                0x0000bd00                COE_ServiceInd

.text.StartOutputHandler%143
                0x0000bd74       0x74
 .text.StartOutputHandler
                0x0000bd74       0x74 build/LAN9253_D51_SQI_direct_mode/production/_ext/108134065/ecatslv.o
                0x0000bd74                StartOutputHandler

.text.NVIC_Initialize%144
                0x0000bde8       0x72
 .text.NVIC_Initialize
                0x0000bde8       0x72 build/LAN9253_D51_SQI_direct_mode/production/_ext/1865468468/plib_nvic.o
                0x0000bde8                NVIC_Initialize

.text.GetSystemTimeDelay%145
                0x0000be5c       0x70
 .text.GetSystemTimeDelay
                0x0000be5c       0x70 build/LAN9253_D51_SQI_direct_mode/production/_ext/108134065/ecatappl.o
                0x0000be5c                GetSystemTimeDelay

.text.FDPLL0_Initialize%146
                0x0000becc       0x6c
 .text.FDPLL0_Initialize
                0x0000becc       0x6c build/LAN9253_D51_SQI_direct_mode/production/_ext/1984496892/plib_clock.o

.text.FOE_Data%147
                0x0000bf38       0x6c
 .text.FOE_Data
                0x0000bf38       0x6c build/LAN9253_D51_SQI_direct_mode/production/_ext/108134065/foeappl.o
                0x0000bf38                FOE_Data

.text.NVMCTRL_PageWrite%148
                0x0000bfa4       0x68
 .text.NVMCTRL_PageWrite
                0x0000bfa4       0x68 build/LAN9253_D51_SQI_direct_mode/production/_ext/1593096446/plib_nvmctrl.o
                0x0000bfa4                NVMCTRL_PageWrite

.text.COE_UpdateSyncErrorStatus%149
                0x0000c00c       0x68
 .text.COE_UpdateSyncErrorStatus
                0x0000c00c       0x68 build/LAN9253_D51_SQI_direct_mode/production/_ext/108134065/coeappl.o
                0x0000c00c                COE_UpdateSyncErrorStatus

.text.MailboxServiceInd%150
                0x0000c074       0x68
 .text.MailboxServiceInd
                0x0000c074       0x68 build/LAN9253_D51_SQI_direct_mode/production/_ext/108134065/mailbox.o
                0x0000c074                MailboxServiceInd

.text.ECAT_CheckWatchdog%151
                0x0000c0dc       0x64
 .text.ECAT_CheckWatchdog
                0x0000c0dc       0x64 build/LAN9253_D51_SQI_direct_mode/production/_ext/108134065/ecatslv.o
                0x0000c0dc                ECAT_CheckWatchdog

.text.BL_FOE_Application%152
                0x0000c140       0x64
 .text.BL_FOE_Application
                0x0000c140       0x64 build/LAN9253_D51_SQI_direct_mode/production/_ext/108134065/sample_app.o
                0x0000c140                BL_FOE_Application

.text.APPL_Application%153
                0x0000c1a4       0x64
 .text.APPL_Application
                0x0000c1a4       0x64 build/LAN9253_D51_SQI_direct_mode/production/_ext/108134065/sample_app.o
                0x0000c1a4                APPL_Application

.text.EIC_CallbackRegister%154
                0x0000c208       0x5c
 .text.EIC_CallbackRegister
                0x0000c208       0x5c build/LAN9253_D51_SQI_direct_mode/production/_ext/60167341/plib_eic.o
                0x0000c208                EIC_CallbackRegister

.text.Reset_Handler%155
                0x0000c264       0x5c
 .text.Reset_Handler
                0x0000c264       0x5c build/LAN9253_D51_SQI_direct_mode/production/_ext/1171490990/startup_xc32.o
                0x0000c264                Reset_Handler

.text.ESC_BYTE_TEST_Register_Read%156
                0x0000c2c0       0x5c
 .text.ESC_BYTE_TEST_Register_Read
                0x0000c2c0       0x5c build/LAN9253_D51_SQI_direct_mode/production/_ext/1671622979/Drivers.o
                0x0000c2c0                ESC_BYTE_TEST_Register_Read

.text.Read0x10F8%157
                0x0000c31c       0x5c
 .text.Read0x10F8
                0x0000c31c       0x5c build/LAN9253_D51_SQI_direct_mode/production/_ext/108134065/coeappl.o
                0x0000c31c                Read0x10F8

.text.COE_ContinueInd%158
                0x0000c378       0x5c
 .text.COE_ContinueInd
                0x0000c378       0x5c build/LAN9253_D51_SQI_direct_mode/production/_ext/108134065/ecatcoe.o
                0x0000c378                COE_ContinueInd

.text.GetOutOfEmptyEmcyQueue%159
                0x0000c3d4       0x5c
 .text.GetOutOfEmptyEmcyQueue
                0x0000c3d4       0x5c build/LAN9253_D51_SQI_direct_mode/production/_ext/108134065/emcy.o
                0x0000c3d4                GetOutOfEmptyEmcyQueue

.text.GetOutOfSendEmcyQueue%160
                0x0000c430       0x5c
 .text.GetOutOfSendEmcyQueue
                0x0000c430       0x5c build/LAN9253_D51_SQI_direct_mode/production/_ext/108134065/emcy.o
                0x0000c430                GetOutOfSendEmcyQueue

.text.FoE_ReadData%161
                0x0000c48c       0x5c
 .text.FoE_ReadData
                0x0000c48c       0x5c build/LAN9253_D51_SQI_direct_mode/production/_ext/108134065/sample_app.o
                0x0000c48c                FoE_ReadData

.text.APP_Tasks%162
                0x0000c4e8       0x5c
 .text.APP_Tasks
                0x0000c4e8       0x5c build/LAN9253_D51_SQI_direct_mode/production/_ext/1360937237/app.o
                0x0000c4e8                APP_Tasks

.text.GetOutOfMbxQueue%163
                0x0000c544       0x58
 .text.GetOutOfMbxQueue
                0x0000c544       0x58 build/LAN9253_D51_SQI_direct_mode/production/_ext/108134065/mailbox.o
                0x0000c544                GetOutOfMbxQueue

.text.OBJ_GetEntryDesc%164
                0x0000c59c       0x58
 .text.OBJ_GetEntryDesc
                0x0000c59c       0x58 build/LAN9253_D51_SQI_direct_mode/production/_ext/108134065/objdef.o
                0x0000c59c                OBJ_GetEntryDesc

.text.CLOCK_Initialize%165
                0x0000c5f4       0x54
 .text.CLOCK_Initialize
                0x0000c5f4       0x54 build/LAN9253_D51_SQI_direct_mode/production/_ext/1984496892/plib_clock.o
                0x0000c5f4                CLOCK_Initialize

.text.__NVIC_SetPriority%166
                0x0000c648       0x54
 .text.__NVIC_SetPriority
                0x0000c648       0x54 build/LAN9253_D51_SQI_direct_mode/production/_ext/1865468468/plib_nvic.o

.text.ESF_PDI_Init%167
                0x0000c69c       0x54
 .text.ESF_PDI_Init
                0x0000c69c       0x54 build/LAN9253_D51_SQI_direct_mode/production/_ext/1671622979/Drivers.o
                0x0000c69c                ESF_PDI_Init

.text.PutInMbxQueue%168
                0x0000c6f0       0x52
 .text.PutInMbxQueue
                0x0000c6f0       0x52 build/LAN9253_D51_SQI_direct_mode/production/_ext/108134065/mailbox.o
                0x0000c6f0                PutInMbxQueue

.text.UpdateEEPROMLoadedState%169
                0x0000c744       0x4c
 .text.UpdateEEPROMLoadedState
                0x0000c744       0x4c build/LAN9253_D51_SQI_direct_mode/production/_ext/108134065/ecatslv.o
                0x0000c744                UpdateEEPROMLoadedState

.text.DisableSyncManChannel%170
                0x0000c790       0x4c
 .text.DisableSyncManChannel
                0x0000c790       0x4c build/LAN9253_D51_SQI_direct_mode/production/_ext/108134065/ecatslv.o
                0x0000c790                DisableSyncManChannel

.text.CheckIfEcatError%171
                0x0000c7dc       0x4c
 .text.CheckIfEcatError
                0x0000c7dc       0x4c build/LAN9253_D51_SQI_direct_mode/production/_ext/108134065/ecatslv.o
                0x0000c7dc                CheckIfEcatError

.text.EnableSyncManChannel%172
                0x0000c828       0x4a
 .text.EnableSyncManChannel
                0x0000c828       0x4a build/LAN9253_D51_SQI_direct_mode/production/_ext/108134065/ecatslv.o
                0x0000c828                EnableSyncManChannel

.text.__NVIC_SetPriorityGrouping%173
                0x0000c874       0x48
 .text.__NVIC_SetPriorityGrouping
                0x0000c874       0x48 build/LAN9253_D51_SQI_direct_mode/production/_ext/1865468468/plib_nvic.o

.text.FOE_Read%174
                0x0000c8bc       0x48
 .text.FOE_Read
                0x0000c8bc       0x48 build/LAN9253_D51_SQI_direct_mode/production/_ext/108134065/foeappl.o
                0x0000c8bc                FOE_Read

.text.__libc_init_array%175
                0x0000c904       0x48
 .text.__libc_init_array
                0x0000c904       0x48 c:/program files (x86)/microchip/xc32/v2.30/bin/bin/../../lib/gcc/pic32c/6.2.1/../../../../pic32c/lib/v7e-m/fpv4-sp/hard\libc.a(lib_a-init.o)
                0x0000c904                __libc_init_array

.text.ResetALEventMask%176
                0x0000c94c       0x46
 .text.ResetALEventMask
                0x0000c94c       0x46 build/LAN9253_D51_SQI_direct_mode/production/_ext/108134065/ecatslv.o
                0x0000c94c                ResetALEventMask

.text.SetALEventMask%177
                0x0000c992       0x46
 .text.SetALEventMask
                0x0000c992       0x46 build/LAN9253_D51_SQI_direct_mode/production/_ext/108134065/ecatslv.o
                0x0000c992                SetALEventMask

.text.GCLK0_Initialize%178
                0x0000c9d8       0x44
 .text.GCLK0_Initialize
                0x0000c9d8       0x44 build/LAN9253_D51_SQI_direct_mode/production/_ext/1984496892/plib_clock.o

.text.FPU_Enable%179
                0x0000ca1c       0x44
 .text.FPU_Enable
                0x0000ca1c       0x44 build/LAN9253_D51_SQI_direct_mode/production/_ext/1171490990/startup_xc32.o

.text.COE_ObjDictionaryInit%180
                0x0000ca60       0x44
 .text.COE_ObjDictionaryInit
                0x0000ca60       0x44 build/LAN9253_D51_SQI_direct_mode/production/_ext/108134065/coeappl.o
                0x0000ca60                COE_ObjDictionaryInit

.text.Sync1_Isr%181
                0x0000caa4       0x44
 .text.Sync1_Isr
                0x0000caa4       0x44 build/LAN9253_D51_SQI_direct_mode/production/_ext/108134065/ecatappl.o
                0x0000caa4                Sync1_Isr

.text.PutInEmptyEmcyQueue%182
                0x0000cae8       0x44
 .text.PutInEmptyEmcyQueue
                0x0000cae8       0x44 build/LAN9253_D51_SQI_direct_mode/production/_ext/108134065/emcy.o
                0x0000cae8                PutInEmptyEmcyQueue

.text.PutInSendEmcyQueue%183
                0x0000cb2c       0x44
 .text.PutInSendEmcyQueue
                0x0000cb2c       0x44 build/LAN9253_D51_SQI_direct_mode/production/_ext/108134065/emcy.o
                0x0000cb2c                PutInSendEmcyQueue

.text.AddObjectsToObjDictionary%184
                0x0000cb70       0x42
 .text.AddObjectsToObjDictionary
                0x0000cb70       0x42 build/LAN9253_D51_SQI_direct_mode/production/_ext/108134065/coeappl.o
                0x0000cb70                AddObjectsToObjDictionary

.text%185       0x0000cbb4       0x40
 .text          0x0000cbb4       0x40 c:/program files (x86)/microchip/xc32/v2.30/bin/bin/../../lib/gcc/pic32c/6.2.1/v7e-m/fpv4-sp/hard/crtbegin.o

.text.SYSTICK_TimerInitialize%186
                0x0000cbf4       0x40
 .text.SYSTICK_TimerInitialize
                0x0000cbf4       0x40 build/LAN9253_D51_SQI_direct_mode/production/_ext/1827571544/plib_systick.o
                0x0000cbf4                SYSTICK_TimerInitialize

.text.ICache_Enable%187
                0x0000cc34       0x40
 .text.ICache_Enable
                0x0000cc34       0x40 build/LAN9253_D51_SQI_direct_mode/production/_ext/1171490990/startup_xc32.o

.rodata.aName0x10F1%188
                0x0000cc74       0x40
 .rodata.aName0x10F1
                0x0000cc74       0x40 build/LAN9253_D51_SQI_direct_mode/production/_ext/108134065/coeappl.o
                0x0000cc74                aName0x10F1

.text.COE_ClearObjDictionary%189
                0x0000ccb4       0x40
 .text.COE_ClearObjDictionary
                0x0000ccb4       0x40 build/LAN9253_D51_SQI_direct_mode/production/_ext/108134065/coeappl.o
                0x0000ccb4                COE_ClearObjDictionary

.text.__NVIC_EnableIRQ%190
                0x0000ccf4       0x3c
 .text.__NVIC_EnableIRQ
                0x0000ccf4       0x3c build/LAN9253_D51_SQI_direct_mode/production/_ext/1865468468/plib_nvic.o

.text.QSPI_Initialize%191
                0x0000cd30       0x3c
 .text.QSPI_Initialize
                0x0000cd30       0x3c build/LAN9253_D51_SQI_direct_mode/production/_ext/1865555181/plib_qspi.o
                0x0000cd30                QSPI_Initialize

.rodata.aName0x1018%192
                0x0000cd6c       0x3c
 .rodata.aName0x1018
                0x0000cd6c       0x3c build/LAN9253_D51_SQI_direct_mode/production/_ext/108134065/coeappl.o
                0x0000cd6c                aName0x1018

.text.ECAT_Application%193
                0x0000cda8       0x3c
 .text.ECAT_Application
                0x0000cda8       0x3c build/LAN9253_D51_SQI_direct_mode/production/_ext/108134065/ecatappl.o
                0x0000cda8                ECAT_Application

.text.APP_RunApplication%194
                0x0000cde4       0x3c
 .text.APP_RunApplication
                0x0000cde4       0x3c build/LAN9253_D51_SQI_direct_mode/production/_ext/1360937237/app.o

.text.SQI_SetConfiguration%195
                0x0000ce20       0x3a
 .text.SQI_SetConfiguration
                0x0000ce20       0x3a build/LAN9253_D51_SQI_direct_mode/production/_ext/1671622979/Drivers.o
                0x0000ce20                SQI_SetConfiguration

.text.SYS_Initialize%196
                0x0000ce5a       0x38
 .text.SYS_Initialize
                0x0000ce5a       0x38 build/LAN9253_D51_SQI_direct_mode/production/_ext/1171490990/initialization.o
                0x0000ce5a                SYS_Initialize

.text.PORT_PinSet%197
                0x0000ce92       0x38
 .text.PORT_PinSet
                0x0000ce92       0x38 build/LAN9253_D51_SQI_direct_mode/production/_ext/1671622979/Drivers.o

.text.PORT_PinClear%198
                0x0000ceca       0x38
 .text.PORT_PinClear
                0x0000ceca       0x38 build/LAN9253_D51_SQI_direct_mode/production/_ext/1671622979/Drivers.o

.text.PORT_PinOutputEnable%199
                0x0000cf02       0x38
 .text.PORT_PinOutputEnable
                0x0000cf02       0x38 build/LAN9253_D51_SQI_direct_mode/production/_ext/1671622979/Drivers.o

.text.PORT_PinSet%200
                0x0000cf3a       0x38
 .text.PORT_PinSet
                0x0000cf3a       0x38 build/LAN9253_D51_SQI_direct_mode/production/_ext/108147519/LAN925x.o

.text.PORT_PinClear%201
                0x0000cf72       0x38
 .text.PORT_PinClear
                0x0000cf72       0x38 build/LAN9253_D51_SQI_direct_mode/production/_ext/108147519/LAN925x.o

.text.FOE_Write%202
                0x0000cfac       0x38
 .text.FOE_Write
                0x0000cfac       0x38 build/LAN9253_D51_SQI_direct_mode/production/_ext/108134065/foeappl.o
                0x0000cfac                FOE_Write

.text.FOE_Ack%203
                0x0000cfe4       0x38
 .text.FOE_Ack  0x0000cfe4       0x38 build/LAN9253_D51_SQI_direct_mode/production/_ext/108134065/foeappl.o
                0x0000cfe4                FOE_Ack

.text.APP_FW_startDownload%204
                0x0000d01c       0x38
 .text.APP_FW_startDownload
                0x0000d01c       0x38 build/LAN9253_D51_SQI_direct_mode/production/_ext/108134065/sample_app.o
                0x0000d01c                APP_FW_startDownload

.text.OBJ_GetObjectHandle%205
                0x0000d054       0x36
 .text.OBJ_GetObjectHandle
                0x0000d054       0x36 build/LAN9253_D51_SQI_direct_mode/production/_ext/108134065/objdef.o
                0x0000d054                OBJ_GetObjectHandle

.text.NVMCTRL_BlockErase%206
                0x0000d08c       0x34
 .text.NVMCTRL_BlockErase
                0x0000d08c       0x34 build/LAN9253_D51_SQI_direct_mode/production/_ext/1593096446/plib_nvmctrl.o
                0x0000d08c                NVMCTRL_BlockErase

.text.qspi_memcpy_32bit%207
                0x0000d0c0       0x34
 .text.qspi_memcpy_32bit
                0x0000d0c0       0x34 build/LAN9253_D51_SQI_direct_mode/production/_ext/1865555181/plib_qspi.o

.text.qspi_memcpy_8bit%208
                0x0000d0f4       0x34
 .text.qspi_memcpy_8bit
                0x0000d0f4       0x34 build/LAN9253_D51_SQI_direct_mode/production/_ext/1865555181/plib_qspi.o

.text.FOE_ContinueInd%209
                0x0000d128       0x30
 .text.FOE_ContinueInd
                0x0000d128       0x30 build/LAN9253_D51_SQI_direct_mode/production/_ext/108134065/ecatfoe.o
                0x0000d128                FOE_ContinueInd

.text.GetSyncMan%210
                0x0000d158       0x30
 .text.GetSyncMan
                0x0000d158       0x30 build/LAN9253_D51_SQI_direct_mode/production/_ext/108134065/ecatslv.o
                0x0000d158                GetSyncMan

.text.GCLK1_Initialize%211
                0x0000d188       0x2c
 .text.GCLK1_Initialize
                0x0000d188       0x2c build/LAN9253_D51_SQI_direct_mode/production/_ext/1984496892/plib_clock.o

.text.GCLK2_Initialize%212
                0x0000d1b4       0x2c
 .text.GCLK2_Initialize
                0x0000d1b4       0x2c build/LAN9253_D51_SQI_direct_mode/production/_ext/1984496892/plib_clock.o

.text.EIC_EXTINT_0_InterruptHandler%213
                0x0000d1e0       0x2c
 .text.EIC_EXTINT_0_InterruptHandler
                0x0000d1e0       0x2c build/LAN9253_D51_SQI_direct_mode/production/_ext/60167341/plib_eic.o
                0x0000d1e0                EIC_EXTINT_0_InterruptHandler

.text.EIC_EXTINT_1_InterruptHandler%214
                0x0000d20c       0x2c
 .text.EIC_EXTINT_1_InterruptHandler
                0x0000d20c       0x2c build/LAN9253_D51_SQI_direct_mode/production/_ext/60167341/plib_eic.o
                0x0000d20c                EIC_EXTINT_1_InterruptHandler

.text.EIC_EXTINT_7_InterruptHandler%215
                0x0000d238       0x2c
 .text.EIC_EXTINT_7_InterruptHandler
                0x0000d238       0x2c build/LAN9253_D51_SQI_direct_mode/production/_ext/60167341/plib_eic.o
                0x0000d238                EIC_EXTINT_7_InterruptHandler

.text.SysTick_Handler%216
                0x0000d264       0x2c
 .text.SysTick_Handler
                0x0000d264       0x2c build/LAN9253_D51_SQI_direct_mode/production/_ext/1827571544/plib_systick.o
                0x0000d264                SysTick_Handler

.text.SQI_EnableQuadMode%217
                0x0000d290       0x2c
 .text.SQI_EnableQuadMode
                0x0000d290       0x2c build/LAN9253_D51_SQI_direct_mode/production/_ext/1671622979/Drivers.o
                0x0000d290                SQI_EnableQuadMode

.text.SQI_DisableQuadMode%218
                0x0000d2bc       0x2c
 .text.SQI_DisableQuadMode
                0x0000d2bc       0x2c build/LAN9253_D51_SQI_direct_mode/production/_ext/1671622979/Drivers.o
                0x0000d2bc                SQI_DisableQuadMode

.text.FOE_Init%219
                0x0000d2e8       0x2c
 .text.FOE_Init
                0x0000d2e8       0x2c build/LAN9253_D51_SQI_direct_mode/production/_ext/108134065/ecatfoe.o
                0x0000d2e8                FOE_Init

.text._sbrk%220
                0x0000d314       0x2c
 .text._sbrk    0x0000d314       0x2c c:/program files (x86)/microchip/xc32/v2.30/bin/bin/../../lib/gcc/pic32c/6.2.1/../../../../pic32c/lib/v7e-m/fpv4-sp/hard\libpic32c.a(sbrk.o)
                0x0000d314                _sbrk

.text.OSCCTRL_Initialize%221
                0x0000d340       0x28
 .text.OSCCTRL_Initialize
                0x0000d340       0x28 build/LAN9253_D51_SQI_direct_mode/production/_ext/1984496892/plib_clock.o

.text.NVMCTRL_IsBusy%222
                0x0000d368       0x28
 .text.NVMCTRL_IsBusy
                0x0000d368       0x28 build/LAN9253_D51_SQI_direct_mode/production/_ext/1593096446/plib_nvmctrl.o
                0x0000d368                NVMCTRL_IsBusy

.text.SYSTICK_TimerCallbackSet%223
                0x0000d390       0x28
 .text.SYSTICK_TimerCallbackSet
                0x0000d390       0x28 build/LAN9253_D51_SQI_direct_mode/production/_ext/1827571544/plib_systick.o
                0x0000d390                SYSTICK_TimerCallbackSet

.text.ESC_IRQ_cb%224
                0x0000d3b8       0x28
 .text.ESC_IRQ_cb
                0x0000d3b8       0x28 build/LAN9253_D51_SQI_direct_mode/production/_ext/1671622979/Drivers.o
                0x0000d3b8                ESC_IRQ_cb

.text.APP_FW_StateBOOTtoINIT%225
                0x0000d3e0       0x28
 .text.APP_FW_StateBOOTtoINIT
                0x0000d3e0       0x28 build/LAN9253_D51_SQI_direct_mode/production/_ext/108134065/sample_app.o
                0x0000d3e0                APP_FW_StateBOOTtoINIT

.text.HW_GetALEventRegister%226
                0x0000d408       0x26
 .text.HW_GetALEventRegister
                0x0000d408       0x26 build/LAN9253_D51_SQI_direct_mode/production/_ext/108147519/LAN925x.o
                0x0000d408                HW_GetALEventRegister

.text.SYSTICK_TimerStart%227
                0x0000d430       0x24
 .text.SYSTICK_TimerStart
                0x0000d430       0x24 build/LAN9253_D51_SQI_direct_mode/production/_ext/1827571544/plib_systick.o
                0x0000d430                SYSTICK_TimerStart

.text.TCM_Configure%228
                0x0000d454       0x24
 .text.TCM_Configure
                0x0000d454       0x24 build/LAN9253_D51_SQI_direct_mode/production/_ext/1171490990/startup_xc32.o

.text.PDI_Init_SYNC_Interrupts%229
                0x0000d478       0x24
 .text.PDI_Init_SYNC_Interrupts
                0x0000d478       0x24 build/LAN9253_D51_SQI_direct_mode/production/_ext/108147519/ESC_Utils.o
                0x0000d478                PDI_Init_SYNC_Interrupts

.text.COE_Init%230
                0x0000d49c       0x24
 .text.COE_Init
                0x0000d49c       0x24 build/LAN9253_D51_SQI_direct_mode/production/_ext/108134065/ecatcoe.o
                0x0000d49c                COE_Init

.text.StopOutputHandler%231
                0x0000d4c0       0x24
 .text.StopOutputHandler
                0x0000d4c0       0x24 build/LAN9253_D51_SQI_direct_mode/production/_ext/108134065/ecatslv.o
                0x0000d4c0                StopOutputHandler

.text.EMCY_IsQueueEmpty%232
                0x0000d4e4       0x24
 .text.EMCY_IsQueueEmpty
                0x0000d4e4       0x24 build/LAN9253_D51_SQI_direct_mode/production/_ext/108134065/emcy.o
                0x0000d4e4                EMCY_IsQueueEmpty

.text.FOE_Error%233
                0x0000d508       0x24
 .text.FOE_Error
                0x0000d508       0x24 build/LAN9253_D51_SQI_direct_mode/production/_ext/108134065/foeappl.o
                0x0000d508                FOE_Error

.text.APPL_InputMapping%234
                0x0000d52c       0x24
 .text.APPL_InputMapping
                0x0000d52c       0x24 build/LAN9253_D51_SQI_direct_mode/production/_ext/108134065/sample_app.o
                0x0000d52c                APPL_InputMapping

.text.APPL_OutputMapping%235
                0x0000d550       0x24
 .text.APPL_OutputMapping
                0x0000d550       0x24 build/LAN9253_D51_SQI_direct_mode/production/_ext/108134065/sample_app.o
                0x0000d550                APPL_OutputMapping

.text.APP_BankSwitch%236
                0x0000d574       0x24
 .text.APP_BankSwitch
                0x0000d574       0x24 build/LAN9253_D51_SQI_direct_mode/production/_ext/1360937237/app.o

.text.EMCY_ContinueInd%237
                0x0000d598       0x22
 .text.EMCY_ContinueInd
                0x0000d598       0x22 build/LAN9253_D51_SQI_direct_mode/production/_ext/108134065/emcy.o
                0x0000d598                EMCY_ContinueInd

.rodata.asEntryDesc0x1018%238
                0x0000d5bc       0x20
 .rodata.asEntryDesc0x1018
                0x0000d5bc       0x20 build/LAN9253_D51_SQI_direct_mode/production/_ext/108134065/coeappl.o
                0x0000d5bc                asEntryDesc0x1018

.text.FOE_Busy%239
                0x0000d5dc       0x20
 .text.FOE_Busy
                0x0000d5dc       0x20 build/LAN9253_D51_SQI_direct_mode/production/_ext/108134065/foeappl.o
                0x0000d5dc                FOE_Busy

.rodata.cBitMask%240
                0x0000d5fc       0x20
 .rodata.cBitMask
                0x0000d5fc       0x20 build/LAN9253_D51_SQI_direct_mode/production/_ext/108134065/objdef.o
                0x0000d5fc                cBitMask

.text._sbrk_r%241
                0x0000d61c       0x20
 .text._sbrk_r  0x0000d61c       0x20 c:/program files (x86)/microchip/xc32/v2.30/bin/bin/../../lib/gcc/pic32c/6.2.1/../../../../pic32c/lib/v7e-m/fpv4-sp/hard\libc.a(lib_a-sbrkr.o)
                0x0000d61c                _sbrk_r

.text.HW_GetALEventRegister_Isr%242
                0x0000d63c       0x1e
 .text.HW_GetALEventRegister_Isr
                0x0000d63c       0x1e build/LAN9253_D51_SQI_direct_mode/production/_ext/108147519/LAN925x.o
                0x0000d63c                HW_GetALEventRegister_Isr

.text.NVMCTRL_Initialize%243
                0x0000d65c       0x1c
 .text.NVMCTRL_Initialize
                0x0000d65c       0x1c build/LAN9253_D51_SQI_direct_mode/production/_ext/1593096446/plib_nvmctrl.o
                0x0000d65c                NVMCTRL_Initialize

.text.NVMCTRL_BankSwap%244
                0x0000d678       0x1c
 .text.NVMCTRL_BankSwap
                0x0000d678       0x1c build/LAN9253_D51_SQI_direct_mode/production/_ext/1593096446/plib_nvmctrl.o
                0x0000d678                NVMCTRL_BankSwap

.text.PORT_GroupSet%245
                0x0000d694       0x1c
 .text.PORT_GroupSet
                0x0000d694       0x1c build/LAN9253_D51_SQI_direct_mode/production/_ext/1865521619/plib_port.o
                0x0000d694                PORT_GroupSet

.text.PORT_GroupClear%246
                0x0000d6b0       0x1c
 .text.PORT_GroupClear
                0x0000d6b0       0x1c build/LAN9253_D51_SQI_direct_mode/production/_ext/1865521619/plib_port.o
                0x0000d6b0                PORT_GroupClear

.text.PORT_GroupOutputEnable%247
                0x0000d6cc       0x1c
 .text.PORT_GroupOutputEnable
                0x0000d6cc       0x1c build/LAN9253_D51_SQI_direct_mode/production/_ext/1865521619/plib_port.o
                0x0000d6cc                PORT_GroupOutputEnable

.text.qspi_end_transfer%248
                0x0000d6e8       0x1c
 .text.qspi_end_transfer
                0x0000d6e8       0x1c build/LAN9253_D51_SQI_direct_mode/production/_ext/1865555181/plib_qspi.o

.text.CRITICAL_SECTION_ENTER%249
                0x0000d704       0x1c
 .text.CRITICAL_SECTION_ENTER
                0x0000d704       0x1c build/LAN9253_D51_SQI_direct_mode/production/_ext/1671622979/Drivers.o
                0x0000d704                CRITICAL_SECTION_ENTER

.text.CRITICAL_SECTION_LEAVE%250
                0x0000d720       0x1c
 .text.CRITICAL_SECTION_LEAVE
                0x0000d720       0x1c build/LAN9253_D51_SQI_direct_mode/production/_ext/1671622979/Drivers.o
                0x0000d720                CRITICAL_SECTION_LEAVE

.text.ECAT_SysTick_Handler%251
                0x0000d73c       0x1c
 .text.ECAT_SysTick_Handler
                0x0000d73c       0x1c build/LAN9253_D51_SQI_direct_mode/production/_ext/1671622979/Drivers.o
                0x0000d73c                ECAT_SysTick_Handler

.rodata.aName0x1C12%252
                0x0000d758       0x1c
 .rodata.aName0x1C12
                0x0000d758       0x1c build/LAN9253_D51_SQI_direct_mode/production/_ext/108134065/coeappl.o
                0x0000d758                aName0x1C12

.rodata.aName0x1C13%253
                0x0000d774       0x1c
 .rodata.aName0x1C13
                0x0000d774       0x1c build/LAN9253_D51_SQI_direct_mode/production/_ext/108134065/coeappl.o
                0x0000d774                aName0x1C13

.text.OSC32KCTRL_Initialize%254
                0x0000d790       0x18
 .text.OSC32KCTRL_Initialize
                0x0000d790       0x18 build/LAN9253_D51_SQI_direct_mode/production/_ext/1984496892/plib_clock.o

.text.PDI_Init_SYSTick_Interrupt%255
                0x0000d7a8       0x18
 .text.PDI_Init_SYSTick_Interrupt
                0x0000d7a8       0x18 build/LAN9253_D51_SQI_direct_mode/production/_ext/1671622979/Drivers.o

.text.PDI_IRQ_Interrupt%256
                0x0000d7c0       0x18
 .text.PDI_IRQ_Interrupt
                0x0000d7c0       0x18 build/LAN9253_D51_SQI_direct_mode/production/_ext/108147519/ESC_Utils.o
                0x0000d7c0                PDI_IRQ_Interrupt

.text.COE_GetObjectDictionary%257
                0x0000d7d8       0x18
 .text.COE_GetObjectDictionary
                0x0000d7d8       0x18 build/LAN9253_D51_SQI_direct_mode/production/_ext/108134065/coeappl.o
                0x0000d7d8                COE_GetObjectDictionary

.text.BackToInitTransition%258
                0x0000d7f0       0x18
 .text.BackToInitTransition
                0x0000d7f0       0x18 build/LAN9253_D51_SQI_direct_mode/production/_ext/108134065/ecatslv.o
                0x0000d7f0                BackToInitTransition

.text.OBJ_GetObjDesc%259
                0x0000d808       0x18
 .text.OBJ_GetObjDesc
                0x0000d808       0x18 build/LAN9253_D51_SQI_direct_mode/production/_ext/108134065/objdef.o
                0x0000d808                OBJ_GetObjDesc

.text.APP_FW_GetDownloadStateFinished%260
                0x0000d820       0x18
 .text.APP_FW_GetDownloadStateFinished
                0x0000d820       0x18 build/LAN9253_D51_SQI_direct_mode/production/_ext/108134065/sample_app.o
                0x0000d820                APP_FW_GetDownloadStateFinished

.text.APP_Initialize%261
                0x0000d838       0x18
 .text.APP_Initialize
                0x0000d838       0x18 build/LAN9253_D51_SQI_direct_mode/production/_ext/1360937237/app.o
                0x0000d838                APP_Initialize

.text.BL_Start%262
                0x0000d850       0x16
 .text.BL_Start
                0x0000d850       0x16 build/LAN9253_D51_SQI_direct_mode/production/_ext/108134065/bootmode.o
                0x0000d850                BL_Start

.text.EMCY_GetEmcyBuffer%263
                0x0000d866       0x16
 .text.EMCY_GetEmcyBuffer
                0x0000d866       0x16 build/LAN9253_D51_SQI_direct_mode/production/_ext/108134065/emcy.o
                0x0000d866                EMCY_GetEmcyBuffer

.text.APPL_AckErrorInd%264
                0x0000d87c       0x16
 .text.APPL_AckErrorInd
                0x0000d87c       0x16 build/LAN9253_D51_SQI_direct_mode/production/_ext/108134065/sample_app.o
                0x0000d87c                APPL_AckErrorInd

.text.APPL_StartInputHandler%265
                0x0000d892       0x16
 .text.APPL_StartInputHandler
                0x0000d892       0x16 build/LAN9253_D51_SQI_direct_mode/production/_ext/108134065/sample_app.o
                0x0000d892                APPL_StartInputHandler

.text.memcpy%266
                0x0000d8a8       0x16
 .text.memcpy   0x0000d8a8       0x16 c:/program files (x86)/microchip/xc32/v2.30/bin/bin/../../lib/gcc/pic32c/6.2.1/../../../../pic32c/lib/v7e-m/fpv4-sp/hard\libc.a(lib_a-memcpy-stub.o)
                0x0000d8a8                memcpy

.text.ESC_Sync0_cb%267
                0x0000d8be       0x14
 .text.ESC_Sync0_cb
                0x0000d8be       0x14 build/LAN9253_D51_SQI_direct_mode/production/_ext/1671622979/Drivers.o
                0x0000d8be                ESC_Sync0_cb

.text.ESC_Sync1_cb%268
                0x0000d8d2       0x14
 .text.ESC_Sync1_cb
                0x0000d8d2       0x14 build/LAN9253_D51_SQI_direct_mode/production/_ext/1671622979/Drivers.o
                0x0000d8d2                ESC_Sync1_cb

.rodata.aName0x1009%269
                0x0000d8e8       0x14
 .rodata.aName0x1009
                0x0000d8e8       0x14 build/LAN9253_D51_SQI_direct_mode/production/_ext/108134065/coeappl.o
                0x0000d8e8                aName0x1009

.rodata.aName0x100A%270
                0x0000d8fc       0x14
 .rodata.aName0x100A
                0x0000d8fc       0x14 build/LAN9253_D51_SQI_direct_mode/production/_ext/108134065/coeappl.o
                0x0000d8fc                aName0x100A

.rodata.asEntryDesc0x10F1%271
                0x0000d910       0x14
 .rodata.asEntryDesc0x10F1
                0x0000d910       0x14 build/LAN9253_D51_SQI_direct_mode/production/_ext/108134065/coeappl.o
                0x0000d910                asEntryDesc0x10F1

.rodata.aName0x10F8%272
                0x0000d924       0x14
 .rodata.aName0x10F8
                0x0000d924       0x14 build/LAN9253_D51_SQI_direct_mode/production/_ext/108134065/coeappl.o
                0x0000d924                aName0x10F8

.rodata.aName0x1C00%273
                0x0000d938       0x14
 .rodata.aName0x1C00
                0x0000d938       0x14 build/LAN9253_D51_SQI_direct_mode/production/_ext/108134065/coeappl.o
                0x0000d938                aName0x1C00

.rodata.aName0x1001%274
                0x0000d94c       0x10
 .rodata.aName0x1001
                0x0000d94c       0x10 build/LAN9253_D51_SQI_direct_mode/production/_ext/108134065/coeappl.o
                0x0000d94c                aName0x1001

.text.APPL_StartMailboxHandler%275
                0x0000d95c       0x10
 .text.APPL_StartMailboxHandler
                0x0000d95c       0x10 build/LAN9253_D51_SQI_direct_mode/production/_ext/108134065/sample_app.o
                0x0000d95c                APPL_StartMailboxHandler

.text.APPL_StopInputHandler%276
                0x0000d96c       0x10
 .text.APPL_StopInputHandler
                0x0000d96c       0x10 build/LAN9253_D51_SQI_direct_mode/production/_ext/108134065/sample_app.o
                0x0000d96c                APPL_StopInputHandler

.text.APPL_StartOutputHandler%277
                0x0000d97c       0x10
 .text.APPL_StartOutputHandler
                0x0000d97c       0x10 build/LAN9253_D51_SQI_direct_mode/production/_ext/108134065/sample_app.o
                0x0000d97c                APPL_StartOutputHandler

.text.APPL_StopOutputHandler%278
                0x0000d98c       0x10
 .text.APPL_StopOutputHandler
                0x0000d98c       0x10 build/LAN9253_D51_SQI_direct_mode/production/_ext/108134065/sample_app.o
                0x0000d98c                APPL_StopOutputHandler

.text.main%279  0x0000d99c       0x10
 .text.main     0x0000d99c       0x10 build/LAN9253_D51_SQI_direct_mode/production/_ext/1360937237/main.o
                0x0000d99c                main

.text.malloc%280
                0x0000d9ac       0x10
 .text.malloc   0x0000d9ac       0x10 c:/program files (x86)/microchip/xc32/v2.30/bin/bin/../../lib/gcc/pic32c/6.2.1/../../../../pic32c/lib/v7e-m/fpv4-sp/hard\libc.a(lib_a-malloc.o)
                0x0000d9ac                malloc

.text.free%281  0x0000d9bc       0x10
 .text.free     0x0000d9bc       0x10 c:/program files (x86)/microchip/xc32/v2.30/bin/bin/../../lib/gcc/pic32c/6.2.1/../../../../pic32c/lib/v7e-m/fpv4-sp/hard\libc.a(lib_a-malloc.o)
                0x0000d9bc                free

.text.memset%282
                0x0000d9cc       0x10
 .text.memset   0x0000d9cc       0x10 c:/program files (x86)/microchip/xc32/v2.30/bin/bin/../../lib/gcc/pic32c/6.2.1/../../../../pic32c/lib/v7e-m/fpv4-sp/hard\libc.a(lib_a-memset.o)
                0x0000d9cc                memset

.text%283       0x0000d9dc       0x10
 .text          0x0000d9dc       0x10 c:/program files (x86)/microchip/xc32/v2.30/bin/bin/../../lib/gcc/pic32c/6.2.1/../../../../pic32c/lib/v7e-m/fpv4-sp/hard\libc.a(lib_a-strlen.o)
                0x0000d9dc                strlen

.text.DFLL_Initialize%284
                0x0000d9ec        0xe
 .text.DFLL_Initialize
                0x0000d9ec        0xe build/LAN9253_D51_SQI_direct_mode/production/_ext/1984496892/plib_clock.o

.text.DMAC_0_Handler%285
                0x0000d9fa        0xe
 .text.DMAC_0_Handler
                0x0000d9fa        0xe build/LAN9253_D51_SQI_direct_mode/production/_ext/1865161661/plib_dmac.o
                0x0000d9fa                DMAC_0_Handler

.text.DMAC_1_Handler%286
                0x0000da08        0xe
 .text.DMAC_1_Handler
                0x0000da08        0xe build/LAN9253_D51_SQI_direct_mode/production/_ext/1865161661/plib_dmac.o
                0x0000da08                DMAC_1_Handler

.text.EVSYS_Initialize%287
                0x0000da16        0xe
 .text.EVSYS_Initialize
                0x0000da16        0xe build/LAN9253_D51_SQI_direct_mode/production/_ext/1986646378/plib_evsys.o
                0x0000da16                EVSYS_Initialize

.text.BL_Stop%288
                0x0000da24        0xe
 .text.BL_Stop  0x0000da24        0xe build/LAN9253_D51_SQI_direct_mode/production/_ext/108134065/bootmode.o
                0x0000da24                BL_Stop

.text.APPL_StopMailboxHandler%289
                0x0000da32        0xe
 .text.APPL_StopMailboxHandler
                0x0000da32        0xe build/LAN9253_D51_SQI_direct_mode/production/_ext/108134065/sample_app.o
                0x0000da32                APPL_StopMailboxHandler

.text.SYS_Tasks%290
                0x0000da40        0xc
 .text.SYS_Tasks
                0x0000da40        0xc build/LAN9253_D51_SQI_direct_mode/production/_ext/1171490990/tasks.o
                0x0000da40                SYS_Tasks

.text.PDI_Timer_Interrupt%291
                0x0000da4c        0xc
 .text.PDI_Timer_Interrupt
                0x0000da4c        0xc build/LAN9253_D51_SQI_direct_mode/production/_ext/1671622979/Drivers.o
                0x0000da4c                PDI_Timer_Interrupt

.text.ESC_Init%292
                0x0000da58        0xc
 .text.ESC_Init
                0x0000da58        0xc build/LAN9253_D51_SQI_direct_mode/production/_ext/108147519/ESC_Utils.o
                0x0000da58                ESC_Init

.rodata.asEntryDesc0x1C12%293
                0x0000da64        0xc
 .rodata.asEntryDesc0x1C12
                0x0000da64        0xc build/LAN9253_D51_SQI_direct_mode/production/_ext/108134065/coeappl.o
                0x0000da64                asEntryDesc0x1C12

.rodata.asEntryDesc0x1C13%294
                0x0000da70        0xc
 .rodata.asEntryDesc0x1C13
                0x0000da70        0xc build/LAN9253_D51_SQI_direct_mode/production/_ext/108134065/coeappl.o
                0x0000da70                asEntryDesc0x1C13

.rodata.aName0x1000%295
                0x0000da7c        0xc
 .rodata.aName0x1000
                0x0000da7c        0xc build/LAN9253_D51_SQI_direct_mode/production/_ext/108134065/coeappl.o
                0x0000da7c                aName0x1000

.rodata.aName0x1008%296
                0x0000da88        0xc
 .rodata.aName0x1008
                0x0000da88        0xc build/LAN9253_D51_SQI_direct_mode/production/_ext/108134065/coeappl.o
                0x0000da88                aName0x1008

.rodata.asEntryDesc0x1C00%297
                0x0000da94        0xc
 .rodata.asEntryDesc0x1C00
                0x0000da94        0xc build/LAN9253_D51_SQI_direct_mode/production/_ext/108134065/coeappl.o
                0x0000da94                asEntryDesc0x1C00

.rodata.sEntryDesc0x1000%298
                0x0000daa0        0x8
 .rodata.sEntryDesc0x1000
                0x0000daa0        0x8 build/LAN9253_D51_SQI_direct_mode/production/_ext/108134065/coeappl.o
                0x0000daa0                sEntryDesc0x1000

.rodata.sEntryDesc0x1001%299
                0x0000daa8        0x8
 .rodata.sEntryDesc0x1001
                0x0000daa8        0x8 build/LAN9253_D51_SQI_direct_mode/production/_ext/108134065/coeappl.o
                0x0000daa8                sEntryDesc0x1001

.rodata.sEntryDesc0x1008%300
                0x0000dab0        0x8
 .rodata.sEntryDesc0x1008
                0x0000dab0        0x8 build/LAN9253_D51_SQI_direct_mode/production/_ext/108134065/coeappl.o
                0x0000dab0                sEntryDesc0x1008

.rodata.sEntryDesc0x1009%301
                0x0000dab8        0x8
 .rodata.sEntryDesc0x1009
                0x0000dab8        0x8 build/LAN9253_D51_SQI_direct_mode/production/_ext/108134065/coeappl.o
                0x0000dab8                sEntryDesc0x1009

.rodata.sEntryDesc0x100A%302
                0x0000dac0        0x8
 .rodata.sEntryDesc0x100A
                0x0000dac0        0x8 build/LAN9253_D51_SQI_direct_mode/production/_ext/108134065/coeappl.o
                0x0000dac0                sEntryDesc0x100A

.rodata.sEntryDesc0x10F8%303
                0x0000dac8        0x8
 .rodata.sEntryDesc0x10F8
                0x0000dac8        0x8 build/LAN9253_D51_SQI_direct_mode/production/_ext/108134065/coeappl.o
                0x0000dac8                sEntryDesc0x10F8

.rodata.acEmcyCoeHeader%304
                0x0000dad0        0x8
 .rodata.acEmcyCoeHeader
                0x0000dad0        0x8 build/LAN9253_D51_SQI_direct_mode/production/_ext/108134065/emcy.o
                0x0000dad0                acEmcyCoeHeader

.text.NonMaskableInt_Handler%305
                0x0000dad8        0x6
 .text.NonMaskableInt_Handler
                0x0000dad8        0x6 build/LAN9253_D51_SQI_direct_mode/production/_ext/1171490990/exceptions.o
                0x0000dad8                NonMaskableInt_Handler

.text.HardFault_Handler%306
                0x0000dade        0x6
 .text.HardFault_Handler
                0x0000dade        0x6 build/LAN9253_D51_SQI_direct_mode/production/_ext/1171490990/exceptions.o
                0x0000dade                HardFault_Handler

.text.DebugMonitor_Handler%307
                0x0000dae4        0x6
 .text.DebugMonitor_Handler
                0x0000dae4        0x6 build/LAN9253_D51_SQI_direct_mode/production/_ext/1171490990/exceptions.o
                0x0000dae4                DebugMonitor_Handler

.text.MemoryManagement_Handler%308
                0x0000daea        0x6
 .text.MemoryManagement_Handler
                0x0000daea        0x6 build/LAN9253_D51_SQI_direct_mode/production/_ext/1171490990/exceptions.o
                0x0000daea                MemoryManagement_Handler

.text.BusFault_Handler%309
                0x0000daf0        0x6
 .text.BusFault_Handler
                0x0000daf0        0x6 build/LAN9253_D51_SQI_direct_mode/production/_ext/1171490990/exceptions.o
                0x0000daf0                BusFault_Handler

.text.UsageFault_Handler%310
                0x0000daf6        0x6
 .text.UsageFault_Handler
                0x0000daf6        0x6 build/LAN9253_D51_SQI_direct_mode/production/_ext/1171490990/exceptions.o
                0x0000daf6                UsageFault_Handler

.rodata%311     0x0000dafc        0x4
 .rodata        0x0000dafc        0x4 build/LAN9253_D51_SQI_direct_mode/production/_ext/108134065/sample_app.o

.text.Dummy_Handler%312
                0x0000a3aa        0x2
 .text.Dummy_Handler
                0x0000a3aa        0x2 build/LAN9253_D51_SQI_direct_mode/production/_ext/1171490990/interrupts.o
                0x0000a3aa                EIC_EXTINT_9_Handler
                0x0000a3aa                TCC0_MC5_Handler
                0x0000a3aa                SVCall_Handler
                0x0000a3aa                SERCOM0_2_Handler
                0x0000a3aa                USB_SOF_HSOF_Handler
                0x0000a3aa                TCC4_OTHER_Handler
                0x0000a3aa                TCC2_MC2_Handler
                0x0000a3aa                EVSYS_0_Handler
                0x0000a3aa                TRNG_Handler
                0x0000a3aa                TC2_Handler
                0x0000a3aa                USB_TRCPT0_Handler
                0x0000a3aa                DAC_OTHER_Handler
                0x0000a3aa                AC_Handler
                0x0000a3aa                DAC_EMPTY_0_Handler
                0x0000a3aa                DMAC_OTHER_Handler
                0x0000a3aa                EIC_EXTINT_5_Handler
                0x0000a3aa                SERCOM3_1_Handler
                0x0000a3aa                SERCOM4_OTHER_Handler
                0x0000a3aa                SERCOM3_2_Handler
                0x0000a3aa                EIC_EXTINT_6_Handler
                0x0000a3aa                PendSV_Handler
                0x0000a3aa                TCC4_MC0_Handler
                0x0000a3aa                EVSYS_3_Handler
                0x0000a3aa                QSPI_Handler
                0x0000a3aa                TCC2_MC0_Handler
                0x0000a3aa                PDEC_OTHER_Handler
                0x0000a3aa                TCC3_MC0_Handler
                0x0000a3aa                PDEC_MC1_Handler
                0x0000a3aa                TCC2_MC1_Handler
                0x0000a3aa                OSCCTRL_XOSC1_Handler
                0x0000a3aa                PDEC_MC0_Handler
                0x0000a3aa                EIC_EXTINT_4_Handler
                0x0000a3aa                SERCOM0_OTHER_Handler
                0x0000a3aa                EVSYS_OTHER_Handler
                0x0000a3aa                SERCOM0_0_Handler
                0x0000a3aa                RTC_Handler
                0x0000a3aa                SERCOM4_0_Handler
                0x0000a3aa                TCC1_MC0_Handler
                0x0000a3aa                SERCOM1_OTHER_Handler
                0x0000a3aa                TCC2_OTHER_Handler
                0x0000a3aa                EIC_EXTINT_11_Handler
                0x0000a3aa                SUPC_BODDET_Handler
                0x0000a3aa                EIC_EXTINT_14_Handler
                0x0000a3aa                OSC32KCTRL_Handler
                0x0000a3aa                EVSYS_1_Handler
                0x0000a3aa                TCC4_MC1_Handler
                0x0000a3aa                SUPC_OTHER_Handler
                0x0000a3aa                WDT_Handler
                0x0000a3aa                EIC_EXTINT_15_Handler
                0x0000a3aa                TCC3_MC1_Handler
                0x0000a3aa                SERCOM5_0_Handler
                0x0000a3aa                TC4_Handler
                0x0000a3aa                TC1_Handler
                0x0000a3aa                TCC1_MC1_Handler
                0x0000a3aa                TCC1_OTHER_Handler
                0x0000a3aa                PAC_Handler
                0x0000a3aa                SERCOM4_1_Handler
                0x0000a3aa                TC3_Handler
                0x0000a3aa                Dummy_Handler
                0x0000a3aa                DAC_RESRDY_0_Handler
                0x0000a3aa                SERCOM5_1_Handler
                0x0000a3aa                DMAC_2_Handler
                0x0000a3aa                TCC0_MC4_Handler
                0x0000a3aa                USB_TRCPT1_Handler
                0x0000a3aa                SERCOM0_1_Handler
                0x0000a3aa                TCC0_MC3_Handler
                0x0000a3aa                EIC_EXTINT_12_Handler
                0x0000a3aa                OSCCTRL_DPLL0_Handler
                0x0000a3aa                SERCOM5_OTHER_Handler
                0x0000a3aa                PM_Handler
                0x0000a3aa                OSCCTRL_DFLL_Handler
                0x0000a3aa                DAC_RESRDY_1_Handler
                0x0000a3aa                USB_OTHER_Handler
                0x0000a3aa                TCC0_OTHER_Handler
                0x0000a3aa                EIC_EXTINT_10_Handler
                0x0000a3aa                TCC1_MC3_Handler
                0x0000a3aa                OSCCTRL_XOSC0_Handler
                0x0000a3aa                TCC0_MC0_Handler
                0x0000a3aa                EIC_EXTINT_2_Handler
                0x0000a3aa                SDHC0_Handler
                0x0000a3aa                SERCOM1_1_Handler
                0x0000a3aa                I2S_Handler
                0x0000a3aa                PCC_Handler
                0x0000a3aa                TCC3_OTHER_Handler
                0x0000a3aa                EIC_EXTINT_13_Handler
                0x0000a3aa                SERCOM1_0_Handler
                0x0000a3aa                PUKCC_Handler
                0x0000a3aa                SERCOM2_1_Handler
                0x0000a3aa                SERCOM1_2_Handler
                0x0000a3aa                SERCOM3_0_Handler
                0x0000a3aa                SERCOM4_2_Handler
                0x0000a3aa                TCC1_MC2_Handler
                0x0000a3aa                ADC1_RESRDY_Handler
                0x0000a3aa                NVMCTRL_1_Handler
                0x0000a3aa                SERCOM5_2_Handler
                0x0000a3aa                SERCOM2_2_Handler
                0x0000a3aa                DAC_EMPTY_1_Handler
                0x0000a3aa                ADC1_OTHER_Handler
                0x0000a3aa                OSCCTRL_DPLL1_Handler
                0x0000a3aa                EIC_EXTINT_3_Handler
                0x0000a3aa                SERCOM3_OTHER_Handler
                0x0000a3aa                EIC_EXTINT_8_Handler
                0x0000a3aa                NVMCTRL_0_Handler
                0x0000a3aa                ADC0_RESRDY_Handler
                0x0000a3aa                ADC0_OTHER_Handler
                0x0000a3aa                MCLK_Handler
                0x0000a3aa                EVSYS_2_Handler
                0x0000a3aa                SERCOM2_OTHER_Handler
                0x0000a3aa                FREQM_Handler
                0x0000a3aa                TC0_Handler
                0x0000a3aa                TCC0_MC1_Handler
                0x0000a3aa                DMAC_3_Handler
                0x0000a3aa                RAMECC_Handler
                0x0000a3aa                TC5_Handler
                0x0000a3aa                SERCOM2_0_Handler
                0x0000a3aa                AES_Handler
                0x0000a3aa                ICM_Handler
                0x0000a3aa                TCC0_MC2_Handler

.text.__malloc_lock%313
                0x0000a63a        0x2
 .text.__malloc_lock
                0x0000a63a        0x2 c:/program files (x86)/microchip/xc32/v2.30/bin/bin/../../lib/gcc/pic32c/6.2.1/../../../../pic32c/lib/v7e-m/fpv4-sp/hard\libc.a(lib_a-mlock.o)
                0x0000a63a                __malloc_lock

.text.__malloc_unlock%314
                0x0000b5b2        0x2
 .text.__malloc_unlock
                0x0000b5b2        0x2 c:/program files (x86)/microchip/xc32/v2.30/bin/bin/../../lib/gcc/pic32c/6.2.1/../../../../pic32c/lib/v7e-m/fpv4-sp/hard\libc.a(lib_a-mlock.o)
                0x0000b5b2                __malloc_unlock
