Archive member included to satisfy reference by file (symbol)

c:/program files (x86)/microchip/xc32/v2.30/bin/bin/../../lib/gcc/pic32c/6.2.1/../../../../pic32c/lib/v7e-m/fpv4-sp/hard\libpic32c.a(data_init.o)
                              build/LAN9253_D51_SPI_direct_mode/production/_ext/1171490990/startup_xc32.o (__pic32c_data_initialization)
c:/program files (x86)/microchip/xc32/v2.30/bin/bin/../../lib/gcc/pic32c/6.2.1/../../../../pic32c/lib/v7e-m/fpv4-sp/hard\libc.a(lib_a-init.o)
                              build/LAN9253_D51_SPI_direct_mode/production/_ext/1171490990/startup_xc32.o (__libc_init_array)
c:/program files (x86)/microchip/xc32/v2.30/bin/bin/../../lib/gcc/pic32c/6.2.1/../../../../pic32c/lib/v7e-m/fpv4-sp/hard\libc.a(lib_a-malloc.o)
                              build/LAN9253_D51_SPI_direct_mode/production/_ext/108134065/ecatcoe.o (malloc)
c:/program files (x86)/microchip/xc32/v2.30/bin/bin/../../lib/gcc/pic32c/6.2.1/../../../../pic32c/lib/v7e-m/fpv4-sp/hard\libc.a(lib_a-mallocr.o)
                              c:/program files (x86)/microchip/xc32/v2.30/bin/bin/../../lib/gcc/pic32c/6.2.1/../../../../pic32c/lib/v7e-m/fpv4-sp/hard\libc.a(lib_a-malloc.o) (_malloc_r)
c:/program files (x86)/microchip/xc32/v2.30/bin/bin/../../lib/gcc/pic32c/6.2.1/../../../../pic32c/lib/v7e-m/fpv4-sp/hard\libc.a(lib_a-memcpy-stub.o)
                              build/LAN9253_D51_SPI_direct_mode/production/_ext/1593096446/plib_nvmctrl.o (memcpy)
c:/program files (x86)/microchip/xc32/v2.30/bin/bin/../../lib/gcc/pic32c/6.2.1/../../../../pic32c/lib/v7e-m/fpv4-sp/hard\libc.a(lib_a-memset.o)
                              build/LAN9253_D51_SPI_direct_mode/production/_ext/1671622979/Drivers.o (memset)
c:/program files (x86)/microchip/xc32/v2.30/bin/bin/../../lib/gcc/pic32c/6.2.1/../../../../pic32c/lib/v7e-m/fpv4-sp/hard\libc.a(lib_a-mlock.o)
                              c:/program files (x86)/microchip/xc32/v2.30/bin/bin/../../lib/gcc/pic32c/6.2.1/../../../../pic32c/lib/v7e-m/fpv4-sp/hard\libc.a(lib_a-mallocr.o) (__malloc_lock)
c:/program files (x86)/microchip/xc32/v2.30/bin/bin/../../lib/gcc/pic32c/6.2.1/../../../../pic32c/lib/v7e-m/fpv4-sp/hard\libc.a(lib_a-sbrkr.o)
                              c:/program files (x86)/microchip/xc32/v2.30/bin/bin/../../lib/gcc/pic32c/6.2.1/../../../../pic32c/lib/v7e-m/fpv4-sp/hard\libc.a(lib_a-mallocr.o) (_sbrk_r)
c:/program files (x86)/microchip/xc32/v2.30/bin/bin/../../lib/gcc/pic32c/6.2.1/../../../../pic32c/lib/v7e-m/fpv4-sp/hard\libc.a(lib_a-strlen.o)
                              build/LAN9253_D51_SPI_direct_mode/production/_ext/108134065/objdef.o (strlen)
c:/program files (x86)/microchip/xc32/v2.30/bin/bin/../../lib/gcc/pic32c/6.2.1/../../../../pic32c/lib/v7e-m/fpv4-sp/hard\libc.a(lib_a-freer.o)
                              c:/program files (x86)/microchip/xc32/v2.30/bin/bin/../../lib/gcc/pic32c/6.2.1/../../../../pic32c/lib/v7e-m/fpv4-sp/hard\libc.a(lib_a-malloc.o) (_free_r)
c:/program files (x86)/microchip/xc32/v2.30/bin/bin/../../lib/gcc/pic32c/6.2.1/../../../../pic32c/lib/v7e-m/fpv4-sp/hard\libc.a(lib_a-impure.o)
                              c:/program files (x86)/microchip/xc32/v2.30/bin/bin/../../lib/gcc/pic32c/6.2.1/../../../../pic32c/lib/v7e-m/fpv4-sp/hard\libc.a(lib_a-malloc.o) (_impure_ptr)
c:/program files (x86)/microchip/xc32/v2.30/bin/bin/../../lib/gcc/pic32c/6.2.1/../../../../pic32c/lib/v7e-m/fpv4-sp/hard\libc.a(lib_a-reent.o)
                              c:/program files (x86)/microchip/xc32/v2.30/bin/bin/../../lib/gcc/pic32c/6.2.1/../../../../pic32c/lib/v7e-m/fpv4-sp/hard\libc.a(lib_a-sbrkr.o) (errno)
c:/program files (x86)/microchip/xc32/v2.30/bin/bin/../../lib/gcc/pic32c/6.2.1/../../../../pic32c/lib/v7e-m/fpv4-sp/hard\libpic32c.a(sbrk.o)
                              c:/program files (x86)/microchip/xc32/v2.30/bin/bin/../../lib/gcc/pic32c/6.2.1/../../../../pic32c/lib/v7e-m/fpv4-sp/hard\libc.a(lib_a-sbrkr.o) (_sbrk)

Allocating common symbols
Common symbol       size              file

b3BufferMode        0x1               build/LAN9253_D51_SPI_direct_mode/production/_ext/108134065/ecatslv.o
nEcatStateTrans     0x2               build/LAN9253_D51_SPI_direct_mode/production/_ext/108134065/ecatslv.o
EcatWdCounter       0x2               build/LAN9253_D51_SPI_direct_mode/production/_ext/108134065/ecatslv.o
sSendEmcyQueue      0x10              build/LAN9253_D51_SPI_direct_mode/production/_ext/108134065/emcy.o
bApplEsmPending     0x1               build/LAN9253_D51_SPI_direct_mode/production/_ext/108134065/ecatslv.o
pCoeSendStored      0x4               build/LAN9253_D51_SPI_direct_mode/production/_ext/108134065/ecatcoe.o
pAPPL_EEPROM_Store  0x4               build/LAN9253_D51_SPI_direct_mode/production/_ext/108134065/ecatappl.o
nSdoInfoIndex       0x2               build/LAN9253_D51_SPI_direct_mode/production/_ext/108134065/sdoserv.o
pStoreData          0x4               build/LAN9253_D51_SPI_direct_mode/production/_ext/108134065/sdoserv.o
u8MbxReadCounter    0x1               build/LAN9253_D51_SPI_direct_mode/production/_ext/108134065/mailbox.o
nAlStatus           0x1               build/LAN9253_D51_SPI_direct_mode/production/_ext/108134065/ecatslv.o
nPdOutputSize       0x2               build/LAN9253_D51_SPI_direct_mode/production/_ext/108134065/ecatslv.o
u32FileOffset       0x4               build/LAN9253_D51_SPI_direct_mode/production/_ext/108134065/ecatfoe.o
u16LocalErrorCode   0x2               build/LAN9253_D51_SPI_direct_mode/production/_ext/108134065/ecatslv.o
nSdoSegBytesToHandle
                    0x4               build/LAN9253_D51_SPI_direct_mode/production/_ext/108134065/sdoserv.o
errno               0x4               c:/program files (x86)/microchip/xc32/v2.30/bin/bin/../../lib/gcc/pic32c/6.2.1/../../../../pic32c/lib/v7e-m/fpv4-sp/hard\libc.a(lib_a-reent.o)
sMbxSendQueue       0x34              build/LAN9253_D51_SPI_direct_mode/production/_ext/108134065/mailbox.o
gEscALEvent         0x2               build/LAN9253_D51_SPI_direct_mode/production/_ext/108147519/LAN925x.o
sMbxReceiveQueue    0x34              build/LAN9253_D51_SPI_direct_mode/production/_ext/108134065/mailbox.o
bNoMbxMemoryAvailable
                    0x1               build/LAN9253_D51_SPI_direct_mode/production/_ext/108134065/mailbox.o
u16FileAccessState  0x2               build/LAN9253_D51_SPI_direct_mode/production/_ext/108134065/ecatfoe.o
Sync0WdCounter      0x2               build/LAN9253_D51_SPI_direct_mode/production/_ext/108134065/ecatslv.o
u32PacketNo         0x4               build/LAN9253_D51_SPI_direct_mode/production/_ext/108134065/ecatfoe.o
bMinCycleTimeMeasurementStarted
                    0x1               build/LAN9253_D51_SPI_direct_mode/production/_ext/108134065/ecatappl.o
bLocalErrorFlag     0x1               build/LAN9253_D51_SPI_direct_mode/production/_ext/108134065/ecatslv.o
bSendMbxIsFull      0x1               build/LAN9253_D51_SPI_direct_mode/production/_ext/108134065/mailbox.o
u32CycleTimeStartValue
                    0x4               build/LAN9253_D51_SPI_direct_mode/production/_ext/108134065/ecatappl.o
LatchInputSync0Counter
                    0x2               build/LAN9253_D51_SPI_direct_mode/production/_ext/108134065/ecatslv.o
i16WaitForPllRunningCnt
                    0x2               build/LAN9253_D51_SPI_direct_mode/production/_ext/108134065/ecatslv.o
nEscAddrOutputData  0x2               build/LAN9253_D51_SPI_direct_mode/production/_ext/108134065/ecatslv.o
bMbxRunning         0x1               build/LAN9253_D51_SPI_direct_mode/production/_ext/108134065/mailbox.o
aFileData           0x2000            build/LAN9253_D51_SPI_direct_mode/production/_ext/108134065/sample_app.o
Sync0WdValue        0x2               build/LAN9253_D51_SPI_direct_mode/production/_ext/108134065/ecatslv.o
u8EcatRunLed        0x1               build/LAN9253_D51_SPI_direct_mode/production/_ext/108134065/ecatslv.o
i16WaitForPllRunningTimeout
                    0x2               build/LAN9253_D51_SPI_direct_mode/production/_ext/108134065/ecatslv.o
bSdoSegAccess       0x1               build/LAN9253_D51_SPI_direct_mode/production/_ext/108134065/sdoserv.o
pAPPL_EEPROM_Read   0x4               build/LAN9253_D51_SPI_direct_mode/production/_ext/108134065/ecatappl.o
Sync1WdValue        0x2               build/LAN9253_D51_SPI_direct_mode/production/_ext/108134065/ecatslv.o
pAPPL_EEPROM_Write  0x4               build/LAN9253_D51_SPI_direct_mode/production/_ext/108134065/ecatappl.o
bSdoSegFollows      0x1               build/LAN9253_D51_SPI_direct_mode/production/_ext/108134065/sdoserv.o
nSdoSegCompleteSize
                    0x4               build/LAN9253_D51_SPI_direct_mode/production/_ext/108134065/sdoserv.o
u16ALEventMask      0x2               build/LAN9253_D51_SPI_direct_mode/production/_ext/108134065/ecatslv.o
pSdoPendFunc        0x4               build/LAN9253_D51_SPI_direct_mode/production/_ext/108134065/sdoserv.o
bDcRunning          0x1               build/LAN9253_D51_SPI_direct_mode/production/_ext/108134065/ecatslv.o
u32dummy            0x4               build/LAN9253_D51_SPI_direct_mode/production/_ext/108134065/ecatslv.o
bRunApplication     0x1               build/LAN9253_D51_SPI_direct_mode/production/_ext/108134065/ecatappl.o
u16EscAddrReceiveMbx
                    0x2               build/LAN9253_D51_SPI_direct_mode/production/_ext/108134065/mailbox.o
psStoreMbx          0x4               build/LAN9253_D51_SPI_direct_mode/production/_ext/108134065/mailbox.o
SyncManInfo         0x8               build/LAN9253_D51_SPI_direct_mode/production/_ext/108134065/ecatslv.o
b32BitDc            0x1               build/LAN9253_D51_SPI_direct_mode/production/_ext/108134065/ecatslv.o
u32SystemTimeReadFailure
                    0x4               build/LAN9253_D51_SPI_direct_mode/production/_ext/108134065/ecatappl.o
u8PendingSdo        0x1               build/LAN9253_D51_SPI_direct_mode/production/_ext/108134065/sdoserv.o
appData             0x1               build/LAN9253_D51_SPI_direct_mode/production/_ext/1360937237/app.o
LatchInputSync0Value
                    0x2               build/LAN9253_D51_SPI_direct_mode/production/_ext/108134065/ecatslv.o
u16SendMbxSize      0x2               build/LAN9253_D51_SPI_direct_mode/production/_ext/108134065/mailbox.o
bEcatWaitForAlControlRes
                    0x1               build/LAN9253_D51_SPI_direct_mode/production/_ext/108134065/ecatslv.o
psReadMbx           0x4               build/LAN9253_D51_SPI_direct_mode/production/_ext/108134065/mailbox.o
bEcatWaitForInputUpdate
                    0x1               build/LAN9253_D51_SPI_direct_mode/production/_ext/108134065/ecatappl.o
sSyncManInPar       0x44              build/LAN9253_D51_SPI_direct_mode/production/_ext/108134065/objdef.o
nPdInputSize        0x2               build/LAN9253_D51_SPI_direct_mode/production/_ext/108134065/ecatslv.o
u32MinCycleTimeValue
                    0x4               build/LAN9253_D51_SPI_direct_mode/production/_ext/108134065/ecatappl.o
gau8DmaBuff         0x800             build/LAN9253_D51_SPI_direct_mode/production/_ext/1671622979/Drivers.o
u16SmSync0Value     0x2               build/LAN9253_D51_SPI_direct_mode/production/_ext/108134065/ecatslv.o
bStoreCompleteAccess
                    0x1               build/LAN9253_D51_SPI_direct_mode/production/_ext/108134065/sdoserv.o
aPdOutputData       0x900             build/LAN9253_D51_SPI_direct_mode/production/_ext/108134065/ecatappl.o
bSdoSegLastToggle   0x1               build/LAN9253_D51_SPI_direct_mode/production/_ext/108134065/sdoserv.o
handle              0x4               build/LAN9253_D51_SPI_direct_mode/production/_ext/1171490990/initialization.o
eicCallbackObject   0xc0              build/LAN9253_D51_SPI_direct_mode/production/_ext/60167341/plib_eic.o
nSdoSegService      0x1               build/LAN9253_D51_SPI_direct_mode/production/_ext/108134065/sdoserv.o
bReceiveMbxIsLocked
                    0x1               build/LAN9253_D51_SPI_direct_mode/production/_ext/108134065/mailbox.o
pAPPL_FoeError      0x4               build/LAN9253_D51_SPI_direct_mode/production/_ext/108134065/ecatappl.o
u16EscAddrSendMbx   0x2               build/LAN9253_D51_SPI_direct_mode/production/_ext/108134065/mailbox.o
u16EepromStoreTimeoutCounter
                    0x2               build/LAN9253_D51_SPI_direct_mode/production/_ext/108134065/ecatappl.o
sysObj              0x4               build/LAN9253_D51_SPI_direct_mode/production/_ext/1171490990/initialization.o
nMaxEscAddress      0x2               build/LAN9253_D51_SPI_direct_mode/production/_ext/108134065/ecatslv.o
bEcatFirstOutputsReceived
                    0x1               build/LAN9253_D51_SPI_direct_mode/production/_ext/108134065/ecatslv.o
qspiObj             0x28              build/LAN9253_D51_SPI_direct_mode/production/_ext/1865555181/plib_qspi_spi.o
psWriteMbx          0x4               build/LAN9253_D51_SPI_direct_mode/production/_ext/108134065/mailbox.o
u8MbxWriteCounter   0x1               build/LAN9253_D51_SPI_direct_mode/production/_ext/108134065/mailbox.o
u32LastDc32Value    0x4               build/LAN9253_D51_SPI_direct_mode/production/_ext/108134065/coeappl.o
u32CheckForDcOverrunCnt
                    0x4               build/LAN9253_D51_SPI_direct_mode/production/_ext/108134065/coeappl.o
u8MailboxSendReqStored
                    0x1               build/LAN9253_D51_SPI_direct_mode/production/_ext/108134065/mailbox.o
EepromReadSize      0x2               build/LAN9253_D51_SPI_direct_mode/production/_ext/108134065/ecatappl.o
pSdoInfoObjEntry    0x4               build/LAN9253_D51_SPI_direct_mode/production/_ext/108134065/sdoserv.o
bSmSyncSequenceValid
                    0x1               build/LAN9253_D51_SPI_direct_mode/production/_ext/108134065/ecatslv.o
nSdoInfoFragmentsLeft
                    0x2               build/LAN9253_D51_SPI_direct_mode/production/_ext/108134065/sdoserv.o
gau8ALeventstore    0x5               build/LAN9253_D51_SPI_direct_mode/production/_ext/1671622979/Drivers.o
EsmTimeoutCounter   0x2               build/LAN9253_D51_SPI_direct_mode/production/_ext/108134065/ecatslv.o
pAPPL_FoeReadData   0x4               build/LAN9253_D51_SPI_direct_mode/production/_ext/108134065/ecatappl.o
u16ReceiveMbxSize   0x2               build/LAN9253_D51_SPI_direct_mode/production/_ext/108134065/mailbox.o
pSdoResStored       0x4               build/LAN9253_D51_SPI_direct_mode/production/_ext/108134065/sdoserv.o
asEmcy              0x8               build/LAN9253_D51_SPI_direct_mode/production/_ext/108134065/emcy.o
bBootMode           0x1               build/LAN9253_D51_SPI_direct_mode/production/_ext/108134065/ecatslv.o
u32StoreDataSize    0x4               build/LAN9253_D51_SPI_direct_mode/production/_ext/108134065/sdoserv.o
transferTxHandle    0x4               build/LAN9253_D51_SPI_direct_mode/production/_ext/2070931557/drv_spi.o
pSdoSegData         0x4               build/LAN9253_D51_SPI_direct_mode/production/_ext/108134065/sdoserv.o
bDcSyncActive       0x1               build/LAN9253_D51_SPI_direct_mode/production/_ext/108134065/ecatslv.o
bEcatOutputUpdateRunning
                    0x1               build/LAN9253_D51_SPI_direct_mode/production/_ext/108134065/ecatslv.o
pAPPL_MainLoop      0x4               build/LAN9253_D51_SPI_direct_mode/production/_ext/108134065/ecatappl.o
sSyncManOutPar      0x44              build/LAN9253_D51_SPI_direct_mode/production/_ext/108134065/objdef.o
sEmptyEmcyQueue     0x10              build/LAN9253_D51_SPI_direct_mode/production/_ext/108134065/emcy.o
transferRxHandle    0x4               build/LAN9253_D51_SPI_direct_mode/production/_ext/2070931557/drv_spi.o
Sync1WdCounter      0x2               build/LAN9253_D51_SPI_direct_mode/production/_ext/108134065/ecatslv.o
setup               0x14              build/LAN9253_D51_SPI_direct_mode/production/_ext/2070931557/drv_spi.o
EcatWdValue         0x2               build/LAN9253_D51_SPI_direct_mode/production/_ext/108134065/ecatslv.o
bEtherCATErrorLed   0x1               build/LAN9253_D51_SPI_direct_mode/production/_ext/108134065/ecatappl.o
u32MinCycleTimeStartValue
                    0x4               build/LAN9253_D51_SPI_direct_mode/production/_ext/108134065/ecatappl.o
bSyncSetByUser      0x1               build/LAN9253_D51_SPI_direct_mode/production/_ext/108134065/objdef.o
bMbxRepeatToggle    0x1               build/LAN9253_D51_SPI_direct_mode/production/_ext/108134065/mailbox.o
bEcatInputUpdateRunning
                    0x1               build/LAN9253_D51_SPI_direct_mode/production/_ext/108134065/ecatslv.o
bEscIntEnabled      0x1               build/LAN9253_D51_SPI_direct_mode/production/_ext/108134065/ecatslv.o
psRepeatMbx         0x4               build/LAN9253_D51_SPI_direct_mode/production/_ext/108134065/mailbox.o
nSdoSegIndex        0x2               build/LAN9253_D51_SPI_direct_mode/production/_ext/108134065/sdoserv.o
aSdoInfoHeader      0x10              build/LAN9253_D51_SPI_direct_mode/production/_ext/108134065/sdoserv.o
pSdoSegObjEntry     0x4               build/LAN9253_D51_SPI_direct_mode/production/_ext/108134065/sdoserv.o
aPdInputData        0x900             build/LAN9253_D51_SPI_direct_mode/production/_ext/108134065/ecatappl.o
bWdTrigger          0x1               build/LAN9253_D51_SPI_direct_mode/production/_ext/108134065/ecatslv.o
nSdoSegSubindex     0x1               build/LAN9253_D51_SPI_direct_mode/production/_ext/108134065/sdoserv.o
pEEPROM             0x4               build/LAN9253_D51_SPI_direct_mode/production/_ext/108134065/ecatappl.o
u16StoreIndex       0x2               build/LAN9253_D51_SPI_direct_mode/production/_ext/108134065/sdoserv.o
bEtherCATRunLed     0x1               build/LAN9253_D51_SPI_direct_mode/production/_ext/108134065/ecatappl.o
pAPPL_FoeWriteData  0x4               build/LAN9253_D51_SPI_direct_mode/production/_ext/108134065/ecatappl.o
u16SmSync0Counter   0x2               build/LAN9253_D51_SPI_direct_mode/production/_ext/108134065/ecatslv.o
pFoeSendStored      0x4               build/LAN9253_D51_SPI_direct_mode/production/_ext/108134065/ecatfoe.o
nMaxSyncMan         0x1               build/LAN9253_D51_SPI_direct_mode/production/_ext/108134065/ecatslv.o
pAPPL_EEPROM_Reload
                    0x4               build/LAN9253_D51_SPI_direct_mode/production/_ext/108134065/ecatappl.o
u8StoreSubindex     0x1               build/LAN9253_D51_SPI_direct_mode/production/_ext/108134065/sdoserv.o
aFileName           0x16              build/LAN9253_D51_SPI_direct_mode/production/_ext/108134065/sample_app.o
u32LastFileOffset   0x4               build/LAN9253_D51_SPI_direct_mode/production/_ext/108134065/ecatfoe.o
pAPPL_FoeRead       0x4               build/LAN9253_D51_SPI_direct_mode/production/_ext/108134065/ecatappl.o
u16EepromStoreTimeoutValue
                    0x2               build/LAN9253_D51_SPI_direct_mode/production/_ext/108134065/ecatappl.o
dmacChannelObj      0x20              build/LAN9253_D51_SPI_direct_mode/production/_ext/1865161661/plib_dmac.o
sCycleDiag          0x2               build/LAN9253_D51_SPI_direct_mode/production/_ext/108134065/objdef.o
systick             0xc               build/LAN9253_D51_SPI_direct_mode/production/_ext/1827571544/plib_systick.o
pAPPL_FoeWrite      0x4               build/LAN9253_D51_SPI_direct_mode/production/_ext/108134065/ecatappl.o
u16FoeMaxSendBlockSize
                    0x2               build/LAN9253_D51_SPI_direct_mode/production/_ext/108134065/ecatfoe.o
u8EcatErrorLed      0x1               build/LAN9253_D51_SPI_direct_mode/production/_ext/108134065/ecatslv.o
nEscAddrInputData   0x2               build/LAN9253_D51_SPI_direct_mode/production/_ext/108134065/ecatslv.o
transferTxRxHandle  0x4               build/LAN9253_D51_SPI_direct_mode/production/_ext/2070931557/drv_spi.o

Microchip PIC32 Memory-Usage Report

ROM Program-Memory Usage
section                    address  length [bytes]      (dec)  Description
-------                 ----------  -------------------------  -----------
.vectors                         0          0x260         608   
.text                        0x260           0x20          32  App's exec code 
.dinit                       0x280         0x1f70        8048   
.text.StartInputHandler     0x21f0          0x7e4        2020   
.text.AL_ControlInd         0x29d4          0x790        1936   
.text.OBJ_Write             0x3164          0x710        1808   
.rodata.aName0x1601         0x3874          0x6a0        1696   
.rodata.aName0x1A00         0x3f14          0x6a0        1696   
.text.OBJ_Read              0x45b4          0x67c        1660   
.text.SDOS_SdoInd           0x4c30          0x5e4        1508   
.rodata.aName0x7010         0x5214          0x520        1312   
.rodata.aName0x6000         0x5734          0x51c        1308   
.text.FOE_ServiceInd        0x5c50          0x488        1160   
.text._malloc_r             0x60d8          0x438        1080   
.text.SDOS_SdoInfoInd       0x6510          0x434        1076   
.text.SdoDownloadSegmen     0x6944          0x3b4         948   
.text.CheckSmSettings       0x6cf8          0x3a4         932   
.rodata.asEntryDesc0x16     0x709c          0x308         776   
.rodata.asEntryDesc0x1A     0x73a4          0x308         776   
.rodata.asEntryDesc0x60     0x76ac          0x308         776   
.rodata.asEntryDesc0x70     0x79b4          0x308         776   
.text.EEPROM_CommandHan     0x7cbc          0x2bc         700   
.text.AL_ControlRes         0x7f78          0x2bc         700   
.text.SdoUploadSegmentI     0x8234          0x260         608   
.text._DRV_SPI_StartDMA     0x8494          0x20c         524   
.text.SendSmFailedEmerg     0x86a0          0x1e0         480   
.text.SdoRes                0x8880          0x1bc         444   
.text.ECAT_Main             0x8a3c          0x1b4         436   
.text.CheckSyncTypeValu     0x8bf0          0x1b4         436   
.text.QSPI_Handler          0x8da4          0x1a0         416   
.text.DRV_SPI_Initializ     0x8f44          0x19c         412   
.text.DRV_SPI_Open          0x90e0          0x19c         412   
.text._DRV_SPI_RX_DMA_C     0x927c          0x190         400   
.text.DRV_SPI_WriteRead     0x940c          0x17c         380   
.text.QSPI_WriteRead        0x9588          0x17c         380   
.text.LAN9253SPI_DMA_Fa     0x9704          0x178         376   
.text.OBJ_GetEntryOffse     0x987c          0x178         376   
.text._free_r               0x99f4          0x178         376   
.text.APPL_GenerateMapp     0x9b6c          0x174         372   
.text.ECAT_Init             0x9ce0          0x170         368   
.text.SetALStatus           0x9e50          0x164         356   
.text.MBX_CheckAndCopyM     0x9fb4          0x164         356   
.text.COE_ObjInit           0xa118          0x160         352   
.text.Sync0_Isr             0xa278          0x15c         348   
.text.MainInit              0xa3d4          0x15c         348   
.text.DMAC_ChannelTrans     0xa530          0x154         340   
.text.MBX_StopMailboxHa     0xa684          0x154         340   
.text.PDI_Isr               0xa7d8          0x14c         332   
.text.FoE_WriteData         0xa924          0x148         328   
.text._DRV_SPI_PlibCall     0xaa6c          0x13c         316   
.text.APP_FlashEEPROMUp     0xaba8          0x12e         302   
.text.Dummy_Handler         0xacd6            0x2           2   
.text.StopInputHandler      0xacd8          0x12c         300   
.text._DRV_SPI_DisableI     0xae04          0x124         292   
.text.MBX_MailboxReadIn     0xaf28          0x124         292   
.text.OBJ_GetObjectLeng     0xb04c          0x124         292   
.text.SDOS_SdoRes           0xb170          0x124         292   
.text.DC_CheckWatchdog      0xb294          0x120         288   
.text.OBJ_GetDesc           0xb3b4          0x120         288   
.text._DRV_SPI_EnableIn     0xb4d4          0x116         278   
.text.__malloc_lock         0xb5ea            0x2           2   
.text.MBX_StartMailboxH     0xb5ec          0x114         276   
.text.DRV_SPITransferRe     0xb700          0x110         272   
.text.MBX_CopyToSendMai     0xb810          0x10c         268   
.rodata.aName0x1C32         0xb91c          0x100         256   
.rodata.aName0x1C33         0xba1c          0x100         256   
.text.MBX_Init              0xbb1c          0x100         256   
.text.ECAT_CheckTimer       0xbc1c           0xf8         248   
.text.OBJ_GetObjectList     0xbd14           0xf8         248   
.text.MBX_MailboxWriteI     0xbe0c           0xf4         244   
.text.ReBuild_SPI_SetCf     0xbf00           0xf0         240   
.text.MainLoop              0xbff0           0xec         236   
.text.COE_AddObjectToDi     0xc0dc           0xe8         232   
.text.COE_Main              0xc1c4           0xe8         232   
.text.EIC_Initialize        0xc2ac           0xe4         228   
.text.LAN925x_Init          0xc390           0xe0         224   
.text.MBX_MailboxSendRe     0xc470           0xdc         220   
.text.LAN9253SPI_DMA_Re     0xc54c           0xd8         216   
.text.HandleDmaData         0xc624           0xd6         214   
.text.__malloc_unlock       0xc6fa            0x2           2   
.text._DRV_SPI_FreeTran     0xc6fc           0xd4         212   
.text.HW_EscWrite           0xc7d0           0xce         206   
.text.DMAC_Initialize       0xc8a0           0xcc         204   
.text.HW_EscRead            0xc96c           0xcc         204   
.text.SODS_ClearPending     0xca38           0xcc         204   
.text.DRV_SPI_TransferS     0xcb04           0xc8         200   
.rodata.asEntryDesc0x1C     0xcbcc           0xc8         200   
.text.GetDummyBytesRequ     0xcc94           0xc6         198   
.text.LAN9253SPI_DMA_Wr     0xcd5c           0xc4         196   
.text.FoE_Read              0xce20           0xbc         188   
.text.MBX_Main              0xcedc           0xb8         184   
.text._DRV_SPI_UpdateTr     0xcf94           0xb4         180   
.text.PDO_OutputMapping     0xd048           0xb0         176   
.text.EMCY_Init             0xd0f8           0xa8         168   
.text.EMCY_SendEmergenc     0xd1a0           0xa4         164   
.text.HW_EepromReload       0xd244           0xa0         160   
.text._DRV_SPI_DriverHa     0xd2e4           0x9c         156   
.text._DMAC_interruptHa     0xd380           0x9c         156   
.text.CSRLengthAlignmen     0xd41c           0x9c         156   
.text.COE_SyncTimeStamp     0xd4b8           0x9c         156   
.text.QSPI_TransferSetu     0xd554           0x98         152   
.text.OBJ_GetNoOfObject     0xd5ec           0x98         152   
.text.RoundUpMultipleOf     0xd684           0x96         150   
.text.PDO_InputMapping      0xd71c           0x94         148   
.text.OBJ_CopyNumberToS     0xd7b0           0x94         148   
.text.FoE_Write             0xd844           0x94         148   
.text._malloc_trim_r        0xd8d8           0x94         148   
.text._DRV_SPI_TX_DMA_C     0xd96c           0x90         144   
.text.HW_EepromWrite        0xd9fc           0x90         144   
.text._SPI_initialize       0xda8c           0x88         136   
.text._APP_MyTransferEv     0xdb14           0x80         128   
.text.ESC_BYTE_TEST_Reg     0xdb94           0x80         128   
.text.COE_RemoveDicEntr     0xdc14           0x80         128   
.text.__pic32c_data_ini     0xdc94           0x80         128   
.text.HandleCycleTimeMe     0xdd14           0x7c         124   
.text.MBX_MailboxRepeat     0xdd90           0x7c         124   
.text.PORT_Initialize       0xde0c           0x78         120   
.text.EscWrite              0xde84           0x78         120   
.rodata.cAbortCode          0xdefc           0x78         120   
.text.APP_FlashWrite        0xdf74           0x78         120   
.text.EscRead               0xdfec           0x76         118   
.text.COE_ServiceInd        0xe064           0x74         116   
.text.StartOutputHandle     0xe0d8           0x74         116   
.text.NVIC_Initialize       0xe14c           0x72         114   
.text.GetSystemTimeDela     0xe1c0           0x70         112   
.text.APP_Tasks             0xe230           0x70         112   
.text.CalculateCRC8         0xe2a0           0x6e         110   
.text.DRV_SPI_TransferE     0xe310           0x6c         108   
.text.FDPLL0_Initialize     0xe37c           0x6c         108   
.text.FOE_Data              0xe3e8           0x6c         108   
.text.DMAC_ChannelSetti     0xe454           0x68         104   
.text.NVMCTRL_PageWrite     0xe4bc           0x68         104   
.text.COE_UpdateSyncErr     0xe524           0x68         104   
.text.MailboxServiceInd     0xe58c           0x68         104   
.text.SPI_SetConfigurat     0xe5f4           0x64         100   
.text.ECAT_CheckWatchdo     0xe658           0x64         100   
.text.BL_FOE_Applicatio     0xe6bc           0x64         100   
.text.APPL_Application      0xe720           0x64         100   
.text.DmaBuffsizeCalcul     0xe784           0x5e          94   
.text._SPI_TxRx             0xe7e4           0x5c          92   
.text.EIC_CallbackRegis     0xe840           0x5c          92   
.text.Reset_Handler         0xe89c           0x5c          92   
.text.Read0x10F8            0xe8f8           0x5c          92   
.text.COE_ContinueInd       0xe954           0x5c          92   
.text.GetOutOfEmptyEmcy     0xe9b0           0x5c          92   
.text.GetOutOfSendEmcyQ     0xea0c           0x5c          92   
.text.FoE_ReadData          0xea68           0x5c          92   
.text._DRV_SPI_Transfer     0xeac4           0x5a          90   
.text.DRV_SPIReceive        0xeb1e           0x5a          90   
.text.DRV_SPITransfer       0xeb78           0x5a          90   
.text.GetOutOfMbxQueue      0xebd2           0x58          88   
.text.OBJ_GetEntryDesc      0xec2a           0x58          88   
.text.CLOCK_Initialize      0xec84           0x54          84   
.text.__NVIC_SetPriorit     0xecd8           0x54          84   
.text.ESF_PDI_Init          0xed2c           0x54          84   
.text.PutInMbxQueue         0xed80           0x52          82   
.text._SPI_Rx               0xedd4           0x50          80   
.text._SPI_Tx               0xee24           0x50          80   
.text.SYS_Initialize        0xee74           0x50          80   
.text.UpdateEEPROMLoade     0xeec4           0x4c          76   
.text.DisableSyncManCha     0xef10           0x4c          76   
.text.CheckIfEcatError      0xef5c           0x4c          76   
.text._DRV_SPI_Resource     0xefa8           0x4a          74   
.text.HW_EscReadIsr         0xeff2           0x4a          74   
.text.HW_EscWriteIsr        0xf03c           0x4a          74   
.text.EnableSyncManChan     0xf086           0x4a          74   
.text.__NVIC_SetPriorit     0xf0d0           0x48          72   
.text.FOE_Read              0xf118           0x48          72   
.text.__libc_init_array     0xf160           0x48          72   
.text.SYS_DMA_Addressin     0xf1a8           0x46          70   
.text.ResetALEventMask      0xf1ee           0x46          70   
.text.SetALEventMask        0xf234           0x46          70   
.text._DRV_SPI_RemoveTr     0xf27a           0x44          68   
.text.GCLK0_Initialize      0xf2c0           0x44          68   
.text.__NVIC_DisableIRQ     0xf304           0x44          68   
.text.SYS_INT_SourceDis     0xf348           0x44          68   
.text.FPU_Enable            0xf38c           0x44          68   
.text.COE_ObjDictionary     0xf3d0           0x44          68   
.text.Sync1_Isr             0xf414           0x44          68   
.text.PutInEmptyEmcyQue     0xf458           0x44          68   
.text.PutInSendEmcyQueu     0xf49c           0x44          68   
.text.AddObjectsToObjDi     0xf4e0           0x42          66   
.text                       0xf524           0x40          64  App's exec code 
.text.SYSTICK_TimerInit     0xf564           0x40          64   
.text.__NVIC_GetEnableI     0xf5a4           0x40          64   
.text.ICache_Enable         0xf5e4           0x40          64   
.rodata.aName0x10F1         0xf624           0x40          64   
.text.COE_ClearObjDicti     0xf664           0x40          64   
.text.SYS_DMA_DataWidth     0xf6a4           0x3e          62   
.text.DMAC_ChannelCallb     0xf6e4           0x3c          60   
.text.__NVIC_EnableIRQ      0xf720           0x78         120   
.text.HW_GetALEventRegi     0xf798           0x3c          60   
.rodata.aName0x1018         0xf7d4           0x3c          60   
.text.ECAT_Application      0xf810           0x3c          60   
.text.APP_RunApplicatio     0xf84c           0x3c          60   
.text.PORT_PinSet           0xf888           0x38          56   
.text.PORT_PinClear         0xf8c0           0x38          56   
.text.QSPI_IsBusy           0xf8f8           0x38          56   
.text.PORT_PinSet           0xf930           0x38          56   
.text.PORT_PinClear         0xf968           0x38          56   
.text.PORT_PinOutputEna     0xf9a0           0x38          56   
.text.PORT_PinSet           0xf9d8           0x38          56   
.text.PORT_PinClear         0xfa10           0x38          56   
.text.FOE_Write             0xfa48           0x38          56   
.text.FOE_Ack               0xfa80           0x38          56   
.text.APP_FW_startDownl     0xfab8           0x38          56   
.text.OBJ_GetObjectHand     0xfaf0           0x36          54   
.text.NVMCTRL_BlockEras     0xfb28           0x34          52   
.text.HW_GetALEventRegi     0xfb5c           0x34          52   
.rodata.drvSPI0InitData     0xfb90           0x30          48   
.text.FOE_ContinueInd       0xfbc0           0x30          48   
.text.GetSyncMan            0xfbf0           0x30          48   
.text._DRV_SPI_MAKE_HAN     0xfc20           0x2c          44   
.text._DRV_SPI_UPDATE_T     0xfc4c           0x2c          44   
.text._DRV_SPI_Resource     0xfc78           0x2c          44   
.text.GCLK1_Initialize      0xfca4           0x2c          44   
.text.GCLK2_Initialize      0xfcd0           0x2c          44   
.text.DMAC_ChannelSetti     0xfcfc           0x2c          44   
.text.EIC_EXTINT_0_Inte     0xfd28           0x2c          44   
.text.EIC_EXTINT_1_Inte     0xfd54           0x2c          44   
.text.EIC_EXTINT_7_Inte     0xfd80           0x2c          44   
.text.SysTick_Handler       0xfdac           0x2c          44   
.text.SYS_INT_Disable       0xfdd8           0x2c          44   
.text.FOE_Init              0xfe04           0x2c          44   
.text.Emulation_Init        0xfe30           0x2c          44   
.text._sbrk                 0xfe5c           0x2c          44   
.text.DRV_SPI_WriteTran     0xfe88           0x2a          42   
.text.DRV_SPI_ReadTrans     0xfeb2           0x2a          42   
.text.SYS_INT_Restore       0xfedc           0x2a          42   
.text.SYS_INT_SourceRes     0xff06           0x2a          42   
.text.OSCCTRL_Initializ     0xff30           0x28          40   
.text.NVMCTRL_IsBusy        0xff58           0x28          40   
.text.QSPI_CallbackRegi     0xff80           0x28          40   
.text.SYSTICK_TimerCall     0xffa8           0x28          40   
.rodata.drvSPI0remapDat     0xffd0           0x28          40   
.text.ESC_IRQ_cb            0xfff8           0x28          40   
.text.APP_FW_StateBOOTt    0x10020           0x28          40   
.text.SPI_DisableQuadMo    0x10048           0x26          38   
.text.SYSTICK_TimerStar    0x10070           0x24          36   
.text.TCM_Configure        0x10094           0x24          36   
.text.PDI_Init_SYNC_Int    0x100b8           0x24          36   
.text.COE_Init             0x100dc           0x24          36   
.text.StopOutputHandler    0x10100           0x24          36   
.text.EMCY_IsQueueEmpty    0x10124           0x24          36   
.text.FOE_Error            0x10148           0x24          36   
.text.APPL_InputMapping    0x1016c           0x24          36   
.text.APPL_OutputMappin    0x10190           0x24          36   
.text.APP_BankSwitch       0x101b4           0x24          36   
.text.NVMCTRL_Read         0x101d8           0x22          34   
.text.EMCY_ContinueInd     0x101fa           0x22          34   
.text._DRV_SPI_Transfer    0x1021c           0x20          32   
.text.ECAT_SPI_Callback    0x1023c           0x20          32   
.rodata.asEntryDesc0x10    0x1025c           0x20          32   
.text.FOE_Busy             0x1027c           0x20          32   
.rodata.cBitMask           0x1029c           0x20          32   
.text._sbrk_r              0x102bc           0x20          32   
.text.SYS_PORT_PinSet      0x102dc           0x1c          28   
.text.SYS_PORT_PinClear    0x102f8           0x1c          28   
.text.NVMCTRL_Initializ    0x10314           0x1c          28   
.text.NVMCTRL_BankSwap     0x10330           0x1c          28   
.text.PORT_GroupSet        0x1034c           0x1c          28   
.text.PORT_GroupClear      0x10368           0x1c          28   
.text.PORT_GroupOutputE    0x10384           0x1c          28   
.text.CRITICAL_SECTION_    0x103a0           0x1c          28   
.text.CRITICAL_SECTION_    0x103bc           0x1c          28   
.text.SPIChipSelectDisa    0x103d8           0x1c          28   
.text.SPIChipSelectEnab    0x103f4           0x1c          28   
.text.ECAT_SysTick_Hand    0x10410           0x1c          28   
.rodata.aName0x1C12        0x1042c           0x1c          28   
.rodata.aName0x1C13        0x10448           0x1c          28   
.text.OSC32KCTRL_Initia    0x10464           0x18          24   
.rodata.drvSPI0Interrup    0x1047c           0x18          24   
.text.PDI_Init_SYSTick_    0x10494           0x18          24   
.text.PDI_IRQ_Interrupt    0x104ac           0x18          24   
.text.COE_GetObjectDict    0x104c4           0x18          24   
.text.BackToInitTransit    0x104dc           0x18          24   
.text.OBJ_GetObjDesc       0x104f4           0x18          24   
.text.APP_FW_GetDownloa    0x1050c           0x18          24   
.text.APP_Initialize       0x10524           0x18          24   
.text.BL_Start             0x1053c           0x16          22   
.text.EMCY_GetEmcyBuffe    0x10552           0x16          22   
.text.APPL_AckErrorInd     0x10568           0x16          22   
.text.APPL_StartInputHa    0x1057e           0x16          22   
.text.memcpy               0x10594           0x16          22   
.text.EtherCAT_QSPI_Cal    0x105ac           0x14          20   
.text.ESC_Sync0_cb         0x105c0           0x14          20   
.text.ESC_Sync1_cb         0x105d4           0x14          20   
.rodata.aName0x1009        0x105e8           0x14          20   
.rodata.aName0x100A        0x105fc           0x14          20   
.rodata.asEntryDesc0x10    0x10610           0x14          20   
.rodata.aName0x10F8        0x10624           0x14          20   
.rodata.aName0x1C00        0x10638           0x14          20   
.rodata.drvSPI0PlibAPI     0x1064c           0x10          16   
.rodata.aName0x1001        0x1065c           0x10          16   
.text.APPL_StartMailbox    0x1066c           0x10          16   
.text.APPL_StopInputHan    0x1067c           0x10          16   
.text.APPL_StartOutputH    0x1068c           0x10          16   
.text.APPL_StopOutputHa    0x1069c           0x10          16   
.text.main                 0x106ac           0x10          16   
.text.malloc               0x106bc           0x10          16   
.text.free                 0x106cc           0x10          16   
.text.memset               0x106dc           0x10          16   
.text                      0x106ec           0x10          16  App's exec code 
.text.DFLL_Initialize      0x106fc            0xe          14   
.text.DMAC_0_Handler       0x1070a            0xe          14   
.text.DMAC_1_Handler       0x10718            0xe          14   
.text.EVSYS_Initialize     0x10726            0xe          14   
.text.BL_Stop              0x10734            0xe          14   
.text.APPL_StopMailboxH    0x10742            0xe          14   
.text.SYS_Tasks            0x10750            0xc          12   
.text.PDI_Timer_Interru    0x1075c            0xc          12   
.text.ESC_Init             0x10768            0xc          12   
.rodata.asEntryDesc0x1C    0x10774            0xc          12   
.rodata.asEntryDesc0x1C    0x10780            0xc          12   
.rodata.aName0x1000        0x1078c            0xc          12   
.rodata.aName0x1008        0x10798            0xc          12   
.rodata.asEntryDesc0x1C    0x107a4            0xc          12   
.rodata.drvSPI0remapClo    0x107b0            0x8           8   
.rodata.drvSPI0remapClo    0x107b8            0x8           8   
.rodata.sEntryDesc0x100    0x107c0            0x8           8   
.rodata.sEntryDesc0x100    0x107c8            0x8           8   
.rodata.sEntryDesc0x100    0x107d0            0x8           8   
.rodata.sEntryDesc0x100    0x107d8            0x8           8   
.rodata.sEntryDesc0x100    0x107e0            0x8           8   
.rodata.sEntryDesc0x10F    0x107e8            0x8           8   
.rodata.acEmcyCoeHeader    0x107f0            0x8           8   
.text.NonMaskableInt_Ha    0x107f8            0x6           6   
.text.HardFault_Handler    0x107fe            0x6           6   
.text.DebugMonitor_Hand    0x10804            0x6           6   
.text.MemoryManagement_    0x1080a            0x6           6   
.text.BusFault_Handler     0x10810            0x6           6   
.text.UsageFault_Handle    0x10816            0x6           6   
.rodata                    0x1081c            0x4           4  Read-only const 
      Total ROM used  :     0x10802       67586  12.9% of 0x80000
        --------------------------------------------------------------------------
         Total Program Memory used  :     0x10802       67586  12.9% of 0x80000
        --------------------------------------------------------------------------


RAM Data-Memory Usage
section                    address  length [bytes]      (dec)  Description
-------                 ----------  -------------------------  -----------
.bss                    0x20000000         0x3dd4       15828  Uninitialized data 
.data.aEepromData       0x20003dd4          0x800        2048   
.data.u32Devicetype     0x200045d4            0x4           4   
.data.impure_data       0x200045d8          0x418        1048   
.data.__malloc_av_      0x200049f0          0x408        1032   
.data.OutputsProcessDat 0x20004df8          0x204         516   
.data.InputsProcessData 0x20004ffc          0x204         516   
.data.Inputs0x6000      0x20005200          0x204         516   
.data.Outputs0x7010     0x20005404          0x204         516   
.data.GenObjDic         0x20005608          0x1e0         480   
.data.ApplicationObjDic 0x200057e8          0x118         280   
.bss.drvSPI0TransferObj 0x20005900           0x90         144   
.bss.gDrvSPIObj         0x20005990           0x6c         108   
.bss.drvSPI0ClientObjPo 0x200059fc           0x28          40   
.bss.__malloc_current_m 0x20005a24           0x28          40   
.data.gau8DummyCntArr   0x20005a4c           0x27          39   
.data.gis_Tx_DMAComplet 0x20005a73            0x1           1   
.data.sErrorSettings    0x20005a74            0xc          12   
.bss.txDummyData        0x20005a80           0x20          32   
.bss._write_back_sectio 0x20005aa0           0x20          32   
.bss.descriptor_section 0x20005ac0           0x20          32   
.bss                    0x20005ae0           0x1c          28  Uninitialized data 
.data.acDevicename      0x20005afc           0x16          22   
.bss.nvm_error          0x20005b12            0x2           2   
.data.sIdentity         0x20005b14           0x14          20   
.data.aSubindexDesc     0x20005b28            0xd          13   
.data.gis_Rx_DMAComplet 0x20005b35            0x1           1   
.data.gis_TxRx_DMACompl 0x20005b36            0x1           1   
.bss.isLastByteTransfer 0x20005b37            0x1           1   
.bss.u64Timestamp       0x20005b38            0x8           8   
.data.sSyncmanagertype  0x20005b40            0x6           6   
.bss.u16ErrorRegister   0x20005b46            0x2           2   
.data.acHardwareversion 0x20005b48            0x4           4   
.data.acSoftwareversion 0x20005b4c            0x4           4   
.bss.ObjDicList         0x20005b50            0x4           4   
.bss.SMActivate         0x20005b54            0x4           4   
.data.sRxPDOassign      0x20005b58            0x4           4   
.data.sTxPDOassign      0x20005b5c            0x4           4   
.bss.gTriggerCounterVal 0x20005b60            0x4           4   
.data.gFOETestFrameSize 0x20005b64            0x4           4   
.bss.nFileWriteOffset   0x20005b68            0x4           4   
.bss.nFileStartWriteAdd 0x20005b6c            0x4           4   
.bss.u32FileSize        0x20005b70            0x4           4   
.bss.__malloc_max_sbrke 0x20005b74            0x4           4   
.bss.__malloc_max_total 0x20005b78            0x4           4   
.bss.__malloc_top_pad   0x20005b7c            0x4           4   
.data.__malloc_sbrk_bas 0x20005b80            0x4           4   
.data.__malloc_trim_thr 0x20005b84            0x4           4   
.data._impure_ptr       0x20005b88            0x4           4   
.bss                    0x20005b8c            0x4           4  Uninitialized data 
.bss.gchEtherCATQSPITra 0x20005b90            0x1           1   
.bss.gbALEvtOpEnabled   0x20005b91            0x1           1   
.bss.bInitFinished      0x20005b92            0x1           1   
.bss.EepromLoaded       0x20005b93            0x1           1   
.bss.gFirmwareDownload_ 0x20005b94            0x1           1   
.bss.gFirmwareDownload_ 0x20005b95            0x1           1   
.bss.bSdoInWork         0x20005b96            0x1           1   
         Total RAM used  :      0x5b97       23447  11.9% of 0x30000
        --------------------------------------------------------------------------
            Total Data Memory used  :      0x5b97       23447  11.9% of 0x30000
        --------------------------------------------------------------------------


Dynamic Data-Memory Reservation
section                    address  length [bytes]      (dec)  Description
-------                 ----------  -------------------------  -----------
heap                    0x20005b98          0x200         512  Reserved for heap 
stack                   0x20005db0        0x2a240      172608  Reserved for stack 

        --------------------------------------------------------------------------

Discarded input sections

 .text          0x00000000        0x0 c:/program files (x86)/microchip/xc32/v2.30/bin/bin/../../lib/gcc/pic32c/6.2.1/v7e-m/fpv4-sp/hard/crti.o
 .data          0x00000000        0x0 c:/program files (x86)/microchip/xc32/v2.30/bin/bin/../../lib/gcc/pic32c/6.2.1/v7e-m/fpv4-sp/hard/crti.o
 .bss           0x00000000        0x0 c:/program files (x86)/microchip/xc32/v2.30/bin/bin/../../lib/gcc/pic32c/6.2.1/v7e-m/fpv4-sp/hard/crti.o
 .data          0x00000000        0x4 c:/program files (x86)/microchip/xc32/v2.30/bin/bin/../../lib/gcc/pic32c/6.2.1/v7e-m/fpv4-sp/hard/crtbegin.o
 .text          0x00000000        0x0 build/LAN9253_D51_SPI_direct_mode/production/_ext/2070931557/drv_spi.o
 .data          0x00000000        0x0 build/LAN9253_D51_SPI_direct_mode/production/_ext/2070931557/drv_spi.o
 .bss           0x00000000        0x0 build/LAN9253_D51_SPI_direct_mode/production/_ext/2070931557/drv_spi.o
 .text._DRV_SPI_RemoveClientTransfersFromList
                0x00000000       0x74 build/LAN9253_D51_SPI_direct_mode/production/_ext/2070931557/drv_spi.o
 .text.DRV_SPI_ExclusiveUse
                0x00000000       0xfc build/LAN9253_D51_SPI_direct_mode/production/_ext/2070931557/drv_spi.o
 .text.DRV_SPI_Status
                0x00000000       0x3c build/LAN9253_D51_SPI_direct_mode/production/_ext/2070931557/drv_spi.o
 .text.DRV_SPI_Close
                0x00000000       0xdc build/LAN9253_D51_SPI_direct_mode/production/_ext/2070931557/drv_spi.o
 .text.DRV_SPI_TransferStatusGet
                0x00000000       0x88 build/LAN9253_D51_SPI_direct_mode/production/_ext/2070931557/drv_spi.o
 .text.DRV_SPI_Lock
                0x00000000       0x20 build/LAN9253_D51_SPI_direct_mode/production/_ext/2070931557/drv_spi.o
 .text          0x00000000        0x0 build/LAN9253_D51_SPI_direct_mode/production/_ext/1984496892/plib_clock.o
 .data          0x00000000        0x0 build/LAN9253_D51_SPI_direct_mode/production/_ext/1984496892/plib_clock.o
 .bss           0x00000000        0x0 build/LAN9253_D51_SPI_direct_mode/production/_ext/1984496892/plib_clock.o
 .text          0x00000000        0x0 build/LAN9253_D51_SPI_direct_mode/production/_ext/1865131932/plib_cmcc.o
 .data          0x00000000        0x0 build/LAN9253_D51_SPI_direct_mode/production/_ext/1865131932/plib_cmcc.o
 .bss           0x00000000        0x0 build/LAN9253_D51_SPI_direct_mode/production/_ext/1865131932/plib_cmcc.o
 .text.CMCC_Disable
                0x00000000       0x2c build/LAN9253_D51_SPI_direct_mode/production/_ext/1865131932/plib_cmcc.o
 .text.CMCC_EnableICache
                0x00000000       0x40 build/LAN9253_D51_SPI_direct_mode/production/_ext/1865131932/plib_cmcc.o
 .text.CMCC_DisableICache
                0x00000000       0x40 build/LAN9253_D51_SPI_direct_mode/production/_ext/1865131932/plib_cmcc.o
 .text.CMCC_EnableDCache
                0x00000000       0x40 build/LAN9253_D51_SPI_direct_mode/production/_ext/1865131932/plib_cmcc.o
 .text.CMCC_DisableDCache
                0x00000000       0x40 build/LAN9253_D51_SPI_direct_mode/production/_ext/1865131932/plib_cmcc.o
 .text.CMCC_InvalidateAll
                0x00000000       0x34 build/LAN9253_D51_SPI_direct_mode/production/_ext/1865131932/plib_cmcc.o
 .debug_info    0x00000000      0x5e5 build/LAN9253_D51_SPI_direct_mode/production/_ext/1865131932/plib_cmcc.o
 .debug_abbrev  0x00000000       0x93 build/LAN9253_D51_SPI_direct_mode/production/_ext/1865131932/plib_cmcc.o
 .debug_loc     0x00000000      0x198 build/LAN9253_D51_SPI_direct_mode/production/_ext/1865131932/plib_cmcc.o
 .debug_aranges
                0x00000000       0x48 build/LAN9253_D51_SPI_direct_mode/production/_ext/1865131932/plib_cmcc.o
 .debug_ranges  0x00000000       0x38 build/LAN9253_D51_SPI_direct_mode/production/_ext/1865131932/plib_cmcc.o
 .debug_line    0x00000000      0x1e6 build/LAN9253_D51_SPI_direct_mode/production/_ext/1865131932/plib_cmcc.o
 .debug_str     0x00000000        0x0 build/LAN9253_D51_SPI_direct_mode/production/_ext/1865131932/plib_cmcc.o
 .comment       0x00000000       0x3d build/LAN9253_D51_SPI_direct_mode/production/_ext/1865131932/plib_cmcc.o
 .debug_frame   0x00000000       0xd0 build/LAN9253_D51_SPI_direct_mode/production/_ext/1865131932/plib_cmcc.o
 .ARM.attributes
                0x00000000       0x39 build/LAN9253_D51_SPI_direct_mode/production/_ext/1865131932/plib_cmcc.o
 .text          0x00000000        0x0 build/LAN9253_D51_SPI_direct_mode/production/_ext/1865161661/plib_dmac.o
 .data          0x00000000        0x0 build/LAN9253_D51_SPI_direct_mode/production/_ext/1865161661/plib_dmac.o
 .bss           0x00000000        0x0 build/LAN9253_D51_SPI_direct_mode/production/_ext/1865161661/plib_dmac.o
 .text.DMAC_ChannelIsBusy
                0x00000000       0x4c build/LAN9253_D51_SPI_direct_mode/production/_ext/1865161661/plib_dmac.o
 .text.DMAC_ChannelTransferStatusGet
                0x00000000       0x50 build/LAN9253_D51_SPI_direct_mode/production/_ext/1865161661/plib_dmac.o
 .text.DMAC_ChannelDisable
                0x00000000       0x60 build/LAN9253_D51_SPI_direct_mode/production/_ext/1865161661/plib_dmac.o
 .text.DMAC_ChannelGetTransferredCount
                0x00000000       0x44 build/LAN9253_D51_SPI_direct_mode/production/_ext/1865161661/plib_dmac.o
 .text.DMAC_ChannelSuspend
                0x00000000       0x44 build/LAN9253_D51_SPI_direct_mode/production/_ext/1865161661/plib_dmac.o
 .text.DMAC_ChannelResume
                0x00000000       0x44 build/LAN9253_D51_SPI_direct_mode/production/_ext/1865161661/plib_dmac.o
 .text.DMAC_CRCDisable
                0x00000000       0x18 build/LAN9253_D51_SPI_direct_mode/production/_ext/1865161661/plib_dmac.o
 .text.DMAC_ChannelCRCSetup
                0x00000000       0x60 build/LAN9253_D51_SPI_direct_mode/production/_ext/1865161661/plib_dmac.o
 .text.DMAC_CRCRead
                0x00000000       0x18 build/LAN9253_D51_SPI_direct_mode/production/_ext/1865161661/plib_dmac.o
 .text.DMAC_CRCCalculate
                0x00000000      0x104 build/LAN9253_D51_SPI_direct_mode/production/_ext/1865161661/plib_dmac.o
 .text          0x00000000        0x0 build/LAN9253_D51_SPI_direct_mode/production/_ext/60167341/plib_eic.o
 .data          0x00000000        0x0 build/LAN9253_D51_SPI_direct_mode/production/_ext/60167341/plib_eic.o
 .bss           0x00000000        0x0 build/LAN9253_D51_SPI_direct_mode/production/_ext/60167341/plib_eic.o
 .text.EIC_InterruptEnable
                0x00000000       0x28 build/LAN9253_D51_SPI_direct_mode/production/_ext/60167341/plib_eic.o
 .text.EIC_InterruptDisable
                0x00000000       0x28 build/LAN9253_D51_SPI_direct_mode/production/_ext/60167341/plib_eic.o
 .text          0x00000000        0x0 build/LAN9253_D51_SPI_direct_mode/production/_ext/1986646378/plib_evsys.o
 .data          0x00000000        0x0 build/LAN9253_D51_SPI_direct_mode/production/_ext/1986646378/plib_evsys.o
 .bss           0x00000000        0x0 build/LAN9253_D51_SPI_direct_mode/production/_ext/1986646378/plib_evsys.o
 .text          0x00000000        0x0 build/LAN9253_D51_SPI_direct_mode/production/_ext/1865468468/plib_nvic.o
 .data          0x00000000        0x0 build/LAN9253_D51_SPI_direct_mode/production/_ext/1865468468/plib_nvic.o
 .bss           0x00000000        0x0 build/LAN9253_D51_SPI_direct_mode/production/_ext/1865468468/plib_nvic.o
 .text          0x00000000        0x0 build/LAN9253_D51_SPI_direct_mode/production/_ext/1593096446/plib_nvmctrl.o
 .data          0x00000000        0x0 build/LAN9253_D51_SPI_direct_mode/production/_ext/1593096446/plib_nvmctrl.o
 .bss           0x00000000        0x0 build/LAN9253_D51_SPI_direct_mode/production/_ext/1593096446/plib_nvmctrl.o
 .bss.nvm_status
                0x00000000        0x2 build/LAN9253_D51_SPI_direct_mode/production/_ext/1593096446/plib_nvmctrl.o
 .bss.smart_eep_status
                0x00000000        0x4 build/LAN9253_D51_SPI_direct_mode/production/_ext/1593096446/plib_nvmctrl.o
 .text.NVMCTRL_SetWriteMode
                0x00000000       0x34 build/LAN9253_D51_SPI_direct_mode/production/_ext/1593096446/plib_nvmctrl.o
 .text.NVMCTRL_QuadWordWrite
                0x00000000       0x84 build/LAN9253_D51_SPI_direct_mode/production/_ext/1593096446/plib_nvmctrl.o
 .text.NVMCTRL_DoubleWordWrite
                0x00000000       0x84 build/LAN9253_D51_SPI_direct_mode/production/_ext/1593096446/plib_nvmctrl.o
 .text.NVMCTRL_ErrorGet
                0x00000000       0x40 build/LAN9253_D51_SPI_direct_mode/production/_ext/1593096446/plib_nvmctrl.o
 .text.NVMCTRL_StatusGet
                0x00000000       0x24 build/LAN9253_D51_SPI_direct_mode/production/_ext/1593096446/plib_nvmctrl.o
 .text.NVMCTRL_RegionLock
                0x00000000       0x28 build/LAN9253_D51_SPI_direct_mode/production/_ext/1593096446/plib_nvmctrl.o
 .text.NVMCTRL_RegionUnlock
                0x00000000       0x28 build/LAN9253_D51_SPI_direct_mode/production/_ext/1593096446/plib_nvmctrl.o
 .text.NVMCTRL_RegionLockStatusGet
                0x00000000       0x18 build/LAN9253_D51_SPI_direct_mode/production/_ext/1593096446/plib_nvmctrl.o
 .text.NVMCTRL_SmartEEPROM_IsBusy
                0x00000000       0x24 build/LAN9253_D51_SPI_direct_mode/production/_ext/1593096446/plib_nvmctrl.o
 .text.NVMCTRL_SmartEEPROMStatusGet
                0x00000000       0x24 build/LAN9253_D51_SPI_direct_mode/production/_ext/1593096446/plib_nvmctrl.o
 .text.NVMCTRL_SmartEEPROM_IsActiveSectorFull
                0x00000000       0x28 build/LAN9253_D51_SPI_direct_mode/production/_ext/1593096446/plib_nvmctrl.o
 .text.NVMCTRL_SmartEEPROMSectorReallocate
                0x00000000       0x1c build/LAN9253_D51_SPI_direct_mode/production/_ext/1593096446/plib_nvmctrl.o
 .text.NVMCTRL_SmartEEPROMFlushPageBuffer
                0x00000000       0x24 build/LAN9253_D51_SPI_direct_mode/production/_ext/1593096446/plib_nvmctrl.o
 .text          0x00000000        0x0 build/LAN9253_D51_SPI_direct_mode/production/_ext/1865521619/plib_port.o
 .data          0x00000000        0x0 build/LAN9253_D51_SPI_direct_mode/production/_ext/1865521619/plib_port.o
 .bss           0x00000000        0x0 build/LAN9253_D51_SPI_direct_mode/production/_ext/1865521619/plib_port.o
 .text.PORT_GroupRead
                0x00000000       0x18 build/LAN9253_D51_SPI_direct_mode/production/_ext/1865521619/plib_port.o
 .text.PORT_GroupWrite
                0x00000000       0x2e build/LAN9253_D51_SPI_direct_mode/production/_ext/1865521619/plib_port.o
 .text.PORT_GroupLatchRead
                0x00000000       0x18 build/LAN9253_D51_SPI_direct_mode/production/_ext/1865521619/plib_port.o
 .text.PORT_GroupToggle
                0x00000000       0x1c build/LAN9253_D51_SPI_direct_mode/production/_ext/1865521619/plib_port.o
 .text.PORT_GroupInputEnable
                0x00000000       0x1c build/LAN9253_D51_SPI_direct_mode/production/_ext/1865521619/plib_port.o
 .text          0x00000000        0x0 build/LAN9253_D51_SPI_direct_mode/production/_ext/1865555181/plib_qspi_spi.o
 .data          0x00000000        0x0 build/LAN9253_D51_SPI_direct_mode/production/_ext/1865555181/plib_qspi_spi.o
 .bss           0x00000000        0x0 build/LAN9253_D51_SPI_direct_mode/production/_ext/1865555181/plib_qspi_spi.o
 .text.QSPI_Initialize
                0x00000000       0x3c build/LAN9253_D51_SPI_direct_mode/production/_ext/1865555181/plib_qspi_spi.o
 .text.QSPI_Write
                0x00000000       0x20 build/LAN9253_D51_SPI_direct_mode/production/_ext/1865555181/plib_qspi_spi.o
 .text.QSPI_Read
                0x00000000       0x20 build/LAN9253_D51_SPI_direct_mode/production/_ext/1865555181/plib_qspi_spi.o
 .text          0x00000000        0x0 build/LAN9253_D51_SPI_direct_mode/production/_ext/1865555181/plib_qspi.o
 .data          0x00000000        0x0 build/LAN9253_D51_SPI_direct_mode/production/_ext/1865555181/plib_qspi.o
 .bss           0x00000000        0x0 build/LAN9253_D51_SPI_direct_mode/production/_ext/1865555181/plib_qspi.o
 .debug_line    0x00000000        0x0 build/LAN9253_D51_SPI_direct_mode/production/_ext/1865555181/plib_qspi.o
 .debug_str     0x00000000        0x0 build/LAN9253_D51_SPI_direct_mode/production/_ext/1865555181/plib_qspi.o
 .comment       0x00000000       0x3d build/LAN9253_D51_SPI_direct_mode/production/_ext/1865555181/plib_qspi.o
 .ARM.attributes
                0x00000000       0x39 build/LAN9253_D51_SPI_direct_mode/production/_ext/1865555181/plib_qspi.o
 .text          0x00000000        0x0 build/LAN9253_D51_SPI_direct_mode/production/_ext/1827571544/plib_systick.o
 .data          0x00000000        0x0 build/LAN9253_D51_SPI_direct_mode/production/_ext/1827571544/plib_systick.o
 .bss           0x00000000        0x0 build/LAN9253_D51_SPI_direct_mode/production/_ext/1827571544/plib_systick.o
 .text.SYSTICK_TimerRestart
                0x00000000       0x30 build/LAN9253_D51_SPI_direct_mode/production/_ext/1827571544/plib_systick.o
 .text.SYSTICK_TimerStop
                0x00000000       0x20 build/LAN9253_D51_SPI_direct_mode/production/_ext/1827571544/plib_systick.o
 .text.SYSTICK_TimerPeriodSet
                0x00000000       0x20 build/LAN9253_D51_SPI_direct_mode/production/_ext/1827571544/plib_systick.o
 .text.SYSTICK_TimerPeriodGet
                0x00000000       0x18 build/LAN9253_D51_SPI_direct_mode/production/_ext/1827571544/plib_systick.o
 .text.SYSTICK_TimerCounterGet
                0x00000000       0x18 build/LAN9253_D51_SPI_direct_mode/production/_ext/1827571544/plib_systick.o
 .text.SYSTICK_TimerFrequencyGet
                0x00000000       0x14 build/LAN9253_D51_SPI_direct_mode/production/_ext/1827571544/plib_systick.o
 .text.SYSTICK_DelayMs
                0x00000000       0x58 build/LAN9253_D51_SPI_direct_mode/production/_ext/1827571544/plib_systick.o
 .text          0x00000000        0x0 build/LAN9253_D51_SPI_direct_mode/production/_ext/163028504/xc32_monitor.o
 .data          0x00000000        0x0 build/LAN9253_D51_SPI_direct_mode/production/_ext/163028504/xc32_monitor.o
 .bss           0x00000000        0x0 build/LAN9253_D51_SPI_direct_mode/production/_ext/163028504/xc32_monitor.o
 .text._mon_getc
                0x00000000       0x16 build/LAN9253_D51_SPI_direct_mode/production/_ext/163028504/xc32_monitor.o
 .text._mon_putc
                0x00000000       0x16 build/LAN9253_D51_SPI_direct_mode/production/_ext/163028504/xc32_monitor.o
 .debug_info    0x00000000      0x2f4 build/LAN9253_D51_SPI_direct_mode/production/_ext/163028504/xc32_monitor.o
 .debug_abbrev  0x00000000       0x66 build/LAN9253_D51_SPI_direct_mode/production/_ext/163028504/xc32_monitor.o
 .debug_loc     0x00000000       0xb8 build/LAN9253_D51_SPI_direct_mode/production/_ext/163028504/xc32_monitor.o
 .debug_aranges
                0x00000000       0x28 build/LAN9253_D51_SPI_direct_mode/production/_ext/163028504/xc32_monitor.o
 .debug_ranges  0x00000000       0x18 build/LAN9253_D51_SPI_direct_mode/production/_ext/163028504/xc32_monitor.o
 .debug_line    0x00000000       0x6c build/LAN9253_D51_SPI_direct_mode/production/_ext/163028504/xc32_monitor.o
 .debug_str     0x00000000        0x0 build/LAN9253_D51_SPI_direct_mode/production/_ext/163028504/xc32_monitor.o
 .comment       0x00000000       0x3d build/LAN9253_D51_SPI_direct_mode/production/_ext/163028504/xc32_monitor.o
 .debug_frame   0x00000000       0x60 build/LAN9253_D51_SPI_direct_mode/production/_ext/163028504/xc32_monitor.o
 .ARM.attributes
                0x00000000       0x39 build/LAN9253_D51_SPI_direct_mode/production/_ext/163028504/xc32_monitor.o
 .text          0x00000000        0x0 build/LAN9253_D51_SPI_direct_mode/production/_ext/1014039709/sys_cache.o
 .data          0x00000000        0x0 build/LAN9253_D51_SPI_direct_mode/production/_ext/1014039709/sys_cache.o
 .bss           0x00000000        0x0 build/LAN9253_D51_SPI_direct_mode/production/_ext/1014039709/sys_cache.o
 .text.SYS_CACHE_EnableCaches
                0x00000000        0xe build/LAN9253_D51_SPI_direct_mode/production/_ext/1014039709/sys_cache.o
 .text.SYS_CACHE_DisableCaches
                0x00000000        0xe build/LAN9253_D51_SPI_direct_mode/production/_ext/1014039709/sys_cache.o
 .text.SYS_CACHE_EnableICache
                0x00000000        0xe build/LAN9253_D51_SPI_direct_mode/production/_ext/1014039709/sys_cache.o
 .text.SYS_CACHE_DisableICache
                0x00000000        0xe build/LAN9253_D51_SPI_direct_mode/production/_ext/1014039709/sys_cache.o
 .text.SYS_CACHE_InvalidateICache
                0x00000000        0xe build/LAN9253_D51_SPI_direct_mode/production/_ext/1014039709/sys_cache.o
 .text.SYS_CACHE_EnableDCache
                0x00000000        0xe build/LAN9253_D51_SPI_direct_mode/production/_ext/1014039709/sys_cache.o
 .text.SYS_CACHE_DisableDCache
                0x00000000        0xe build/LAN9253_D51_SPI_direct_mode/production/_ext/1014039709/sys_cache.o
 .text.SYS_CACHE_InvalidateDCache
                0x00000000        0xe build/LAN9253_D51_SPI_direct_mode/production/_ext/1014039709/sys_cache.o
 .text.SYS_CACHE_CleanDCache
                0x00000000        0xe build/LAN9253_D51_SPI_direct_mode/production/_ext/1014039709/sys_cache.o
 .text.SYS_CACHE_CleanInvalidateDCache
                0x00000000        0xe build/LAN9253_D51_SPI_direct_mode/production/_ext/1014039709/sys_cache.o
 .text.SYS_CACHE_InvalidateDCache_by_Addr
                0x00000000       0x16 build/LAN9253_D51_SPI_direct_mode/production/_ext/1014039709/sys_cache.o
 .text.SYS_CACHE_CleanDCache_by_Addr
                0x00000000       0x16 build/LAN9253_D51_SPI_direct_mode/production/_ext/1014039709/sys_cache.o
 .text.SYS_CACHE_CleanInvalidateDCache_by_Addr
                0x00000000       0x16 build/LAN9253_D51_SPI_direct_mode/production/_ext/1014039709/sys_cache.o
 .debug_info    0x00000000      0x666 build/LAN9253_D51_SPI_direct_mode/production/_ext/1014039709/sys_cache.o
 .debug_abbrev  0x00000000       0x90 build/LAN9253_D51_SPI_direct_mode/production/_ext/1014039709/sys_cache.o
 .debug_loc     0x00000000      0x3bc build/LAN9253_D51_SPI_direct_mode/production/_ext/1014039709/sys_cache.o
 .debug_aranges
                0x00000000       0x80 build/LAN9253_D51_SPI_direct_mode/production/_ext/1014039709/sys_cache.o
 .debug_ranges  0x00000000       0x70 build/LAN9253_D51_SPI_direct_mode/production/_ext/1014039709/sys_cache.o
 .debug_line    0x00000000      0x201 build/LAN9253_D51_SPI_direct_mode/production/_ext/1014039709/sys_cache.o
 .debug_str     0x00000000        0x0 build/LAN9253_D51_SPI_direct_mode/production/_ext/1014039709/sys_cache.o
 .comment       0x00000000       0x3d build/LAN9253_D51_SPI_direct_mode/production/_ext/1014039709/sys_cache.o
 .debug_frame   0x00000000      0x1c8 build/LAN9253_D51_SPI_direct_mode/production/_ext/1014039709/sys_cache.o
 .ARM.attributes
                0x00000000       0x39 build/LAN9253_D51_SPI_direct_mode/production/_ext/1014039709/sys_cache.o
 .text          0x00000000        0x0 build/LAN9253_D51_SPI_direct_mode/production/_ext/14461671/sys_dma.o
 .data          0x00000000        0x0 build/LAN9253_D51_SPI_direct_mode/production/_ext/14461671/sys_dma.o
 .bss           0x00000000        0x0 build/LAN9253_D51_SPI_direct_mode/production/_ext/14461671/sys_dma.o
 .text          0x00000000        0x0 build/LAN9253_D51_SPI_direct_mode/production/_ext/1881668453/sys_int.o
 .data          0x00000000        0x0 build/LAN9253_D51_SPI_direct_mode/production/_ext/1881668453/sys_int.o
 .bss           0x00000000        0x0 build/LAN9253_D51_SPI_direct_mode/production/_ext/1881668453/sys_int.o
 .text.SYS_INT_Enable
                0x00000000       0x14 build/LAN9253_D51_SPI_direct_mode/production/_ext/1881668453/sys_int.o
 .text          0x00000000        0x0 build/LAN9253_D51_SPI_direct_mode/production/_ext/1171490990/exceptions.o
 .data          0x00000000        0x0 build/LAN9253_D51_SPI_direct_mode/production/_ext/1171490990/exceptions.o
 .bss           0x00000000        0x0 build/LAN9253_D51_SPI_direct_mode/production/_ext/1171490990/exceptions.o
 .text          0x00000000        0x0 build/LAN9253_D51_SPI_direct_mode/production/_ext/1171490990/initialization.o
 .data          0x00000000        0x0 build/LAN9253_D51_SPI_direct_mode/production/_ext/1171490990/initialization.o
 .bss           0x00000000        0x0 build/LAN9253_D51_SPI_direct_mode/production/_ext/1171490990/initialization.o
 .text          0x00000000        0x0 build/LAN9253_D51_SPI_direct_mode/production/_ext/1171490990/interrupts.o
 .data          0x00000000        0x0 build/LAN9253_D51_SPI_direct_mode/production/_ext/1171490990/interrupts.o
 .bss           0x00000000        0x0 build/LAN9253_D51_SPI_direct_mode/production/_ext/1171490990/interrupts.o
 .text          0x00000000        0x0 build/LAN9253_D51_SPI_direct_mode/production/_ext/1171490990/libc_syscalls.o
 .data          0x00000000        0x0 build/LAN9253_D51_SPI_direct_mode/production/_ext/1171490990/libc_syscalls.o
 .bss           0x00000000        0x0 build/LAN9253_D51_SPI_direct_mode/production/_ext/1171490990/libc_syscalls.o
 .text._exit    0x00000000        0xa build/LAN9253_D51_SPI_direct_mode/production/_ext/1171490990/libc_syscalls.o
 .debug_info    0x00000000      0xf0d build/LAN9253_D51_SPI_direct_mode/production/_ext/1171490990/libc_syscalls.o
 .debug_abbrev  0x00000000      0x1a8 build/LAN9253_D51_SPI_direct_mode/production/_ext/1171490990/libc_syscalls.o
 .debug_loc     0x00000000       0x38 build/LAN9253_D51_SPI_direct_mode/production/_ext/1171490990/libc_syscalls.o
 .debug_aranges
                0x00000000       0x20 build/LAN9253_D51_SPI_direct_mode/production/_ext/1171490990/libc_syscalls.o
 .debug_ranges  0x00000000       0x10 build/LAN9253_D51_SPI_direct_mode/production/_ext/1171490990/libc_syscalls.o
 .debug_line    0x00000000      0x1e8 build/LAN9253_D51_SPI_direct_mode/production/_ext/1171490990/libc_syscalls.o
 .debug_str     0x00000000        0xe build/LAN9253_D51_SPI_direct_mode/production/_ext/1171490990/libc_syscalls.o
 .comment       0x00000000       0x3d build/LAN9253_D51_SPI_direct_mode/production/_ext/1171490990/libc_syscalls.o
 .debug_frame   0x00000000       0x2c build/LAN9253_D51_SPI_direct_mode/production/_ext/1171490990/libc_syscalls.o
 .ARM.attributes
                0x00000000       0x39 build/LAN9253_D51_SPI_direct_mode/production/_ext/1171490990/libc_syscalls.o
 .text          0x00000000        0x0 build/LAN9253_D51_SPI_direct_mode/production/_ext/1171490990/startup_xc32.o
 .data          0x00000000        0x0 build/LAN9253_D51_SPI_direct_mode/production/_ext/1171490990/startup_xc32.o
 .bss           0x00000000        0x0 build/LAN9253_D51_SPI_direct_mode/production/_ext/1171490990/startup_xc32.o
 .text          0x00000000        0x0 build/LAN9253_D51_SPI_direct_mode/production/_ext/1171490990/tasks.o
 .data          0x00000000        0x0 build/LAN9253_D51_SPI_direct_mode/production/_ext/1171490990/tasks.o
 .bss           0x00000000        0x0 build/LAN9253_D51_SPI_direct_mode/production/_ext/1171490990/tasks.o
 .text          0x00000000        0x0 build/LAN9253_D51_SPI_direct_mode/production/_ext/1671622979/Drivers.o
 .data          0x00000000        0x0 build/LAN9253_D51_SPI_direct_mode/production/_ext/1671622979/Drivers.o
 .bss           0x00000000        0x0 build/LAN9253_D51_SPI_direct_mode/production/_ext/1671622979/Drivers.o
 .text.__NVIC_EnableIRQ
                0x00000000       0x3c build/LAN9253_D51_SPI_direct_mode/production/_ext/1671622979/Drivers.o
 .text.__NVIC_DisableIRQ
                0x00000000       0x44 build/LAN9253_D51_SPI_direct_mode/production/_ext/1671622979/Drivers.o
 .text.EtherCAT_TransmissionFlagClear
                0x00000000       0x18 build/LAN9253_D51_SPI_direct_mode/production/_ext/1671622979/Drivers.o
 .text.EtherCAT_QSPITransmissionBusy
                0x00000000       0x24 build/LAN9253_D51_SPI_direct_mode/production/_ext/1671622979/Drivers.o
 .text.HandleSetupPhase
                0x00000000       0xd0 build/LAN9253_D51_SPI_direct_mode/production/_ext/1671622979/Drivers.o
 .text.HandleDummyPhase
                0x00000000       0x7c build/LAN9253_D51_SPI_direct_mode/production/_ext/1671622979/Drivers.o
 .text.HandleDataPhase
                0x00000000      0x17c build/LAN9253_D51_SPI_direct_mode/production/_ext/1671622979/Drivers.o
 .text.HandleDataAlignment
                0x00000000       0xe8 build/LAN9253_D51_SPI_direct_mode/production/_ext/1671622979/Drivers.o
 .text.PDI_GetTimer
                0x00000000       0x10 build/LAN9253_D51_SPI_direct_mode/production/_ext/1671622979/Drivers.o
 .text.PDI_ClearTimer
                0x00000000        0xe build/LAN9253_D51_SPI_direct_mode/production/_ext/1671622979/Drivers.o
 .text.stop_timer
                0x00000000       0x10 build/LAN9253_D51_SPI_direct_mode/production/_ext/1671622979/Drivers.o
 .text.start_timer
                0x00000000       0x10 build/LAN9253_D51_SPI_direct_mode/production/_ext/1671622979/Drivers.o
 .text.LAN9253SPI_Write
                0x00000000       0x48 build/LAN9253_D51_SPI_direct_mode/production/_ext/1671622979/Drivers.o
 .text.LAN9253SPI_Read
                0x00000000       0x48 build/LAN9253_D51_SPI_direct_mode/production/_ext/1671622979/Drivers.o
 .text.LAN9253SPI_FastRead
                0x00000000      0x110 build/LAN9253_D51_SPI_direct_mode/production/_ext/1671622979/Drivers.o
 .text          0x00000000        0x0 build/LAN9253_D51_SPI_direct_mode/production/_ext/108147519/ESC_Utils.o
 .data          0x00000000        0x0 build/LAN9253_D51_SPI_direct_mode/production/_ext/108147519/ESC_Utils.o
 .bss           0x00000000        0x0 build/LAN9253_D51_SPI_direct_mode/production/_ext/108147519/ESC_Utils.o
 .text          0x00000000        0x0 build/LAN9253_D51_SPI_direct_mode/production/_ext/108147519/LAN925x.o
 .data          0x00000000        0x0 build/LAN9253_D51_SPI_direct_mode/production/_ext/108147519/LAN925x.o
 .bss           0x00000000        0x0 build/LAN9253_D51_SPI_direct_mode/production/_ext/108147519/LAN925x.o
 .text.HW_Release
                0x00000000        0xe build/LAN9253_D51_SPI_direct_mode/production/_ext/108147519/LAN925x.o
 .text.HW_EscWriteMailbox
                0x00000000       0x24 build/LAN9253_D51_SPI_direct_mode/production/_ext/108147519/LAN925x.o
 .text.HW_EscReadMailbox
                0x00000000       0x24 build/LAN9253_D51_SPI_direct_mode/production/_ext/108147519/LAN925x.o
 .text.HW_SetLed
                0x00000000       0x1c build/LAN9253_D51_SPI_direct_mode/production/_ext/108147519/LAN925x.o
 .text          0x00000000        0x0 build/LAN9253_D51_SPI_direct_mode/production/_ext/108134065/bootmode.o
 .data          0x00000000        0x0 build/LAN9253_D51_SPI_direct_mode/production/_ext/108134065/bootmode.o
 .bss           0x00000000        0x0 build/LAN9253_D51_SPI_direct_mode/production/_ext/108134065/bootmode.o
 .text.BL_StartDownload
                0x00000000       0x14 build/LAN9253_D51_SPI_direct_mode/production/_ext/108134065/bootmode.o
 .text.BL_Data  0x00000000       0x1a build/LAN9253_D51_SPI_direct_mode/production/_ext/108134065/bootmode.o
 .text          0x00000000        0x0 build/LAN9253_D51_SPI_direct_mode/production/_ext/108134065/coeappl.o
 .data          0x00000000        0x0 build/LAN9253_D51_SPI_direct_mode/production/_ext/108134065/coeappl.o
 .bss           0x00000000        0x0 build/LAN9253_D51_SPI_direct_mode/production/_ext/108134065/coeappl.o
 .text          0x00000000        0x0 build/LAN9253_D51_SPI_direct_mode/production/_ext/108134065/ecatappl.o
 .data          0x00000000        0x0 build/LAN9253_D51_SPI_direct_mode/production/_ext/108134065/ecatappl.o
 .bss           0x00000000        0x0 build/LAN9253_D51_SPI_direct_mode/production/_ext/108134065/ecatappl.o
 .text          0x00000000        0x0 build/LAN9253_D51_SPI_direct_mode/production/_ext/108134065/ecatcoe.o
 .data          0x00000000        0x0 build/LAN9253_D51_SPI_direct_mode/production/_ext/108134065/ecatcoe.o
 .bss           0x00000000        0x0 build/LAN9253_D51_SPI_direct_mode/production/_ext/108134065/ecatcoe.o
 .text          0x00000000        0x0 build/LAN9253_D51_SPI_direct_mode/production/_ext/108134065/ecatfoe.o
 .data          0x00000000        0x0 build/LAN9253_D51_SPI_direct_mode/production/_ext/108134065/ecatfoe.o
 .bss           0x00000000        0x0 build/LAN9253_D51_SPI_direct_mode/production/_ext/108134065/ecatfoe.o
 .text          0x00000000        0x0 build/LAN9253_D51_SPI_direct_mode/production/_ext/108134065/ecatslv.o
 .data          0x00000000        0x0 build/LAN9253_D51_SPI_direct_mode/production/_ext/108134065/ecatslv.o
 .bss           0x00000000        0x0 build/LAN9253_D51_SPI_direct_mode/production/_ext/108134065/ecatslv.o
 .text.ECAT_StateChange
                0x00000000      0x188 build/LAN9253_D51_SPI_direct_mode/production/_ext/108134065/ecatslv.o
 .text          0x00000000        0x0 build/LAN9253_D51_SPI_direct_mode/production/_ext/108134065/emcy.o
 .data          0x00000000        0x0 build/LAN9253_D51_SPI_direct_mode/production/_ext/108134065/emcy.o
 .bss           0x00000000        0x0 build/LAN9253_D51_SPI_direct_mode/production/_ext/108134065/emcy.o
 .text          0x00000000        0x0 build/LAN9253_D51_SPI_direct_mode/production/_ext/108134065/foeappl.o
 .data          0x00000000        0x0 build/LAN9253_D51_SPI_direct_mode/production/_ext/108134065/foeappl.o
 .bss           0x00000000        0x0 build/LAN9253_D51_SPI_direct_mode/production/_ext/108134065/foeappl.o
 .text          0x00000000        0x0 build/LAN9253_D51_SPI_direct_mode/production/_ext/108134065/mailbox.o
 .data          0x00000000        0x0 build/LAN9253_D51_SPI_direct_mode/production/_ext/108134065/mailbox.o
 .bss           0x00000000        0x0 build/LAN9253_D51_SPI_direct_mode/production/_ext/108134065/mailbox.o
 .text          0x00000000        0x0 build/LAN9253_D51_SPI_direct_mode/production/_ext/108134065/objdef.o
 .data          0x00000000        0x0 build/LAN9253_D51_SPI_direct_mode/production/_ext/108134065/objdef.o
 .bss           0x00000000        0x0 build/LAN9253_D51_SPI_direct_mode/production/_ext/108134065/objdef.o
 .text          0x00000000        0x0 build/LAN9253_D51_SPI_direct_mode/production/_ext/108134065/sample_app.o
 .data          0x00000000        0x0 build/LAN9253_D51_SPI_direct_mode/production/_ext/108134065/sample_app.o
 .bss           0x00000000        0x0 build/LAN9253_D51_SPI_direct_mode/production/_ext/108134065/sample_app.o
 .text          0x00000000        0x0 build/LAN9253_D51_SPI_direct_mode/production/_ext/108134065/sdoserv.o
 .data          0x00000000        0x0 build/LAN9253_D51_SPI_direct_mode/production/_ext/108134065/sdoserv.o
 .bss           0x00000000        0x0 build/LAN9253_D51_SPI_direct_mode/production/_ext/108134065/sdoserv.o
 .text          0x00000000        0x0 build/LAN9253_D51_SPI_direct_mode/production/_ext/1360937237/main.o
 .data          0x00000000        0x0 build/LAN9253_D51_SPI_direct_mode/production/_ext/1360937237/main.o
 .bss           0x00000000        0x0 build/LAN9253_D51_SPI_direct_mode/production/_ext/1360937237/main.o
 .text          0x00000000        0x0 build/LAN9253_D51_SPI_direct_mode/production/_ext/1360937237/app.o
 .data          0x00000000        0x0 build/LAN9253_D51_SPI_direct_mode/production/_ext/1360937237/app.o
 .bss           0x00000000        0x0 build/LAN9253_D51_SPI_direct_mode/production/_ext/1360937237/app.o
 .rodata.gAppBankBOffsetAddr
                0x00000000        0x4 build/LAN9253_D51_SPI_direct_mode/production/_ext/1360937237/app.o
 .rodata.gApplicationStartAddr
                0x00000000        0x4 build/LAN9253_D51_SPI_direct_mode/production/_ext/1360937237/app.o
 .text          0x00000000        0x0 build/LAN9253_D51_SPI_direct_mode/production/_ext/1360937237/Developer_Test.o
 .data          0x00000000        0x0 build/LAN9253_D51_SPI_direct_mode/production/_ext/1360937237/Developer_Test.o
 .bss           0x00000000        0x0 build/LAN9253_D51_SPI_direct_mode/production/_ext/1360937237/Developer_Test.o
 .debug_info    0x00000000     0x198f build/LAN9253_D51_SPI_direct_mode/production/_ext/1360937237/Developer_Test.o
 .debug_abbrev  0x00000000      0x1b3 build/LAN9253_D51_SPI_direct_mode/production/_ext/1360937237/Developer_Test.o
 .debug_aranges
                0x00000000       0x18 build/LAN9253_D51_SPI_direct_mode/production/_ext/1360937237/Developer_Test.o
 .debug_line    0x00000000      0x329 build/LAN9253_D51_SPI_direct_mode/production/_ext/1360937237/Developer_Test.o
 .debug_str     0x00000000        0xe build/LAN9253_D51_SPI_direct_mode/production/_ext/1360937237/Developer_Test.o
 .comment       0x00000000       0x3d build/LAN9253_D51_SPI_direct_mode/production/_ext/1360937237/Developer_Test.o
 .ARM.attributes
                0x00000000       0x39 build/LAN9253_D51_SPI_direct_mode/production/_ext/1360937237/Developer_Test.o
 .text          0x00000000        0x0 c:/program files (x86)/microchip/xc32/v2.30/bin/bin/../../lib/gcc/pic32c/6.2.1/../../../../pic32c/lib/v7e-m/fpv4-sp/hard\libpic32c.a(data_init.o)
 .data          0x00000000        0x0 c:/program files (x86)/microchip/xc32/v2.30/bin/bin/../../lib/gcc/pic32c/6.2.1/../../../../pic32c/lib/v7e-m/fpv4-sp/hard\libpic32c.a(data_init.o)
 .bss           0x00000000        0x0 c:/program files (x86)/microchip/xc32/v2.30/bin/bin/../../lib/gcc/pic32c/6.2.1/../../../../pic32c/lib/v7e-m/fpv4-sp/hard\libpic32c.a(data_init.o)
 .text          0x00000000        0x0 c:/program files (x86)/microchip/xc32/v2.30/bin/bin/../../lib/gcc/pic32c/6.2.1/../../../../pic32c/lib/v7e-m/fpv4-sp/hard\libc.a(lib_a-init.o)
 .data          0x00000000        0x0 c:/program files (x86)/microchip/xc32/v2.30/bin/bin/../../lib/gcc/pic32c/6.2.1/../../../../pic32c/lib/v7e-m/fpv4-sp/hard\libc.a(lib_a-init.o)
 .bss           0x00000000        0x0 c:/program files (x86)/microchip/xc32/v2.30/bin/bin/../../lib/gcc/pic32c/6.2.1/../../../../pic32c/lib/v7e-m/fpv4-sp/hard\libc.a(lib_a-init.o)
 .text          0x00000000        0x0 c:/program files (x86)/microchip/xc32/v2.30/bin/bin/../../lib/gcc/pic32c/6.2.1/../../../../pic32c/lib/v7e-m/fpv4-sp/hard\libc.a(lib_a-malloc.o)
 .data          0x00000000        0x0 c:/program files (x86)/microchip/xc32/v2.30/bin/bin/../../lib/gcc/pic32c/6.2.1/../../../../pic32c/lib/v7e-m/fpv4-sp/hard\libc.a(lib_a-malloc.o)
 .bss           0x00000000        0x0 c:/program files (x86)/microchip/xc32/v2.30/bin/bin/../../lib/gcc/pic32c/6.2.1/../../../../pic32c/lib/v7e-m/fpv4-sp/hard\libc.a(lib_a-malloc.o)
 .text          0x00000000        0x0 c:/program files (x86)/microchip/xc32/v2.30/bin/bin/../../lib/gcc/pic32c/6.2.1/../../../../pic32c/lib/v7e-m/fpv4-sp/hard\libc.a(lib_a-mallocr.o)
 .data          0x00000000        0x0 c:/program files (x86)/microchip/xc32/v2.30/bin/bin/../../lib/gcc/pic32c/6.2.1/../../../../pic32c/lib/v7e-m/fpv4-sp/hard\libc.a(lib_a-mallocr.o)
 .bss           0x00000000        0x0 c:/program files (x86)/microchip/xc32/v2.30/bin/bin/../../lib/gcc/pic32c/6.2.1/../../../../pic32c/lib/v7e-m/fpv4-sp/hard\libc.a(lib_a-mallocr.o)
 .text          0x00000000        0x0 c:/program files (x86)/microchip/xc32/v2.30/bin/bin/../../lib/gcc/pic32c/6.2.1/../../../../pic32c/lib/v7e-m/fpv4-sp/hard\libc.a(lib_a-memcpy-stub.o)
 .data          0x00000000        0x0 c:/program files (x86)/microchip/xc32/v2.30/bin/bin/../../lib/gcc/pic32c/6.2.1/../../../../pic32c/lib/v7e-m/fpv4-sp/hard\libc.a(lib_a-memcpy-stub.o)
 .bss           0x00000000        0x0 c:/program files (x86)/microchip/xc32/v2.30/bin/bin/../../lib/gcc/pic32c/6.2.1/../../../../pic32c/lib/v7e-m/fpv4-sp/hard\libc.a(lib_a-memcpy-stub.o)
 .text          0x00000000        0x0 c:/program files (x86)/microchip/xc32/v2.30/bin/bin/../../lib/gcc/pic32c/6.2.1/../../../../pic32c/lib/v7e-m/fpv4-sp/hard\libc.a(lib_a-memset.o)
 .data          0x00000000        0x0 c:/program files (x86)/microchip/xc32/v2.30/bin/bin/../../lib/gcc/pic32c/6.2.1/../../../../pic32c/lib/v7e-m/fpv4-sp/hard\libc.a(lib_a-memset.o)
 .bss           0x00000000        0x0 c:/program files (x86)/microchip/xc32/v2.30/bin/bin/../../lib/gcc/pic32c/6.2.1/../../../../pic32c/lib/v7e-m/fpv4-sp/hard\libc.a(lib_a-memset.o)
 .text          0x00000000        0x0 c:/program files (x86)/microchip/xc32/v2.30/bin/bin/../../lib/gcc/pic32c/6.2.1/../../../../pic32c/lib/v7e-m/fpv4-sp/hard\libc.a(lib_a-mlock.o)
 .data          0x00000000        0x0 c:/program files (x86)/microchip/xc32/v2.30/bin/bin/../../lib/gcc/pic32c/6.2.1/../../../../pic32c/lib/v7e-m/fpv4-sp/hard\libc.a(lib_a-mlock.o)
 .bss           0x00000000        0x0 c:/program files (x86)/microchip/xc32/v2.30/bin/bin/../../lib/gcc/pic32c/6.2.1/../../../../pic32c/lib/v7e-m/fpv4-sp/hard\libc.a(lib_a-mlock.o)
 .text          0x00000000        0x0 c:/program files (x86)/microchip/xc32/v2.30/bin/bin/../../lib/gcc/pic32c/6.2.1/../../../../pic32c/lib/v7e-m/fpv4-sp/hard\libc.a(lib_a-sbrkr.o)
 .data          0x00000000        0x0 c:/program files (x86)/microchip/xc32/v2.30/bin/bin/../../lib/gcc/pic32c/6.2.1/../../../../pic32c/lib/v7e-m/fpv4-sp/hard\libc.a(lib_a-sbrkr.o)
 .bss           0x00000000        0x0 c:/program files (x86)/microchip/xc32/v2.30/bin/bin/../../lib/gcc/pic32c/6.2.1/../../../../pic32c/lib/v7e-m/fpv4-sp/hard\libc.a(lib_a-sbrkr.o)
 .data          0x00000000        0x0 c:/program files (x86)/microchip/xc32/v2.30/bin/bin/../../lib/gcc/pic32c/6.2.1/../../../../pic32c/lib/v7e-m/fpv4-sp/hard\libc.a(lib_a-strlen.o)
 .bss           0x00000000        0x0 c:/program files (x86)/microchip/xc32/v2.30/bin/bin/../../lib/gcc/pic32c/6.2.1/../../../../pic32c/lib/v7e-m/fpv4-sp/hard\libc.a(lib_a-strlen.o)
 .text          0x00000000        0x0 c:/program files (x86)/microchip/xc32/v2.30/bin/bin/../../lib/gcc/pic32c/6.2.1/../../../../pic32c/lib/v7e-m/fpv4-sp/hard\libc.a(lib_a-freer.o)
 .data          0x00000000        0x0 c:/program files (x86)/microchip/xc32/v2.30/bin/bin/../../lib/gcc/pic32c/6.2.1/../../../../pic32c/lib/v7e-m/fpv4-sp/hard\libc.a(lib_a-freer.o)
 .bss           0x00000000        0x0 c:/program files (x86)/microchip/xc32/v2.30/bin/bin/../../lib/gcc/pic32c/6.2.1/../../../../pic32c/lib/v7e-m/fpv4-sp/hard\libc.a(lib_a-freer.o)
 .text          0x00000000        0x0 c:/program files (x86)/microchip/xc32/v2.30/bin/bin/../../lib/gcc/pic32c/6.2.1/../../../../pic32c/lib/v7e-m/fpv4-sp/hard\libc.a(lib_a-impure.o)
 .data          0x00000000        0x0 c:/program files (x86)/microchip/xc32/v2.30/bin/bin/../../lib/gcc/pic32c/6.2.1/../../../../pic32c/lib/v7e-m/fpv4-sp/hard\libc.a(lib_a-impure.o)
 .bss           0x00000000        0x0 c:/program files (x86)/microchip/xc32/v2.30/bin/bin/../../lib/gcc/pic32c/6.2.1/../../../../pic32c/lib/v7e-m/fpv4-sp/hard\libc.a(lib_a-impure.o)
 .rodata._global_impure_ptr
                0x00000000        0x4 c:/program files (x86)/microchip/xc32/v2.30/bin/bin/../../lib/gcc/pic32c/6.2.1/../../../../pic32c/lib/v7e-m/fpv4-sp/hard\libc.a(lib_a-impure.o)
 .text          0x00000000        0x0 c:/program files (x86)/microchip/xc32/v2.30/bin/bin/../../lib/gcc/pic32c/6.2.1/../../../../pic32c/lib/v7e-m/fpv4-sp/hard\libc.a(lib_a-reent.o)
 .data          0x00000000        0x0 c:/program files (x86)/microchip/xc32/v2.30/bin/bin/../../lib/gcc/pic32c/6.2.1/../../../../pic32c/lib/v7e-m/fpv4-sp/hard\libc.a(lib_a-reent.o)
 .bss           0x00000000        0x0 c:/program files (x86)/microchip/xc32/v2.30/bin/bin/../../lib/gcc/pic32c/6.2.1/../../../../pic32c/lib/v7e-m/fpv4-sp/hard\libc.a(lib_a-reent.o)
 .text.cleanup_glue
                0x00000000       0x1a c:/program files (x86)/microchip/xc32/v2.30/bin/bin/../../lib/gcc/pic32c/6.2.1/../../../../pic32c/lib/v7e-m/fpv4-sp/hard\libc.a(lib_a-reent.o)
 .text._reclaim_reent
                0x00000000       0x84 c:/program files (x86)/microchip/xc32/v2.30/bin/bin/../../lib/gcc/pic32c/6.2.1/../../../../pic32c/lib/v7e-m/fpv4-sp/hard\libc.a(lib_a-reent.o)
 .text          0x00000000        0x0 c:/program files (x86)/microchip/xc32/v2.30/bin/bin/../../lib/gcc/pic32c/6.2.1/../../../../pic32c/lib/v7e-m/fpv4-sp/hard\libpic32c.a(sbrk.o)
 .data          0x00000000        0x0 c:/program files (x86)/microchip/xc32/v2.30/bin/bin/../../lib/gcc/pic32c/6.2.1/../../../../pic32c/lib/v7e-m/fpv4-sp/hard\libpic32c.a(sbrk.o)
 .text          0x00000000        0x0 c:/program files (x86)/microchip/xc32/v2.30/bin/bin/../../lib/gcc/pic32c/6.2.1/v7e-m/fpv4-sp/hard/crtend.o
 .data          0x00000000        0x0 c:/program files (x86)/microchip/xc32/v2.30/bin/bin/../../lib/gcc/pic32c/6.2.1/v7e-m/fpv4-sp/hard/crtend.o
 .bss           0x00000000        0x0 c:/program files (x86)/microchip/xc32/v2.30/bin/bin/../../lib/gcc/pic32c/6.2.1/v7e-m/fpv4-sp/hard/crtend.o
 .eh_frame      0x00000000        0x4 c:/program files (x86)/microchip/xc32/v2.30/bin/bin/../../lib/gcc/pic32c/6.2.1/v7e-m/fpv4-sp/hard/crtend.o
 .comment       0x00000000       0x3d c:/program files (x86)/microchip/xc32/v2.30/bin/bin/../../lib/gcc/pic32c/6.2.1/v7e-m/fpv4-sp/hard/crtend.o
 .ARM.attributes
                0x00000000       0x34 c:/program files (x86)/microchip/xc32/v2.30/bin/bin/../../lib/gcc/pic32c/6.2.1/v7e-m/fpv4-sp/hard/crtend.o
 .text          0x00000000        0x0 c:/program files (x86)/microchip/xc32/v2.30/bin/bin/../../lib/gcc/pic32c/6.2.1/v7e-m/fpv4-sp/hard/crtn.o
 .data          0x00000000        0x0 c:/program files (x86)/microchip/xc32/v2.30/bin/bin/../../lib/gcc/pic32c/6.2.1/v7e-m/fpv4-sp/hard/crtn.o
 .bss           0x00000000        0x0 c:/program files (x86)/microchip/xc32/v2.30/bin/bin/../../lib/gcc/pic32c/6.2.1/v7e-m/fpv4-sp/hard/crtn.o

Memory Configuration

Name             Origin             Length             Attributes
rom              0x00000000         0x00080000         xrl
ram              0x20000000         0x00030000         xw !r
config_00804000  0x00804000         0x00000004
config_00804008  0x00804008         0x00000004
config_00804004  0x00804004         0x00000004
*default*        0x00000000         0xffffffff

Linker script and memory map

LOAD c:/program files (x86)/microchip/xc32/v2.30/bin/bin/../../lib/gcc/pic32c/6.2.1/v7e-m/fpv4-sp/hard/crti.o
LOAD c:/program files (x86)/microchip/xc32/v2.30/bin/bin/../../lib/gcc/pic32c/6.2.1/v7e-m/fpv4-sp/hard/crtbegin.o
LOAD build/LAN9253_D51_SPI_direct_mode/production/_ext/2070931557/drv_spi.o
LOAD build/LAN9253_D51_SPI_direct_mode/production/_ext/1984496892/plib_clock.o
LOAD build/LAN9253_D51_SPI_direct_mode/production/_ext/1865131932/plib_cmcc.o
LOAD build/LAN9253_D51_SPI_direct_mode/production/_ext/1865161661/plib_dmac.o
LOAD build/LAN9253_D51_SPI_direct_mode/production/_ext/60167341/plib_eic.o
LOAD build/LAN9253_D51_SPI_direct_mode/production/_ext/1986646378/plib_evsys.o
LOAD build/LAN9253_D51_SPI_direct_mode/production/_ext/1865468468/plib_nvic.o
LOAD build/LAN9253_D51_SPI_direct_mode/production/_ext/1593096446/plib_nvmctrl.o
LOAD build/LAN9253_D51_SPI_direct_mode/production/_ext/1865521619/plib_port.o
LOAD build/LAN9253_D51_SPI_direct_mode/production/_ext/1865555181/plib_qspi_spi.o
LOAD build/LAN9253_D51_SPI_direct_mode/production/_ext/1865555181/plib_qspi.o
LOAD build/LAN9253_D51_SPI_direct_mode/production/_ext/1827571544/plib_systick.o
LOAD build/LAN9253_D51_SPI_direct_mode/production/_ext/163028504/xc32_monitor.o
LOAD build/LAN9253_D51_SPI_direct_mode/production/_ext/1014039709/sys_cache.o
LOAD build/LAN9253_D51_SPI_direct_mode/production/_ext/14461671/sys_dma.o
LOAD build/LAN9253_D51_SPI_direct_mode/production/_ext/1881668453/sys_int.o
LOAD build/LAN9253_D51_SPI_direct_mode/production/_ext/1171490990/exceptions.o
LOAD build/LAN9253_D51_SPI_direct_mode/production/_ext/1171490990/initialization.o
LOAD build/LAN9253_D51_SPI_direct_mode/production/_ext/1171490990/interrupts.o
LOAD build/LAN9253_D51_SPI_direct_mode/production/_ext/1171490990/libc_syscalls.o
LOAD build/LAN9253_D51_SPI_direct_mode/production/_ext/1171490990/startup_xc32.o
LOAD build/LAN9253_D51_SPI_direct_mode/production/_ext/1171490990/tasks.o
LOAD build/LAN9253_D51_SPI_direct_mode/production/_ext/1671622979/Drivers.o
LOAD build/LAN9253_D51_SPI_direct_mode/production/_ext/108147519/ESC_Utils.o
LOAD build/LAN9253_D51_SPI_direct_mode/production/_ext/108147519/LAN925x.o
LOAD build/LAN9253_D51_SPI_direct_mode/production/_ext/108134065/bootmode.o
LOAD build/LAN9253_D51_SPI_direct_mode/production/_ext/108134065/coeappl.o
LOAD build/LAN9253_D51_SPI_direct_mode/production/_ext/108134065/ecatappl.o
LOAD build/LAN9253_D51_SPI_direct_mode/production/_ext/108134065/ecatcoe.o
LOAD build/LAN9253_D51_SPI_direct_mode/production/_ext/108134065/ecatfoe.o
LOAD build/LAN9253_D51_SPI_direct_mode/production/_ext/108134065/ecatslv.o
LOAD build/LAN9253_D51_SPI_direct_mode/production/_ext/108134065/emcy.o
LOAD build/LAN9253_D51_SPI_direct_mode/production/_ext/108134065/foeappl.o
LOAD build/LAN9253_D51_SPI_direct_mode/production/_ext/108134065/mailbox.o
LOAD build/LAN9253_D51_SPI_direct_mode/production/_ext/108134065/objdef.o
LOAD build/LAN9253_D51_SPI_direct_mode/production/_ext/108134065/sample_app.o
LOAD build/LAN9253_D51_SPI_direct_mode/production/_ext/108134065/sdoserv.o
LOAD build/LAN9253_D51_SPI_direct_mode/production/_ext/1360937237/main.o
LOAD build/LAN9253_D51_SPI_direct_mode/production/_ext/1360937237/app.o
LOAD build/LAN9253_D51_SPI_direct_mode/production/_ext/1360937237/Developer_Test.o
                0x00000001                __MPLAB_BUILD = 0x1
                0x00000200                _min_heap_size = 0x200
START GROUP
LOAD c:/program files (x86)/microchip/xc32/v2.30/bin/bin/../../lib/gcc/pic32c/6.2.1/../../../../pic32c/lib/v7e-m/fpv4-sp/hard\libpic32c.a
LOAD c:/program files (x86)/microchip/xc32/v2.30/bin/bin/../../lib/gcc/pic32c/6.2.1/v7e-m/fpv4-sp/hard\libgcc.a
LOAD c:/program files (x86)/microchip/xc32/v2.30/bin/bin/../../lib/gcc/pic32c/6.2.1/../../../../pic32c/lib/v7e-m/fpv4-sp/hard\libc.a
LOAD c:/program files (x86)/microchip/xc32/v2.30/bin/bin/../../lib/gcc/pic32c/6.2.1/../../../../pic32c/lib/v7e-m/fpv4-sp/hard\libm.a
END GROUP
LOAD c:/program files (x86)/microchip/xc32/v2.30/bin/bin/../../lib/gcc/pic32c/6.2.1/v7e-m/fpv4-sp/hard/crtend.o
LOAD c:/program files (x86)/microchip/xc32/v2.30/bin/bin/../../lib/gcc/pic32c/6.2.1/v7e-m/fpv4-sp/hard/crtn.o
                0x00080000                __rom_end = (ORIGIN (rom) + LENGTH (rom))
                0x20030000                __ram_end = (ORIGIN (ram) + LENGTH (ram))

.config_00804000
 *(.config_00804000)

.config_00804008
 *(.config_00804008)

.config_00804004
 *(.config_00804004)

.vectors        0x00000000      0x260
                0x00000000                . = ALIGN (0x4)
                0x00000000                _sfixed = .
 *(.vectors .vectors.* .vectors_default .vectors_default.*)
 .vectors       0x00000000      0x260 build/LAN9253_D51_SPI_direct_mode/production/_ext/1171490990/interrupts.o
                0x00000000                exception_table
 *(.isr_vector)
 *(.reset*)
 *(.after_vectors)

.text           0x00000260       0x20
                0x00000260                . = ALIGN (0x4)
 *(.glue_7t)
 .glue_7t       0x00000260        0x0 linker stubs
 *(.glue_7)
 .glue_7        0x00000260        0x0 linker stubs
 *(.gnu.linkonce.r.*)
 *(.ARM.extab* .gnu.linkonce.armextab.*)
                0x00000260                . = ALIGN (0x4)
 *(.init)
 .init          0x00000260        0x4 c:/program files (x86)/microchip/xc32/v2.30/bin/bin/../../lib/gcc/pic32c/6.2.1/v7e-m/fpv4-sp/hard/crti.o
                0x00000260                _init
 .init          0x00000264        0x8 c:/program files (x86)/microchip/xc32/v2.30/bin/bin/../../lib/gcc/pic32c/6.2.1/v7e-m/fpv4-sp/hard/crtn.o
                0x0000026c                . = ALIGN (0x4)
                0x0000026c                __preinit_array_start = .
 *(.preinit_array)
                0x0000026c                __preinit_array_end = .
                0x0000026c                . = ALIGN (0x4)
                0x0000026c                __init_array_start = .
 *(SORT(.init_array.*))
 *(.init_array)
 .init_array    0x0000026c        0x4 c:/program files (x86)/microchip/xc32/v2.30/bin/bin/../../lib/gcc/pic32c/6.2.1/v7e-m/fpv4-sp/hard/crtbegin.o
                0x00000270                __init_array_end = .
                0x00000270                . = ALIGN (0x4)
 *crtbegin.o(.ctors)
 *(EXCLUDE_FILE(*crtend.o) .ctors)
 *(SORT(.ctors.*))
 *crtend.o(.ctors)
                0x00000270                . = ALIGN (0x4)
 *(.fini)
 .fini          0x00000270        0x4 c:/program files (x86)/microchip/xc32/v2.30/bin/bin/../../lib/gcc/pic32c/6.2.1/v7e-m/fpv4-sp/hard/crti.o
                0x00000270                _fini
 .fini          0x00000274        0x8 c:/program files (x86)/microchip/xc32/v2.30/bin/bin/../../lib/gcc/pic32c/6.2.1/v7e-m/fpv4-sp/hard/crtn.o
                0x0000027c                . = ALIGN (0x4)
                0x0000027c                __fini_array_start = .
 *(.fini_array)
 .fini_array    0x0000027c        0x4 c:/program files (x86)/microchip/xc32/v2.30/bin/bin/../../lib/gcc/pic32c/6.2.1/v7e-m/fpv4-sp/hard/crtbegin.o
 *(SORT(.fini_array.*))
                0x00000280                __fini_array_end = .
 *crtbegin.o(.dtors)
 *(EXCLUDE_FILE(*crtend.o) .dtors)
 *(SORT(.dtors.*))
 *crtend.o(.dtors)
                0x00000280                . = ALIGN (0x4)
                0x00000280                _efixed = .
                [!provide]                PROVIDE (__exidx_start, .)

.ARM.exidx
 *(.ARM.exidx* .gnu.linkonce.armexidx.*)
                [!provide]                PROVIDE (__exidx_end, .)
                0x00000280                . = ALIGN (0x4)
                0x00000280                _etext = .

.bss            0x20000000     0x3dd4
                0x20000000                . = ALIGN (0x4)
                0x20000000                __bss_start__ = .
                0x20000000                _sbss = .
                0x20000000                _szero = .
 *(COMMON)
 COMMON         0x20000000       0x20 build/LAN9253_D51_SPI_direct_mode/production/_ext/2070931557/drv_spi.o
                0x20000000                transferTxHandle
                0x20000004                transferRxHandle
                0x20000008                setup
                0x2000001c                transferTxRxHandle
 COMMON         0x20000020       0x20 build/LAN9253_D51_SPI_direct_mode/production/_ext/1865161661/plib_dmac.o
                0x20000020                dmacChannelObj
 COMMON         0x20000040       0xc0 build/LAN9253_D51_SPI_direct_mode/production/_ext/60167341/plib_eic.o
                0x20000040                eicCallbackObject
 COMMON         0x20000100       0x28 build/LAN9253_D51_SPI_direct_mode/production/_ext/1865555181/plib_qspi_spi.o
                0x20000100                qspiObj
 COMMON         0x20000128        0xc build/LAN9253_D51_SPI_direct_mode/production/_ext/1827571544/plib_systick.o
                0x20000128                systick
 COMMON         0x20000134        0x8 build/LAN9253_D51_SPI_direct_mode/production/_ext/1171490990/initialization.o
                0x20000134                handle
                0x20000138                sysObj
 COMMON         0x2000013c      0x805 build/LAN9253_D51_SPI_direct_mode/production/_ext/1671622979/Drivers.o
                0x2000013c                gau8DmaBuff
                0x2000093c                gau8ALeventstore
 *fill*         0x20000941        0x3 
 COMMON         0x20000944        0x2 build/LAN9253_D51_SPI_direct_mode/production/_ext/108147519/LAN925x.o
                0x20000944                gEscALEvent
 *fill*         0x20000946        0x2 
 COMMON         0x20000948        0x8 build/LAN9253_D51_SPI_direct_mode/production/_ext/108134065/coeappl.o
                0x20000948                u32LastDc32Value
                0x2000094c                u32CheckForDcOverrunCnt
 COMMON         0x20000950     0x1258 build/LAN9253_D51_SPI_direct_mode/production/_ext/108134065/ecatappl.o
                0x20000950                pAPPL_EEPROM_Store
                0x20000954                bMinCycleTimeMeasurementStarted
                0x20000958                u32CycleTimeStartValue
                0x2000095c                pAPPL_EEPROM_Read
                0x20000960                pAPPL_EEPROM_Write
                0x20000964                bRunApplication
                0x20000968                u32SystemTimeReadFailure
                0x2000096c                bEcatWaitForInputUpdate
                0x20000970                u32MinCycleTimeValue
                0x20000974                aPdOutputData
                0x20001274                pAPPL_FoeError
                0x20001278                u16EepromStoreTimeoutCounter
                0x2000127a                EepromReadSize
                0x2000127c                pAPPL_FoeReadData
                0x20001280                pAPPL_MainLoop
                0x20001284                bEtherCATErrorLed
                0x20001288                u32MinCycleTimeStartValue
                0x2000128c                aPdInputData
                0x20001b8c                pEEPROM
                0x20001b90                bEtherCATRunLed
                0x20001b94                pAPPL_FoeWriteData
                0x20001b98                pAPPL_EEPROM_Reload
                0x20001b9c                pAPPL_FoeRead
                0x20001ba0                u16EepromStoreTimeoutValue
                0x20001ba4                pAPPL_FoeWrite
 COMMON         0x20001ba8        0x4 build/LAN9253_D51_SPI_direct_mode/production/_ext/108134065/ecatcoe.o
                0x20001ba8                pCoeSendStored
 COMMON         0x20001bac       0x16 build/LAN9253_D51_SPI_direct_mode/production/_ext/108134065/ecatfoe.o
                0x20001bac                u32FileOffset
                0x20001bb0                u16FileAccessState
                0x20001bb4                u32PacketNo
                0x20001bb8                pFoeSendStored
                0x20001bbc                u32LastFileOffset
                0x20001bc0                u16FoeMaxSendBlockSize
 *fill*         0x20001bc2        0x2 
 COMMON         0x20001bc4       0x52 build/LAN9253_D51_SPI_direct_mode/production/_ext/108134065/ecatslv.o
                0x20001bc4                b3BufferMode
                0x20001bc6                nEcatStateTrans
                0x20001bc8                EcatWdCounter
                0x20001bca                bApplEsmPending
                0x20001bcb                nAlStatus
                0x20001bcc                nPdOutputSize
                0x20001bce                u16LocalErrorCode
                0x20001bd0                Sync0WdCounter
                0x20001bd2                bLocalErrorFlag
                0x20001bd4                LatchInputSync0Counter
                0x20001bd6                i16WaitForPllRunningCnt
                0x20001bd8                nEscAddrOutputData
                0x20001bda                Sync0WdValue
                0x20001bdc                u8EcatRunLed
                0x20001bde                i16WaitForPllRunningTimeout
                0x20001be0                Sync1WdValue
                0x20001be2                u16ALEventMask
                0x20001be4                bDcRunning
                0x20001be8                u32dummy
                0x20001bec                SyncManInfo
                0x20001bf4                b32BitDc
                0x20001bf6                LatchInputSync0Value
                0x20001bf8                bEcatWaitForAlControlRes
                0x20001bfa                nPdInputSize
                0x20001bfc                u16SmSync0Value
                0x20001bfe                nMaxEscAddress
                0x20001c00                bEcatFirstOutputsReceived
                0x20001c01                bSmSyncSequenceValid
                0x20001c02                EsmTimeoutCounter
                0x20001c04                bBootMode
                0x20001c05                bDcSyncActive
                0x20001c06                bEcatOutputUpdateRunning
                0x20001c08                Sync1WdCounter
                0x20001c0a                EcatWdValue
                0x20001c0c                bEcatInputUpdateRunning
                0x20001c0d                bEscIntEnabled
                0x20001c0e                bWdTrigger
                0x20001c10                u16SmSync0Counter
                0x20001c12                nMaxSyncMan
                0x20001c13                u8EcatErrorLed
                0x20001c14                nEscAddrInputData
 *fill*         0x20001c16        0x2 
 COMMON         0x20001c18       0x28 build/LAN9253_D51_SPI_direct_mode/production/_ext/108134065/emcy.o
                0x20001c18                sSendEmcyQueue
                0x20001c28                asEmcy
                0x20001c30                sEmptyEmcyQueue
 COMMON         0x20001c40       0x94 build/LAN9253_D51_SPI_direct_mode/production/_ext/108134065/mailbox.o
                0x20001c40                u8MbxReadCounter
                0x20001c44                sMbxSendQueue
                0x20001c78                sMbxReceiveQueue
                0x20001cac                bNoMbxMemoryAvailable
                0x20001cad                bSendMbxIsFull
                0x20001cae                bMbxRunning
                0x20001cb0                u16EscAddrReceiveMbx
                0x20001cb4                psStoreMbx
                0x20001cb8                u16SendMbxSize
                0x20001cbc                psReadMbx
                0x20001cc0                bReceiveMbxIsLocked
                0x20001cc2                u16EscAddrSendMbx
                0x20001cc4                psWriteMbx
                0x20001cc8                u8MbxWriteCounter
                0x20001cc9                u8MailboxSendReqStored
                0x20001cca                u16ReceiveMbxSize
                0x20001ccc                bMbxRepeatToggle
                0x20001cd0                psRepeatMbx
 COMMON         0x20001cd4       0x8e build/LAN9253_D51_SPI_direct_mode/production/_ext/108134065/objdef.o
                0x20001cd4                sSyncManInPar
                0x20001d18                sSyncManOutPar
                0x20001d5c                bSyncSetByUser
                0x20001d60                sCycleDiag
 *fill*         0x20001d62        0x2 
 COMMON         0x20001d64     0x2016 build/LAN9253_D51_SPI_direct_mode/production/_ext/108134065/sample_app.o
                0x20001d64                aFileData
                0x20003d64                aFileName
 *fill*         0x20003d7a        0x2 
 COMMON         0x20003d7c       0x4d build/LAN9253_D51_SPI_direct_mode/production/_ext/108134065/sdoserv.o
                0x20003d7c                nSdoInfoIndex
                0x20003d80                pStoreData
                0x20003d84                nSdoSegBytesToHandle
                0x20003d88                bSdoSegAccess
                0x20003d89                bSdoSegFollows
                0x20003d8c                nSdoSegCompleteSize
                0x20003d90                pSdoPendFunc
                0x20003d94                u8PendingSdo
                0x20003d95                bStoreCompleteAccess
                0x20003d96                bSdoSegLastToggle
                0x20003d97                nSdoSegService
                0x20003d98                pSdoInfoObjEntry
                0x20003d9c                nSdoInfoFragmentsLeft
                0x20003da0                pSdoResStored
                0x20003da4                u32StoreDataSize
                0x20003da8                pSdoSegData
                0x20003dac                nSdoSegIndex
                0x20003db0                aSdoInfoHeader
                0x20003dc0                pSdoSegObjEntry
                0x20003dc4                nSdoSegSubindex
                0x20003dc6                u16StoreIndex
                0x20003dc8                u8StoreSubindex
 *fill*         0x20003dc9        0x3 
 COMMON         0x20003dcc        0x1 build/LAN9253_D51_SPI_direct_mode/production/_ext/1360937237/app.o
                0x20003dcc                appData
 *fill*         0x20003dcd        0x3 
 COMMON         0x20003dd0        0x4 c:/program files (x86)/microchip/xc32/v2.30/bin/bin/../../lib/gcc/pic32c/6.2.1/../../../../pic32c/lib/v7e-m/fpv4-sp/hard\libc.a(lib_a-reent.o)
                0x20003dd0                errno
                0x20003dd4                . = ALIGN (0x4)
                0x20003dd4                __bss_end__ = .
                0x20003dd4                _ebss = .
                0x20003dd4                _ezero = .
                0x20003dd4                . = ALIGN (0x4)
                0x20003dd4                _end = .
                0x2002ffff                _ram_end_ = ((ORIGIN (ram) + LENGTH (ram)) - 0x1)
OUTPUT(dist/LAN9253_D51_SPI_direct_mode/production/ESF_EVB_LAN9253.production.elf elf32-littlearm)
LOAD stack
LOAD data_init

.ARM.attributes
                0x00000000       0x30
 .ARM.attributes
                0x00000000       0x22 c:/program files (x86)/microchip/xc32/v2.30/bin/bin/../../lib/gcc/pic32c/6.2.1/v7e-m/fpv4-sp/hard/crti.o
 .ARM.attributes
                0x00000022       0x34 c:/program files (x86)/microchip/xc32/v2.30/bin/bin/../../lib/gcc/pic32c/6.2.1/v7e-m/fpv4-sp/hard/crtbegin.o
 .ARM.attributes
                0x00000056       0x39 build/LAN9253_D51_SPI_direct_mode/production/_ext/2070931557/drv_spi.o
 .ARM.attributes
                0x0000008f       0x39 build/LAN9253_D51_SPI_direct_mode/production/_ext/1984496892/plib_clock.o
 .ARM.attributes
                0x000000c8       0x39 build/LAN9253_D51_SPI_direct_mode/production/_ext/1865161661/plib_dmac.o
 .ARM.attributes
                0x00000101       0x39 build/LAN9253_D51_SPI_direct_mode/production/_ext/60167341/plib_eic.o
 .ARM.attributes
                0x0000013a       0x39 build/LAN9253_D51_SPI_direct_mode/production/_ext/1986646378/plib_evsys.o
 .ARM.attributes
                0x00000173       0x39 build/LAN9253_D51_SPI_direct_mode/production/_ext/1865468468/plib_nvic.o
 .ARM.attributes
                0x000001ac       0x39 build/LAN9253_D51_SPI_direct_mode/production/_ext/1593096446/plib_nvmctrl.o
 .ARM.attributes
                0x000001e5       0x39 build/LAN9253_D51_SPI_direct_mode/production/_ext/1865521619/plib_port.o
 .ARM.attributes
                0x0000021e       0x39 build/LAN9253_D51_SPI_direct_mode/production/_ext/1865555181/plib_qspi_spi.o
 .ARM.attributes
                0x00000257       0x39 build/LAN9253_D51_SPI_direct_mode/production/_ext/1827571544/plib_systick.o
 .ARM.attributes
                0x00000290       0x39 build/LAN9253_D51_SPI_direct_mode/production/_ext/14461671/sys_dma.o
 .ARM.attributes
                0x000002c9       0x39 build/LAN9253_D51_SPI_direct_mode/production/_ext/1881668453/sys_int.o
 .ARM.attributes
                0x00000302       0x39 build/LAN9253_D51_SPI_direct_mode/production/_ext/1171490990/exceptions.o
 .ARM.attributes
                0x0000033b       0x39 build/LAN9253_D51_SPI_direct_mode/production/_ext/1171490990/initialization.o
 .ARM.attributes
                0x00000374       0x39 build/LAN9253_D51_SPI_direct_mode/production/_ext/1171490990/interrupts.o
 .ARM.attributes
                0x000003ad       0x39 build/LAN9253_D51_SPI_direct_mode/production/_ext/1171490990/startup_xc32.o
 .ARM.attributes
                0x000003e6       0x39 build/LAN9253_D51_SPI_direct_mode/production/_ext/1171490990/tasks.o
 .ARM.attributes
                0x0000041f       0x39 build/LAN9253_D51_SPI_direct_mode/production/_ext/1671622979/Drivers.o
 .ARM.attributes
                0x00000458       0x39 build/LAN9253_D51_SPI_direct_mode/production/_ext/108147519/ESC_Utils.o
 .ARM.attributes
                0x00000491       0x39 build/LAN9253_D51_SPI_direct_mode/production/_ext/108147519/LAN925x.o
 .ARM.attributes
                0x000004ca       0x39 build/LAN9253_D51_SPI_direct_mode/production/_ext/108134065/bootmode.o
 .ARM.attributes
                0x00000503       0x39 build/LAN9253_D51_SPI_direct_mode/production/_ext/108134065/coeappl.o
 .ARM.attributes
                0x0000053c       0x39 build/LAN9253_D51_SPI_direct_mode/production/_ext/108134065/ecatappl.o
 .ARM.attributes
                0x00000575       0x39 build/LAN9253_D51_SPI_direct_mode/production/_ext/108134065/ecatcoe.o
 .ARM.attributes
                0x000005ae       0x39 build/LAN9253_D51_SPI_direct_mode/production/_ext/108134065/ecatfoe.o
 .ARM.attributes
                0x000005e7       0x39 build/LAN9253_D51_SPI_direct_mode/production/_ext/108134065/ecatslv.o
 .ARM.attributes
                0x00000620       0x39 build/LAN9253_D51_SPI_direct_mode/production/_ext/108134065/emcy.o
 .ARM.attributes
                0x00000659       0x39 build/LAN9253_D51_SPI_direct_mode/production/_ext/108134065/foeappl.o
 .ARM.attributes
                0x00000692       0x39 build/LAN9253_D51_SPI_direct_mode/production/_ext/108134065/mailbox.o
 .ARM.attributes
                0x000006cb       0x39 build/LAN9253_D51_SPI_direct_mode/production/_ext/108134065/objdef.o
 .ARM.attributes
                0x00000704       0x39 build/LAN9253_D51_SPI_direct_mode/production/_ext/108134065/sample_app.o
 .ARM.attributes
                0x0000073d       0x39 build/LAN9253_D51_SPI_direct_mode/production/_ext/108134065/sdoserv.o
 .ARM.attributes
                0x00000776       0x39 build/LAN9253_D51_SPI_direct_mode/production/_ext/1360937237/main.o
 .ARM.attributes
                0x000007af       0x39 build/LAN9253_D51_SPI_direct_mode/production/_ext/1360937237/app.o
 .ARM.attributes
                0x000007e8       0x34 c:/program files (x86)/microchip/xc32/v2.30/bin/bin/../../lib/gcc/pic32c/6.2.1/../../../../pic32c/lib/v7e-m/fpv4-sp/hard\libpic32c.a(data_init.o)
 .ARM.attributes
                0x0000081c       0x34 c:/program files (x86)/microchip/xc32/v2.30/bin/bin/../../lib/gcc/pic32c/6.2.1/../../../../pic32c/lib/v7e-m/fpv4-sp/hard\libc.a(lib_a-init.o)
 .ARM.attributes
                0x00000850       0x34 c:/program files (x86)/microchip/xc32/v2.30/bin/bin/../../lib/gcc/pic32c/6.2.1/../../../../pic32c/lib/v7e-m/fpv4-sp/hard\libc.a(lib_a-malloc.o)
 .ARM.attributes
                0x00000884       0x34 c:/program files (x86)/microchip/xc32/v2.30/bin/bin/../../lib/gcc/pic32c/6.2.1/../../../../pic32c/lib/v7e-m/fpv4-sp/hard\libc.a(lib_a-mallocr.o)
 .ARM.attributes
                0x000008b8       0x34 c:/program files (x86)/microchip/xc32/v2.30/bin/bin/../../lib/gcc/pic32c/6.2.1/../../../../pic32c/lib/v7e-m/fpv4-sp/hard\libc.a(lib_a-memcpy-stub.o)
 .ARM.attributes
                0x000008ec       0x34 c:/program files (x86)/microchip/xc32/v2.30/bin/bin/../../lib/gcc/pic32c/6.2.1/../../../../pic32c/lib/v7e-m/fpv4-sp/hard\libc.a(lib_a-memset.o)
 .ARM.attributes
                0x00000920       0x34 c:/program files (x86)/microchip/xc32/v2.30/bin/bin/../../lib/gcc/pic32c/6.2.1/../../../../pic32c/lib/v7e-m/fpv4-sp/hard\libc.a(lib_a-mlock.o)
 .ARM.attributes
                0x00000954       0x34 c:/program files (x86)/microchip/xc32/v2.30/bin/bin/../../lib/gcc/pic32c/6.2.1/../../../../pic32c/lib/v7e-m/fpv4-sp/hard\libc.a(lib_a-sbrkr.o)
 .ARM.attributes
                0x00000988       0x1b c:/program files (x86)/microchip/xc32/v2.30/bin/bin/../../lib/gcc/pic32c/6.2.1/../../../../pic32c/lib/v7e-m/fpv4-sp/hard\libc.a(lib_a-strlen.o)
 .ARM.attributes
                0x000009a3       0x34 c:/program files (x86)/microchip/xc32/v2.30/bin/bin/../../lib/gcc/pic32c/6.2.1/../../../../pic32c/lib/v7e-m/fpv4-sp/hard\libc.a(lib_a-freer.o)
 .ARM.attributes
                0x000009d7       0x34 c:/program files (x86)/microchip/xc32/v2.30/bin/bin/../../lib/gcc/pic32c/6.2.1/../../../../pic32c/lib/v7e-m/fpv4-sp/hard\libc.a(lib_a-impure.o)
 .ARM.attributes
                0x00000a0b       0x34 c:/program files (x86)/microchip/xc32/v2.30/bin/bin/../../lib/gcc/pic32c/6.2.1/../../../../pic32c/lib/v7e-m/fpv4-sp/hard\libc.a(lib_a-reent.o)
 .ARM.attributes
                0x00000a3f       0x34 c:/program files (x86)/microchip/xc32/v2.30/bin/bin/../../lib/gcc/pic32c/6.2.1/../../../../pic32c/lib/v7e-m/fpv4-sp/hard\libpic32c.a(sbrk.o)
 .ARM.attributes
                0x00000a73       0x22 c:/program files (x86)/microchip/xc32/v2.30/bin/bin/../../lib/gcc/pic32c/6.2.1/v7e-m/fpv4-sp/hard/crtn.o

.comment        0x00000000       0x3c
 .comment       0x00000000       0x3c c:/program files (x86)/microchip/xc32/v2.30/bin/bin/../../lib/gcc/pic32c/6.2.1/v7e-m/fpv4-sp/hard/crtbegin.o
                                 0x3d (size before relaxing)
 .comment       0x0000003c       0x3d build/LAN9253_D51_SPI_direct_mode/production/_ext/2070931557/drv_spi.o
 .comment       0x0000003c       0x3d build/LAN9253_D51_SPI_direct_mode/production/_ext/1984496892/plib_clock.o
 .comment       0x0000003c       0x3d build/LAN9253_D51_SPI_direct_mode/production/_ext/1865161661/plib_dmac.o
 .comment       0x0000003c       0x3d build/LAN9253_D51_SPI_direct_mode/production/_ext/60167341/plib_eic.o
 .comment       0x0000003c       0x3d build/LAN9253_D51_SPI_direct_mode/production/_ext/1986646378/plib_evsys.o
 .comment       0x0000003c       0x3d build/LAN9253_D51_SPI_direct_mode/production/_ext/1865468468/plib_nvic.o
 .comment       0x0000003c       0x3d build/LAN9253_D51_SPI_direct_mode/production/_ext/1593096446/plib_nvmctrl.o
 .comment       0x0000003c       0x3d build/LAN9253_D51_SPI_direct_mode/production/_ext/1865521619/plib_port.o
 .comment       0x0000003c       0x3d build/LAN9253_D51_SPI_direct_mode/production/_ext/1865555181/plib_qspi_spi.o
 .comment       0x0000003c       0x3d build/LAN9253_D51_SPI_direct_mode/production/_ext/1827571544/plib_systick.o
 .comment       0x0000003c       0x3d build/LAN9253_D51_SPI_direct_mode/production/_ext/14461671/sys_dma.o
 .comment       0x0000003c       0x3d build/LAN9253_D51_SPI_direct_mode/production/_ext/1881668453/sys_int.o
 .comment       0x0000003c       0x3d build/LAN9253_D51_SPI_direct_mode/production/_ext/1171490990/exceptions.o
 .comment       0x0000003c       0x3d build/LAN9253_D51_SPI_direct_mode/production/_ext/1171490990/initialization.o
 .comment       0x0000003c       0x3d build/LAN9253_D51_SPI_direct_mode/production/_ext/1171490990/interrupts.o
 .comment       0x0000003c       0x3d build/LAN9253_D51_SPI_direct_mode/production/_ext/1171490990/startup_xc32.o
 .comment       0x0000003c       0x3d build/LAN9253_D51_SPI_direct_mode/production/_ext/1171490990/tasks.o
 .comment       0x0000003c       0x3d build/LAN9253_D51_SPI_direct_mode/production/_ext/1671622979/Drivers.o
 .comment       0x0000003c       0x3d build/LAN9253_D51_SPI_direct_mode/production/_ext/108147519/ESC_Utils.o
 .comment       0x0000003c       0x3d build/LAN9253_D51_SPI_direct_mode/production/_ext/108147519/LAN925x.o
 .comment       0x0000003c       0x3d build/LAN9253_D51_SPI_direct_mode/production/_ext/108134065/bootmode.o
 .comment       0x0000003c       0x3d build/LAN9253_D51_SPI_direct_mode/production/_ext/108134065/coeappl.o
 .comment       0x0000003c       0x3d build/LAN9253_D51_SPI_direct_mode/production/_ext/108134065/ecatappl.o
 .comment       0x0000003c       0x3d build/LAN9253_D51_SPI_direct_mode/production/_ext/108134065/ecatcoe.o
 .comment       0x0000003c       0x3d build/LAN9253_D51_SPI_direct_mode/production/_ext/108134065/ecatfoe.o
 .comment       0x0000003c       0x3d build/LAN9253_D51_SPI_direct_mode/production/_ext/108134065/ecatslv.o
 .comment       0x0000003c       0x3d build/LAN9253_D51_SPI_direct_mode/production/_ext/108134065/emcy.o
 .comment       0x0000003c       0x3d build/LAN9253_D51_SPI_direct_mode/production/_ext/108134065/foeappl.o
 .comment       0x0000003c       0x3d build/LAN9253_D51_SPI_direct_mode/production/_ext/108134065/mailbox.o
 .comment       0x0000003c       0x3d build/LAN9253_D51_SPI_direct_mode/production/_ext/108134065/objdef.o
 .comment       0x0000003c       0x3d build/LAN9253_D51_SPI_direct_mode/production/_ext/108134065/sample_app.o
 .comment       0x0000003c       0x3d build/LAN9253_D51_SPI_direct_mode/production/_ext/108134065/sdoserv.o
 .comment       0x0000003c       0x3d build/LAN9253_D51_SPI_direct_mode/production/_ext/1360937237/main.o
 .comment       0x0000003c       0x3d build/LAN9253_D51_SPI_direct_mode/production/_ext/1360937237/app.o
 .comment       0x0000003c       0x3d c:/program files (x86)/microchip/xc32/v2.30/bin/bin/../../lib/gcc/pic32c/6.2.1/../../../../pic32c/lib/v7e-m/fpv4-sp/hard\libpic32c.a(data_init.o)
 .comment       0x0000003c       0x3d c:/program files (x86)/microchip/xc32/v2.30/bin/bin/../../lib/gcc/pic32c/6.2.1/../../../../pic32c/lib/v7e-m/fpv4-sp/hard\libc.a(lib_a-init.o)
 .comment       0x0000003c       0x3d c:/program files (x86)/microchip/xc32/v2.30/bin/bin/../../lib/gcc/pic32c/6.2.1/../../../../pic32c/lib/v7e-m/fpv4-sp/hard\libc.a(lib_a-malloc.o)
 .comment       0x0000003c       0x3d c:/program files (x86)/microchip/xc32/v2.30/bin/bin/../../lib/gcc/pic32c/6.2.1/../../../../pic32c/lib/v7e-m/fpv4-sp/hard\libc.a(lib_a-mallocr.o)
 .comment       0x0000003c       0x3d c:/program files (x86)/microchip/xc32/v2.30/bin/bin/../../lib/gcc/pic32c/6.2.1/../../../../pic32c/lib/v7e-m/fpv4-sp/hard\libc.a(lib_a-memcpy-stub.o)
 .comment       0x0000003c       0x3d c:/program files (x86)/microchip/xc32/v2.30/bin/bin/../../lib/gcc/pic32c/6.2.1/../../../../pic32c/lib/v7e-m/fpv4-sp/hard\libc.a(lib_a-memset.o)
 .comment       0x0000003c       0x3d c:/program files (x86)/microchip/xc32/v2.30/bin/bin/../../lib/gcc/pic32c/6.2.1/../../../../pic32c/lib/v7e-m/fpv4-sp/hard\libc.a(lib_a-mlock.o)
 .comment       0x0000003c       0x3d c:/program files (x86)/microchip/xc32/v2.30/bin/bin/../../lib/gcc/pic32c/6.2.1/../../../../pic32c/lib/v7e-m/fpv4-sp/hard\libc.a(lib_a-sbrkr.o)
 .comment       0x0000003c       0x3d c:/program files (x86)/microchip/xc32/v2.30/bin/bin/../../lib/gcc/pic32c/6.2.1/../../../../pic32c/lib/v7e-m/fpv4-sp/hard\libc.a(lib_a-freer.o)
 .comment       0x0000003c       0x3d c:/program files (x86)/microchip/xc32/v2.30/bin/bin/../../lib/gcc/pic32c/6.2.1/../../../../pic32c/lib/v7e-m/fpv4-sp/hard\libc.a(lib_a-impure.o)
 .comment       0x0000003c       0x3d c:/program files (x86)/microchip/xc32/v2.30/bin/bin/../../lib/gcc/pic32c/6.2.1/../../../../pic32c/lib/v7e-m/fpv4-sp/hard\libc.a(lib_a-reent.o)
 .comment       0x0000003c       0x3d c:/program files (x86)/microchip/xc32/v2.30/bin/bin/../../lib/gcc/pic32c/6.2.1/../../../../pic32c/lib/v7e-m/fpv4-sp/hard\libpic32c.a(sbrk.o)

.debug_info     0x00000000    0x5ee37
 .debug_info    0x00000000     0x4e36 build/LAN9253_D51_SPI_direct_mode/production/_ext/2070931557/drv_spi.o
 .debug_info    0x00004e36      0xbc8 build/LAN9253_D51_SPI_direct_mode/production/_ext/1984496892/plib_clock.o
 .debug_info    0x000059fe     0x2cc3 build/LAN9253_D51_SPI_direct_mode/production/_ext/1865161661/plib_dmac.o
 .debug_info    0x000086c1      0x836 build/LAN9253_D51_SPI_direct_mode/production/_ext/60167341/plib_eic.o
 .debug_info    0x00008ef7      0x3b1 build/LAN9253_D51_SPI_direct_mode/production/_ext/1986646378/plib_evsys.o
 .debug_info    0x000092a8     0x1144 build/LAN9253_D51_SPI_direct_mode/production/_ext/1865468468/plib_nvic.o
 .debug_info    0x0000a3ec     0x1711 build/LAN9253_D51_SPI_direct_mode/production/_ext/1593096446/plib_nvmctrl.o
 .debug_info    0x0000bafd      0x86d build/LAN9253_D51_SPI_direct_mode/production/_ext/1865521619/plib_port.o
 .debug_info    0x0000c36a     0x2294 build/LAN9253_D51_SPI_direct_mode/production/_ext/1865555181/plib_qspi_spi.o
 .debug_info    0x0000e5fe      0x70c build/LAN9253_D51_SPI_direct_mode/production/_ext/1827571544/plib_systick.o
 .debug_info    0x0000ed0a     0x14c5 build/LAN9253_D51_SPI_direct_mode/production/_ext/14461671/sys_dma.o
 .debug_info    0x000101cf     0x114a build/LAN9253_D51_SPI_direct_mode/production/_ext/1881668453/sys_int.o
 .debug_info    0x00011319     0x1a8d build/LAN9253_D51_SPI_direct_mode/production/_ext/1171490990/exceptions.o
 .debug_info    0x00012da6     0x32f1 build/LAN9253_D51_SPI_direct_mode/production/_ext/1171490990/initialization.o
 .debug_info    0x00016097     0x2d69 build/LAN9253_D51_SPI_direct_mode/production/_ext/1171490990/interrupts.o
 .debug_info    0x00018e00     0x1e96 build/LAN9253_D51_SPI_direct_mode/production/_ext/1171490990/startup_xc32.o
 .debug_info    0x0001ac96     0x19bd build/LAN9253_D51_SPI_direct_mode/production/_ext/1171490990/tasks.o
 .debug_info    0x0001c653     0x4196 build/LAN9253_D51_SPI_direct_mode/production/_ext/1671622979/Drivers.o
 .debug_info    0x000207e9     0x1bf4 build/LAN9253_D51_SPI_direct_mode/production/_ext/108147519/ESC_Utils.o
 .debug_info    0x000223dd     0x28ab build/LAN9253_D51_SPI_direct_mode/production/_ext/108147519/LAN925x.o
 .debug_info    0x00024c88     0x12a3 build/LAN9253_D51_SPI_direct_mode/production/_ext/108134065/bootmode.o
 .debug_info    0x00025f2b     0x5b8d build/LAN9253_D51_SPI_direct_mode/production/_ext/108134065/coeappl.o
 .debug_info    0x0002bab8     0x5663 build/LAN9253_D51_SPI_direct_mode/production/_ext/108134065/ecatappl.o
 .debug_info    0x0003111b     0x16bb build/LAN9253_D51_SPI_direct_mode/production/_ext/108134065/ecatcoe.o
 .debug_info    0x000327d6     0x248e build/LAN9253_D51_SPI_direct_mode/production/_ext/108134065/ecatfoe.o
 .debug_info    0x00034c64     0x5a34 build/LAN9253_D51_SPI_direct_mode/production/_ext/108134065/ecatslv.o
 .debug_info    0x0003a698     0x2516 build/LAN9253_D51_SPI_direct_mode/production/_ext/108134065/emcy.o
 .debug_info    0x0003cbae     0x297e build/LAN9253_D51_SPI_direct_mode/production/_ext/108134065/foeappl.o
 .debug_info    0x0003f52c     0x2bd3 build/LAN9253_D51_SPI_direct_mode/production/_ext/108134065/mailbox.o
 .debug_info    0x000420ff     0x31e1 build/LAN9253_D51_SPI_direct_mode/production/_ext/108134065/objdef.o
 .debug_info    0x000452e0     0x5a6f build/LAN9253_D51_SPI_direct_mode/production/_ext/108134065/sample_app.o
 .debug_info    0x0004ad4f     0x34e6 build/LAN9253_D51_SPI_direct_mode/production/_ext/108134065/sdoserv.o
 .debug_info    0x0004e235     0x19ac build/LAN9253_D51_SPI_direct_mode/production/_ext/1360937237/main.o
 .debug_info    0x0004fbe1     0x540e build/LAN9253_D51_SPI_direct_mode/production/_ext/1360937237/app.o
 .debug_info    0x00054fef      0x2a2 c:/program files (x86)/microchip/xc32/v2.30/bin/bin/../../lib/gcc/pic32c/6.2.1/../../../../pic32c/lib/v7e-m/fpv4-sp/hard\libpic32c.a(data_init.o)
 .debug_info    0x00055291      0x41a c:/program files (x86)/microchip/xc32/v2.30/bin/bin/../../lib/gcc/pic32c/6.2.1/../../../../pic32c/lib/v7e-m/fpv4-sp/hard\libc.a(lib_a-init.o)
 .debug_info    0x000556ab      0xe58 c:/program files (x86)/microchip/xc32/v2.30/bin/bin/../../lib/gcc/pic32c/6.2.1/../../../../pic32c/lib/v7e-m/fpv4-sp/hard\libc.a(lib_a-malloc.o)
 .debug_info    0x00056503     0x14ca c:/program files (x86)/microchip/xc32/v2.30/bin/bin/../../lib/gcc/pic32c/6.2.1/../../../../pic32c/lib/v7e-m/fpv4-sp/hard\libc.a(lib_a-mallocr.o)
 .debug_info    0x000579cd      0xe2e c:/program files (x86)/microchip/xc32/v2.30/bin/bin/../../lib/gcc/pic32c/6.2.1/../../../../pic32c/lib/v7e-m/fpv4-sp/hard\libc.a(lib_a-memcpy-stub.o)
 .debug_info    0x000587fb     0x156f c:/program files (x86)/microchip/xc32/v2.30/bin/bin/../../lib/gcc/pic32c/6.2.1/../../../../pic32c/lib/v7e-m/fpv4-sp/hard\libc.a(lib_a-memset.o)
 .debug_info    0x00059d6a      0xdf2 c:/program files (x86)/microchip/xc32/v2.30/bin/bin/../../lib/gcc/pic32c/6.2.1/../../../../pic32c/lib/v7e-m/fpv4-sp/hard\libc.a(lib_a-mlock.o)
 .debug_info    0x0005ab5c      0xea5 c:/program files (x86)/microchip/xc32/v2.30/bin/bin/../../lib/gcc/pic32c/6.2.1/../../../../pic32c/lib/v7e-m/fpv4-sp/hard\libc.a(lib_a-sbrkr.o)
 .debug_info    0x0005ba01      0x125 c:/program files (x86)/microchip/xc32/v2.30/bin/bin/../../lib/gcc/pic32c/6.2.1/../../../../pic32c/lib/v7e-m/fpv4-sp/hard\libc.a(lib_a-strlen.o)
 .debug_info    0x0005bb26     0x137d c:/program files (x86)/microchip/xc32/v2.30/bin/bin/../../lib/gcc/pic32c/6.2.1/../../../../pic32c/lib/v7e-m/fpv4-sp/hard\libc.a(lib_a-freer.o)
 .debug_info    0x0005cea3      0xdb5 c:/program files (x86)/microchip/xc32/v2.30/bin/bin/../../lib/gcc/pic32c/6.2.1/../../../../pic32c/lib/v7e-m/fpv4-sp/hard\libc.a(lib_a-impure.o)
 .debug_info    0x0005dc58      0xf59 c:/program files (x86)/microchip/xc32/v2.30/bin/bin/../../lib/gcc/pic32c/6.2.1/../../../../pic32c/lib/v7e-m/fpv4-sp/hard\libc.a(lib_a-reent.o)
 .debug_info    0x0005ebb1      0x286 c:/program files (x86)/microchip/xc32/v2.30/bin/bin/../../lib/gcc/pic32c/6.2.1/../../../../pic32c/lib/v7e-m/fpv4-sp/hard\libpic32c.a(sbrk.o)

.debug_abbrev   0x00000000     0x630a
 .debug_abbrev  0x00000000      0x454 build/LAN9253_D51_SPI_direct_mode/production/_ext/2070931557/drv_spi.o
 .debug_abbrev  0x00000454       0xfd build/LAN9253_D51_SPI_direct_mode/production/_ext/1984496892/plib_clock.o
 .debug_abbrev  0x00000551      0x345 build/LAN9253_D51_SPI_direct_mode/production/_ext/1865161661/plib_dmac.o
 .debug_abbrev  0x00000896      0x15d build/LAN9253_D51_SPI_direct_mode/production/_ext/60167341/plib_eic.o
 .debug_abbrev  0x000009f3       0x5e build/LAN9253_D51_SPI_direct_mode/production/_ext/1986646378/plib_evsys.o
 .debug_abbrev  0x00000a51      0x14d build/LAN9253_D51_SPI_direct_mode/production/_ext/1865468468/plib_nvic.o
 .debug_abbrev  0x00000b9e      0x25d build/LAN9253_D51_SPI_direct_mode/production/_ext/1593096446/plib_nvmctrl.o
 .debug_abbrev  0x00000dfb      0x151 build/LAN9253_D51_SPI_direct_mode/production/_ext/1865521619/plib_port.o
 .debug_abbrev  0x00000f4c      0x29a build/LAN9253_D51_SPI_direct_mode/production/_ext/1865555181/plib_qspi_spi.o
 .debug_abbrev  0x000011e6      0x15c build/LAN9253_D51_SPI_direct_mode/production/_ext/1827571544/plib_systick.o
 .debug_abbrev  0x00001342      0x1e7 build/LAN9253_D51_SPI_direct_mode/production/_ext/14461671/sys_dma.o
 .debug_abbrev  0x00001529      0x206 build/LAN9253_D51_SPI_direct_mode/production/_ext/1881668453/sys_int.o
 .debug_abbrev  0x0000172f      0x1d1 build/LAN9253_D51_SPI_direct_mode/production/_ext/1171490990/exceptions.o
 .debug_abbrev  0x00001900      0x23a build/LAN9253_D51_SPI_direct_mode/production/_ext/1171490990/initialization.o
 .debug_abbrev  0x00001b3a      0x1d1 build/LAN9253_D51_SPI_direct_mode/production/_ext/1171490990/interrupts.o
 .debug_abbrev  0x00001d0b      0x2a9 build/LAN9253_D51_SPI_direct_mode/production/_ext/1171490990/startup_xc32.o
 .debug_abbrev  0x00001fb4      0x1d1 build/LAN9253_D51_SPI_direct_mode/production/_ext/1171490990/tasks.o
 .debug_abbrev  0x00002185      0x423 build/LAN9253_D51_SPI_direct_mode/production/_ext/1671622979/Drivers.o
 .debug_abbrev  0x000025a8      0x232 build/LAN9253_D51_SPI_direct_mode/production/_ext/108147519/ESC_Utils.o
 .debug_abbrev  0x000027da      0x2c3 build/LAN9253_D51_SPI_direct_mode/production/_ext/108147519/LAN925x.o
 .debug_abbrev  0x00002a9d      0x1f9 build/LAN9253_D51_SPI_direct_mode/production/_ext/108134065/bootmode.o
 .debug_abbrev  0x00002c96      0x300 build/LAN9253_D51_SPI_direct_mode/production/_ext/108134065/coeappl.o
 .debug_abbrev  0x00002f96      0x2c6 build/LAN9253_D51_SPI_direct_mode/production/_ext/108134065/ecatappl.o
 .debug_abbrev  0x0000325c      0x1ee build/LAN9253_D51_SPI_direct_mode/production/_ext/108134065/ecatcoe.o
 .debug_abbrev  0x0000344a      0x283 build/LAN9253_D51_SPI_direct_mode/production/_ext/108134065/ecatfoe.o
 .debug_abbrev  0x000036cd      0x2fb build/LAN9253_D51_SPI_direct_mode/production/_ext/108134065/ecatslv.o
 .debug_abbrev  0x000039c8      0x2c7 build/LAN9253_D51_SPI_direct_mode/production/_ext/108134065/emcy.o
 .debug_abbrev  0x00003c8f      0x29b build/LAN9253_D51_SPI_direct_mode/production/_ext/108134065/foeappl.o
 .debug_abbrev  0x00003f2a      0x2ba build/LAN9253_D51_SPI_direct_mode/production/_ext/108134065/mailbox.o
 .debug_abbrev  0x000041e4      0x2ec build/LAN9253_D51_SPI_direct_mode/production/_ext/108134065/objdef.o
 .debug_abbrev  0x000044d0      0x394 build/LAN9253_D51_SPI_direct_mode/production/_ext/108134065/sample_app.o
 .debug_abbrev  0x00004864      0x309 build/LAN9253_D51_SPI_direct_mode/production/_ext/108134065/sdoserv.o
 .debug_abbrev  0x00004b6d      0x1d3 build/LAN9253_D51_SPI_direct_mode/production/_ext/1360937237/main.o
 .debug_abbrev  0x00004d40      0x304 build/LAN9253_D51_SPI_direct_mode/production/_ext/1360937237/app.o
 .debug_abbrev  0x00005044       0x2a c:/program files (x86)/microchip/xc32/v2.30/bin/bin/../../lib/gcc/pic32c/6.2.1/../../../../pic32c/lib/v7e-m/fpv4-sp/hard\libpic32c.a(data_init.o)
 .debug_abbrev  0x0000506e       0xa3 c:/program files (x86)/microchip/xc32/v2.30/bin/bin/../../lib/gcc/pic32c/6.2.1/../../../../pic32c/lib/v7e-m/fpv4-sp/hard\libc.a(lib_a-init.o)
 .debug_abbrev  0x00005111      0x1f8 c:/program files (x86)/microchip/xc32/v2.30/bin/bin/../../lib/gcc/pic32c/6.2.1/../../../../pic32c/lib/v7e-m/fpv4-sp/hard\libc.a(lib_a-malloc.o)
 .debug_abbrev  0x00005309      0x29b c:/program files (x86)/microchip/xc32/v2.30/bin/bin/../../lib/gcc/pic32c/6.2.1/../../../../pic32c/lib/v7e-m/fpv4-sp/hard\libc.a(lib_a-mallocr.o)
 .debug_abbrev  0x000055a4      0x1c1 c:/program files (x86)/microchip/xc32/v2.30/bin/bin/../../lib/gcc/pic32c/6.2.1/../../../../pic32c/lib/v7e-m/fpv4-sp/hard\libc.a(lib_a-memcpy-stub.o)
 .debug_abbrev  0x00005765      0x1b5 c:/program files (x86)/microchip/xc32/v2.30/bin/bin/../../lib/gcc/pic32c/6.2.1/../../../../pic32c/lib/v7e-m/fpv4-sp/hard\libc.a(lib_a-memset.o)
 .debug_abbrev  0x0000591a      0x1aa c:/program files (x86)/microchip/xc32/v2.30/bin/bin/../../lib/gcc/pic32c/6.2.1/../../../../pic32c/lib/v7e-m/fpv4-sp/hard\libc.a(lib_a-mlock.o)
 .debug_abbrev  0x00005ac4      0x1ed c:/program files (x86)/microchip/xc32/v2.30/bin/bin/../../lib/gcc/pic32c/6.2.1/../../../../pic32c/lib/v7e-m/fpv4-sp/hard\libc.a(lib_a-sbrkr.o)
 .debug_abbrev  0x00005cb1       0x14 c:/program files (x86)/microchip/xc32/v2.30/bin/bin/../../lib/gcc/pic32c/6.2.1/../../../../pic32c/lib/v7e-m/fpv4-sp/hard\libc.a(lib_a-strlen.o)
 .debug_abbrev  0x00005cc5      0x24d c:/program files (x86)/microchip/xc32/v2.30/bin/bin/../../lib/gcc/pic32c/6.2.1/../../../../pic32c/lib/v7e-m/fpv4-sp/hard\libc.a(lib_a-freer.o)
 .debug_abbrev  0x00005f12      0x176 c:/program files (x86)/microchip/xc32/v2.30/bin/bin/../../lib/gcc/pic32c/6.2.1/../../../../pic32c/lib/v7e-m/fpv4-sp/hard\libc.a(lib_a-impure.o)
 .debug_abbrev  0x00006088      0x258 c:/program files (x86)/microchip/xc32/v2.30/bin/bin/../../lib/gcc/pic32c/6.2.1/../../../../pic32c/lib/v7e-m/fpv4-sp/hard\libc.a(lib_a-reent.o)
 .debug_abbrev  0x000062e0       0x2a c:/program files (x86)/microchip/xc32/v2.30/bin/bin/../../lib/gcc/pic32c/6.2.1/../../../../pic32c/lib/v7e-m/fpv4-sp/hard\libpic32c.a(sbrk.o)

.debug_loc      0x00000000     0x7762
 .debug_loc     0x00000000      0xd48 build/LAN9253_D51_SPI_direct_mode/production/_ext/2070931557/drv_spi.o
 .debug_loc     0x00000d48      0x208 build/LAN9253_D51_SPI_direct_mode/production/_ext/1984496892/plib_clock.o
 .debug_loc     0x00000f50      0x5c4 build/LAN9253_D51_SPI_direct_mode/production/_ext/1865161661/plib_dmac.o
 .debug_loc     0x00001514      0x1dc build/LAN9253_D51_SPI_direct_mode/production/_ext/60167341/plib_eic.o
 .debug_loc     0x000016f0       0x44 build/LAN9253_D51_SPI_direct_mode/production/_ext/1986646378/plib_evsys.o
 .debug_loc     0x00001734      0x140 build/LAN9253_D51_SPI_direct_mode/production/_ext/1865468468/plib_nvic.o
 .debug_loc     0x00001874      0x5c0 build/LAN9253_D51_SPI_direct_mode/production/_ext/1593096446/plib_nvmctrl.o
 .debug_loc     0x00001e34      0x324 build/LAN9253_D51_SPI_direct_mode/production/_ext/1865521619/plib_port.o
 .debug_loc     0x00002158      0x28c build/LAN9253_D51_SPI_direct_mode/production/_ext/1865555181/plib_qspi_spi.o
 .debug_loc     0x000023e4      0x31c build/LAN9253_D51_SPI_direct_mode/production/_ext/1827571544/plib_systick.o
 .debug_loc     0x00002700       0xa0 build/LAN9253_D51_SPI_direct_mode/production/_ext/14461671/sys_dma.o
 .debug_loc     0x000027a0      0x2b0 build/LAN9253_D51_SPI_direct_mode/production/_ext/1881668453/sys_int.o
 .debug_loc     0x00002a50      0x108 build/LAN9253_D51_SPI_direct_mode/production/_ext/1171490990/exceptions.o
 .debug_loc     0x00002b58       0x50 build/LAN9253_D51_SPI_direct_mode/production/_ext/1171490990/initialization.o
 .debug_loc     0x00002ba8      0x11c build/LAN9253_D51_SPI_direct_mode/production/_ext/1171490990/startup_xc32.o
 .debug_loc     0x00002cc4       0x2c build/LAN9253_D51_SPI_direct_mode/production/_ext/1171490990/tasks.o
 .debug_loc     0x00002cf0      0xc28 build/LAN9253_D51_SPI_direct_mode/production/_ext/1671622979/Drivers.o
 .debug_loc     0x00003918      0x130 build/LAN9253_D51_SPI_direct_mode/production/_ext/108147519/ESC_Utils.o
 .debug_loc     0x00003a48      0x4b0 build/LAN9253_D51_SPI_direct_mode/production/_ext/108147519/LAN925x.o
 .debug_loc     0x00003ef8      0x158 build/LAN9253_D51_SPI_direct_mode/production/_ext/108134065/bootmode.o
 .debug_loc     0x00004050      0x370 build/LAN9253_D51_SPI_direct_mode/production/_ext/108134065/coeappl.o
 .debug_loc     0x000043c0      0x330 build/LAN9253_D51_SPI_direct_mode/production/_ext/108134065/ecatappl.o
 .debug_loc     0x000046f0       0xe4 build/LAN9253_D51_SPI_direct_mode/production/_ext/108134065/ecatcoe.o
 .debug_loc     0x000047d4       0xe4 build/LAN9253_D51_SPI_direct_mode/production/_ext/108134065/ecatfoe.o
 .debug_loc     0x000048b8      0x682 build/LAN9253_D51_SPI_direct_mode/production/_ext/108134065/ecatslv.o
 .debug_loc     0x00004f3a      0x2f4 build/LAN9253_D51_SPI_direct_mode/production/_ext/108134065/emcy.o
 .debug_loc     0x0000522e      0x1e0 build/LAN9253_D51_SPI_direct_mode/production/_ext/108134065/foeappl.o
 .debug_loc     0x0000540e      0x428 build/LAN9253_D51_SPI_direct_mode/production/_ext/108134065/mailbox.o
 .debug_loc     0x00005836      0x40e build/LAN9253_D51_SPI_direct_mode/production/_ext/108134065/objdef.o
 .debug_loc     0x00005c44      0x674 build/LAN9253_D51_SPI_direct_mode/production/_ext/108134065/sample_app.o
 .debug_loc     0x000062b8      0x210 build/LAN9253_D51_SPI_direct_mode/production/_ext/108134065/sdoserv.o
 .debug_loc     0x000064c8       0x2c build/LAN9253_D51_SPI_direct_mode/production/_ext/1360937237/main.o
 .debug_loc     0x000064f4      0x206 build/LAN9253_D51_SPI_direct_mode/production/_ext/1360937237/app.o
 .debug_loc     0x000066fa       0x74 c:/program files (x86)/microchip/xc32/v2.30/bin/bin/../../lib/gcc/pic32c/6.2.1/../../../../pic32c/lib/v7e-m/fpv4-sp/hard\libc.a(lib_a-init.o)
 .debug_loc     0x0000676e       0x58 c:/program files (x86)/microchip/xc32/v2.30/bin/bin/../../lib/gcc/pic32c/6.2.1/../../../../pic32c/lib/v7e-m/fpv4-sp/hard\libc.a(lib_a-malloc.o)
 .debug_loc     0x000067c6      0x875 c:/program files (x86)/microchip/xc32/v2.30/bin/bin/../../lib/gcc/pic32c/6.2.1/../../../../pic32c/lib/v7e-m/fpv4-sp/hard\libc.a(lib_a-mallocr.o)
 .debug_loc     0x0000703b       0xb2 c:/program files (x86)/microchip/xc32/v2.30/bin/bin/../../lib/gcc/pic32c/6.2.1/../../../../pic32c/lib/v7e-m/fpv4-sp/hard\libc.a(lib_a-memcpy-stub.o)
 .debug_loc     0x000070ed       0x4c c:/program files (x86)/microchip/xc32/v2.30/bin/bin/../../lib/gcc/pic32c/6.2.1/../../../../pic32c/lib/v7e-m/fpv4-sp/hard\libc.a(lib_a-memset.o)
 .debug_loc     0x00007139       0x6d c:/program files (x86)/microchip/xc32/v2.30/bin/bin/../../lib/gcc/pic32c/6.2.1/../../../../pic32c/lib/v7e-m/fpv4-sp/hard\libc.a(lib_a-sbrkr.o)
 .debug_loc     0x000071a6      0x42d c:/program files (x86)/microchip/xc32/v2.30/bin/bin/../../lib/gcc/pic32c/6.2.1/../../../../pic32c/lib/v7e-m/fpv4-sp/hard\libc.a(lib_a-freer.o)
 .debug_loc     0x000075d3      0x18f c:/program files (x86)/microchip/xc32/v2.30/bin/bin/../../lib/gcc/pic32c/6.2.1/../../../../pic32c/lib/v7e-m/fpv4-sp/hard\libc.a(lib_a-reent.o)

.debug_aranges  0x00000000      0xf90
 .debug_aranges
                0x00000000      0x160 build/LAN9253_D51_SPI_direct_mode/production/_ext/2070931557/drv_spi.o
 .debug_aranges
                0x00000160       0x58 build/LAN9253_D51_SPI_direct_mode/production/_ext/1984496892/plib_clock.o
 .debug_aranges
                0x000001b8       0xa8 build/LAN9253_D51_SPI_direct_mode/production/_ext/1865161661/plib_dmac.o
 .debug_aranges
                0x00000260       0x50 build/LAN9253_D51_SPI_direct_mode/production/_ext/60167341/plib_eic.o
 .debug_aranges
                0x000002b0       0x20 build/LAN9253_D51_SPI_direct_mode/production/_ext/1986646378/plib_evsys.o
 .debug_aranges
                0x000002d0       0x38 build/LAN9253_D51_SPI_direct_mode/production/_ext/1865468468/plib_nvic.o
 .debug_aranges
                0x00000308       0xb0 build/LAN9253_D51_SPI_direct_mode/production/_ext/1593096446/plib_nvmctrl.o
 .debug_aranges
                0x000003b8       0x60 build/LAN9253_D51_SPI_direct_mode/production/_ext/1865521619/plib_port.o
 .debug_aranges
                0x00000418       0x58 build/LAN9253_D51_SPI_direct_mode/production/_ext/1865555181/plib_qspi_spi.o
 .debug_aranges
                0x00000470       0x70 build/LAN9253_D51_SPI_direct_mode/production/_ext/1827571544/plib_systick.o
 .debug_aranges
                0x000004e0       0x28 build/LAN9253_D51_SPI_direct_mode/production/_ext/14461671/sys_dma.o
 .debug_aranges
                0x00000508       0x58 build/LAN9253_D51_SPI_direct_mode/production/_ext/1881668453/sys_int.o
 .debug_aranges
                0x00000560       0x48 build/LAN9253_D51_SPI_direct_mode/production/_ext/1171490990/exceptions.o
 .debug_aranges
                0x000005a8       0x20 build/LAN9253_D51_SPI_direct_mode/production/_ext/1171490990/initialization.o
 .debug_aranges
                0x000005c8       0x20 build/LAN9253_D51_SPI_direct_mode/production/_ext/1171490990/interrupts.o
 .debug_aranges
                0x000005e8       0x38 build/LAN9253_D51_SPI_direct_mode/production/_ext/1171490990/startup_xc32.o
 .debug_aranges
                0x00000620       0x20 build/LAN9253_D51_SPI_direct_mode/production/_ext/1171490990/tasks.o
 .debug_aranges
                0x00000640      0x160 build/LAN9253_D51_SPI_direct_mode/production/_ext/1671622979/Drivers.o
 .debug_aranges
                0x000007a0       0x40 build/LAN9253_D51_SPI_direct_mode/production/_ext/108147519/ESC_Utils.o
 .debug_aranges
                0x000007e0       0x90 build/LAN9253_D51_SPI_direct_mode/production/_ext/108147519/LAN925x.o
 .debug_aranges
                0x00000870       0x38 build/LAN9253_D51_SPI_direct_mode/production/_ext/108134065/bootmode.o
 .debug_aranges
                0x000008a8       0x70 build/LAN9253_D51_SPI_direct_mode/production/_ext/108134065/coeappl.o
 .debug_aranges
                0x00000918       0x78 build/LAN9253_D51_SPI_direct_mode/production/_ext/108134065/ecatappl.o
 .debug_aranges
                0x00000990       0x30 build/LAN9253_D51_SPI_direct_mode/production/_ext/108134065/ecatcoe.o
 .debug_aranges
                0x000009c0       0x30 build/LAN9253_D51_SPI_direct_mode/production/_ext/108134065/ecatfoe.o
 .debug_aranges
                0x000009f0       0xc8 build/LAN9253_D51_SPI_direct_mode/production/_ext/108134065/ecatslv.o
 .debug_aranges
                0x00000ab8       0x60 build/LAN9253_D51_SPI_direct_mode/production/_ext/108134065/emcy.o
 .debug_aranges
                0x00000b18       0x48 build/LAN9253_D51_SPI_direct_mode/production/_ext/108134065/foeappl.o
 .debug_aranges
                0x00000b60       0x80 build/LAN9253_D51_SPI_direct_mode/production/_ext/108134065/mailbox.o
 .debug_aranges
                0x00000be0       0x78 build/LAN9253_D51_SPI_direct_mode/production/_ext/108134065/objdef.o
 .debug_aranges
                0x00000c58       0xc8 build/LAN9253_D51_SPI_direct_mode/production/_ext/108134065/sample_app.o
 .debug_aranges
                0x00000d20       0x50 build/LAN9253_D51_SPI_direct_mode/production/_ext/108134065/sdoserv.o
 .debug_aranges
                0x00000d70       0x20 build/LAN9253_D51_SPI_direct_mode/production/_ext/1360937237/main.o
 .debug_aranges
                0x00000d90       0x50 build/LAN9253_D51_SPI_direct_mode/production/_ext/1360937237/app.o
 .debug_aranges
                0x00000de0       0x20 c:/program files (x86)/microchip/xc32/v2.30/bin/bin/../../lib/gcc/pic32c/6.2.1/../../../../pic32c/lib/v7e-m/fpv4-sp/hard\libpic32c.a(data_init.o)
 .debug_aranges
                0x00000e00       0x20 c:/program files (x86)/microchip/xc32/v2.30/bin/bin/../../lib/gcc/pic32c/6.2.1/../../../../pic32c/lib/v7e-m/fpv4-sp/hard\libc.a(lib_a-init.o)
 .debug_aranges
                0x00000e20       0x28 c:/program files (x86)/microchip/xc32/v2.30/bin/bin/../../lib/gcc/pic32c/6.2.1/../../../../pic32c/lib/v7e-m/fpv4-sp/hard\libc.a(lib_a-malloc.o)
 .debug_aranges
                0x00000e48       0x20 c:/program files (x86)/microchip/xc32/v2.30/bin/bin/../../lib/gcc/pic32c/6.2.1/../../../../pic32c/lib/v7e-m/fpv4-sp/hard\libc.a(lib_a-mallocr.o)
 .debug_aranges
                0x00000e68       0x20 c:/program files (x86)/microchip/xc32/v2.30/bin/bin/../../lib/gcc/pic32c/6.2.1/../../../../pic32c/lib/v7e-m/fpv4-sp/hard\libc.a(lib_a-memcpy-stub.o)
 .debug_aranges
                0x00000e88       0x20 c:/program files (x86)/microchip/xc32/v2.30/bin/bin/../../lib/gcc/pic32c/6.2.1/../../../../pic32c/lib/v7e-m/fpv4-sp/hard\libc.a(lib_a-memset.o)
 .debug_aranges
                0x00000ea8       0x20 c:/program files (x86)/microchip/xc32/v2.30/bin/bin/../../lib/gcc/pic32c/6.2.1/../../../../pic32c/lib/v7e-m/fpv4-sp/hard\libc.a(lib_a-mlock.o)
 .debug_aranges
                0x00000ec8       0x20 c:/program files (x86)/microchip/xc32/v2.30/bin/bin/../../lib/gcc/pic32c/6.2.1/../../../../pic32c/lib/v7e-m/fpv4-sp/hard\libc.a(lib_a-sbrkr.o)
 .debug_aranges
                0x00000ee8       0x20 c:/program files (x86)/microchip/xc32/v2.30/bin/bin/../../lib/gcc/pic32c/6.2.1/../../../../pic32c/lib/v7e-m/fpv4-sp/hard\libc.a(lib_a-strlen.o)
 .debug_aranges
                0x00000f08       0x28 c:/program files (x86)/microchip/xc32/v2.30/bin/bin/../../lib/gcc/pic32c/6.2.1/../../../../pic32c/lib/v7e-m/fpv4-sp/hard\libc.a(lib_a-freer.o)
 .debug_aranges
                0x00000f30       0x18 c:/program files (x86)/microchip/xc32/v2.30/bin/bin/../../lib/gcc/pic32c/6.2.1/../../../../pic32c/lib/v7e-m/fpv4-sp/hard\libc.a(lib_a-impure.o)
 .debug_aranges
                0x00000f48       0x28 c:/program files (x86)/microchip/xc32/v2.30/bin/bin/../../lib/gcc/pic32c/6.2.1/../../../../pic32c/lib/v7e-m/fpv4-sp/hard\libc.a(lib_a-reent.o)
 .debug_aranges
                0x00000f70       0x20 c:/program files (x86)/microchip/xc32/v2.30/bin/bin/../../lib/gcc/pic32c/6.2.1/../../../../pic32c/lib/v7e-m/fpv4-sp/hard\libpic32c.a(sbrk.o)

.debug_ranges   0x00000000      0xda0
 .debug_ranges  0x00000000      0x150 build/LAN9253_D51_SPI_direct_mode/production/_ext/2070931557/drv_spi.o
 .debug_ranges  0x00000150       0x48 build/LAN9253_D51_SPI_direct_mode/production/_ext/1984496892/plib_clock.o
 .debug_ranges  0x00000198       0x98 build/LAN9253_D51_SPI_direct_mode/production/_ext/1865161661/plib_dmac.o
 .debug_ranges  0x00000230       0x40 build/LAN9253_D51_SPI_direct_mode/production/_ext/60167341/plib_eic.o
 .debug_ranges  0x00000270       0x10 build/LAN9253_D51_SPI_direct_mode/production/_ext/1986646378/plib_evsys.o
 .debug_ranges  0x00000280       0x28 build/LAN9253_D51_SPI_direct_mode/production/_ext/1865468468/plib_nvic.o
 .debug_ranges  0x000002a8       0xa0 build/LAN9253_D51_SPI_direct_mode/production/_ext/1593096446/plib_nvmctrl.o
 .debug_ranges  0x00000348       0x50 build/LAN9253_D51_SPI_direct_mode/production/_ext/1865521619/plib_port.o
 .debug_ranges  0x00000398       0x48 build/LAN9253_D51_SPI_direct_mode/production/_ext/1865555181/plib_qspi_spi.o
 .debug_ranges  0x000003e0       0x60 build/LAN9253_D51_SPI_direct_mode/production/_ext/1827571544/plib_systick.o
 .debug_ranges  0x00000440       0x18 build/LAN9253_D51_SPI_direct_mode/production/_ext/14461671/sys_dma.o
 .debug_ranges  0x00000458       0x48 build/LAN9253_D51_SPI_direct_mode/production/_ext/1881668453/sys_int.o
 .debug_ranges  0x000004a0       0x38 build/LAN9253_D51_SPI_direct_mode/production/_ext/1171490990/exceptions.o
 .debug_ranges  0x000004d8       0x10 build/LAN9253_D51_SPI_direct_mode/production/_ext/1171490990/initialization.o
 .debug_ranges  0x000004e8       0x10 build/LAN9253_D51_SPI_direct_mode/production/_ext/1171490990/interrupts.o
 .debug_ranges  0x000004f8       0x28 build/LAN9253_D51_SPI_direct_mode/production/_ext/1171490990/startup_xc32.o
 .debug_ranges  0x00000520       0x10 build/LAN9253_D51_SPI_direct_mode/production/_ext/1171490990/tasks.o
 .debug_ranges  0x00000530      0x150 build/LAN9253_D51_SPI_direct_mode/production/_ext/1671622979/Drivers.o
 .debug_ranges  0x00000680       0x30 build/LAN9253_D51_SPI_direct_mode/production/_ext/108147519/ESC_Utils.o
 .debug_ranges  0x000006b0       0x80 build/LAN9253_D51_SPI_direct_mode/production/_ext/108147519/LAN925x.o
 .debug_ranges  0x00000730       0x28 build/LAN9253_D51_SPI_direct_mode/production/_ext/108134065/bootmode.o
 .debug_ranges  0x00000758       0x78 build/LAN9253_D51_SPI_direct_mode/production/_ext/108134065/coeappl.o
 .debug_ranges  0x000007d0       0x80 build/LAN9253_D51_SPI_direct_mode/production/_ext/108134065/ecatappl.o
 .debug_ranges  0x00000850       0x20 build/LAN9253_D51_SPI_direct_mode/production/_ext/108134065/ecatcoe.o
 .debug_ranges  0x00000870       0x80 build/LAN9253_D51_SPI_direct_mode/production/_ext/108134065/ecatfoe.o
 .debug_ranges  0x000008f0       0xb8 build/LAN9253_D51_SPI_direct_mode/production/_ext/108134065/ecatslv.o
 .debug_ranges  0x000009a8       0x50 build/LAN9253_D51_SPI_direct_mode/production/_ext/108134065/emcy.o
 .debug_ranges  0x000009f8       0x38 build/LAN9253_D51_SPI_direct_mode/production/_ext/108134065/foeappl.o
 .debug_ranges  0x00000a30       0x70 build/LAN9253_D51_SPI_direct_mode/production/_ext/108134065/mailbox.o
 .debug_ranges  0x00000aa0       0x80 build/LAN9253_D51_SPI_direct_mode/production/_ext/108134065/objdef.o
 .debug_ranges  0x00000b20       0xb8 build/LAN9253_D51_SPI_direct_mode/production/_ext/108134065/sample_app.o
 .debug_ranges  0x00000bd8       0x68 build/LAN9253_D51_SPI_direct_mode/production/_ext/108134065/sdoserv.o
 .debug_ranges  0x00000c40       0x10 build/LAN9253_D51_SPI_direct_mode/production/_ext/1360937237/main.o
 .debug_ranges  0x00000c50       0x40 build/LAN9253_D51_SPI_direct_mode/production/_ext/1360937237/app.o
 .debug_ranges  0x00000c90       0x10 c:/program files (x86)/microchip/xc32/v2.30/bin/bin/../../lib/gcc/pic32c/6.2.1/../../../../pic32c/lib/v7e-m/fpv4-sp/hard\libpic32c.a(data_init.o)
 .debug_ranges  0x00000ca0       0x10 c:/program files (x86)/microchip/xc32/v2.30/bin/bin/../../lib/gcc/pic32c/6.2.1/../../../../pic32c/lib/v7e-m/fpv4-sp/hard\libc.a(lib_a-init.o)
 .debug_ranges  0x00000cb0       0x18 c:/program files (x86)/microchip/xc32/v2.30/bin/bin/../../lib/gcc/pic32c/6.2.1/../../../../pic32c/lib/v7e-m/fpv4-sp/hard\libc.a(lib_a-malloc.o)
 .debug_ranges  0x00000cc8       0x28 c:/program files (x86)/microchip/xc32/v2.30/bin/bin/../../lib/gcc/pic32c/6.2.1/../../../../pic32c/lib/v7e-m/fpv4-sp/hard\libc.a(lib_a-mallocr.o)
 .debug_ranges  0x00000cf0       0x10 c:/program files (x86)/microchip/xc32/v2.30/bin/bin/../../lib/gcc/pic32c/6.2.1/../../../../pic32c/lib/v7e-m/fpv4-sp/hard\libc.a(lib_a-memcpy-stub.o)
 .debug_ranges  0x00000d00       0x10 c:/program files (x86)/microchip/xc32/v2.30/bin/bin/../../lib/gcc/pic32c/6.2.1/../../../../pic32c/lib/v7e-m/fpv4-sp/hard\libc.a(lib_a-memset.o)
 .debug_ranges  0x00000d10       0x10 c:/program files (x86)/microchip/xc32/v2.30/bin/bin/../../lib/gcc/pic32c/6.2.1/../../../../pic32c/lib/v7e-m/fpv4-sp/hard\libc.a(lib_a-mlock.o)
 .debug_ranges  0x00000d20       0x10 c:/program files (x86)/microchip/xc32/v2.30/bin/bin/../../lib/gcc/pic32c/6.2.1/../../../../pic32c/lib/v7e-m/fpv4-sp/hard\libc.a(lib_a-sbrkr.o)
 .debug_ranges  0x00000d30       0x18 c:/program files (x86)/microchip/xc32/v2.30/bin/bin/../../lib/gcc/pic32c/6.2.1/../../../../pic32c/lib/v7e-m/fpv4-sp/hard\libc.a(lib_a-freer.o)
 .debug_ranges  0x00000d48       0x48 c:/program files (x86)/microchip/xc32/v2.30/bin/bin/../../lib/gcc/pic32c/6.2.1/../../../../pic32c/lib/v7e-m/fpv4-sp/hard\libc.a(lib_a-reent.o)
 .debug_ranges  0x00000d90       0x10 c:/program files (x86)/microchip/xc32/v2.30/bin/bin/../../lib/gcc/pic32c/6.2.1/../../../../pic32c/lib/v7e-m/fpv4-sp/hard\libpic32c.a(sbrk.o)

.debug_line     0x00000000     0xab1c
 .debug_line    0x00000000      0xb4f build/LAN9253_D51_SPI_direct_mode/production/_ext/2070931557/drv_spi.o
 .debug_line    0x00000b4f      0x246 build/LAN9253_D51_SPI_direct_mode/production/_ext/1984496892/plib_clock.o
 .debug_line    0x00000d95      0x588 build/LAN9253_D51_SPI_direct_mode/production/_ext/1865161661/plib_dmac.o
 .debug_line    0x0000131d      0x20e build/LAN9253_D51_SPI_direct_mode/production/_ext/60167341/plib_eic.o
 .debug_line    0x0000152b      0x13b build/LAN9253_D51_SPI_direct_mode/production/_ext/1986646378/plib_evsys.o
 .debug_line    0x00001666      0x1da build/LAN9253_D51_SPI_direct_mode/production/_ext/1865468468/plib_nvic.o
 .debug_line    0x00001840      0x379 build/LAN9253_D51_SPI_direct_mode/production/_ext/1593096446/plib_nvmctrl.o
 .debug_line    0x00001bb9      0x219 build/LAN9253_D51_SPI_direct_mode/production/_ext/1865521619/plib_port.o
 .debug_line    0x00001dd2      0x4b0 build/LAN9253_D51_SPI_direct_mode/production/_ext/1865555181/plib_qspi_spi.o
 .debug_line    0x00002282      0x216 build/LAN9253_D51_SPI_direct_mode/production/_ext/1827571544/plib_systick.o
 .debug_line    0x00002498      0x203 build/LAN9253_D51_SPI_direct_mode/production/_ext/14461671/sys_dma.o
 .debug_line    0x0000269b      0x291 build/LAN9253_D51_SPI_direct_mode/production/_ext/1881668453/sys_int.o
 .debug_line    0x0000292c      0x39e build/LAN9253_D51_SPI_direct_mode/production/_ext/1171490990/exceptions.o
 .debug_line    0x00002cca      0x421 build/LAN9253_D51_SPI_direct_mode/production/_ext/1171490990/initialization.o
 .debug_line    0x000030eb      0x379 build/LAN9253_D51_SPI_direct_mode/production/_ext/1171490990/interrupts.o
 .debug_line    0x00003464      0x407 build/LAN9253_D51_SPI_direct_mode/production/_ext/1171490990/startup_xc32.o
 .debug_line    0x0000386b      0x348 build/LAN9253_D51_SPI_direct_mode/production/_ext/1171490990/tasks.o
 .debug_line    0x00003bb3      0x90b build/LAN9253_D51_SPI_direct_mode/production/_ext/1671622979/Drivers.o
 .debug_line    0x000044be      0x402 build/LAN9253_D51_SPI_direct_mode/production/_ext/108147519/ESC_Utils.o
 .debug_line    0x000048c0      0x599 build/LAN9253_D51_SPI_direct_mode/production/_ext/108147519/LAN925x.o
 .debug_line    0x00004e59      0x19b build/LAN9253_D51_SPI_direct_mode/production/_ext/108134065/bootmode.o
 .debug_line    0x00004ff4      0x50c build/LAN9253_D51_SPI_direct_mode/production/_ext/108134065/coeappl.o
 .debug_line    0x00005500      0x60a build/LAN9253_D51_SPI_direct_mode/production/_ext/108134065/ecatappl.o
 .debug_line    0x00005b0a      0x1b0 build/LAN9253_D51_SPI_direct_mode/production/_ext/108134065/ecatcoe.o
 .debug_line    0x00005cba      0x42c build/LAN9253_D51_SPI_direct_mode/production/_ext/108134065/ecatfoe.o
 .debug_line    0x000060e6      0x9b6 build/LAN9253_D51_SPI_direct_mode/production/_ext/108134065/ecatslv.o
 .debug_line    0x00006a9c      0x448 build/LAN9253_D51_SPI_direct_mode/production/_ext/108134065/emcy.o
 .debug_line    0x00006ee4      0x414 build/LAN9253_D51_SPI_direct_mode/production/_ext/108134065/foeappl.o
 .debug_line    0x000072f8      0x596 build/LAN9253_D51_SPI_direct_mode/production/_ext/108134065/mailbox.o
 .debug_line    0x0000788e      0x71c build/LAN9253_D51_SPI_direct_mode/production/_ext/108134065/objdef.o
 .debug_line    0x00007faa      0x5f7 build/LAN9253_D51_SPI_direct_mode/production/_ext/108134065/sample_app.o
 .debug_line    0x000085a1      0x5fa build/LAN9253_D51_SPI_direct_mode/production/_ext/108134065/sdoserv.o
 .debug_line    0x00008b9b      0x34b build/LAN9253_D51_SPI_direct_mode/production/_ext/1360937237/main.o
 .debug_line    0x00008ee6      0x4c8 build/LAN9253_D51_SPI_direct_mode/production/_ext/1360937237/app.o
 .debug_line    0x000093ae       0xd8 c:/program files (x86)/microchip/xc32/v2.30/bin/bin/../../lib/gcc/pic32c/6.2.1/../../../../pic32c/lib/v7e-m/fpv4-sp/hard\libpic32c.a(data_init.o)
 .debug_line    0x00009486      0x11d c:/program files (x86)/microchip/xc32/v2.30/bin/bin/../../lib/gcc/pic32c/6.2.1/../../../../pic32c/lib/v7e-m/fpv4-sp/hard\libc.a(lib_a-init.o)
 .debug_line    0x000095a3      0x21e c:/program files (x86)/microchip/xc32/v2.30/bin/bin/../../lib/gcc/pic32c/6.2.1/../../../../pic32c/lib/v7e-m/fpv4-sp/hard\libc.a(lib_a-malloc.o)
 .debug_line    0x000097c1      0x347 c:/program files (x86)/microchip/xc32/v2.30/bin/bin/../../lib/gcc/pic32c/6.2.1/../../../../pic32c/lib/v7e-m/fpv4-sp/hard\libc.a(lib_a-mallocr.o)
 .debug_line    0x00009b08      0x218 c:/program files (x86)/microchip/xc32/v2.30/bin/bin/../../lib/gcc/pic32c/6.2.1/../../../../pic32c/lib/v7e-m/fpv4-sp/hard\libc.a(lib_a-memcpy-stub.o)
 .debug_line    0x00009d20      0x2ae c:/program files (x86)/microchip/xc32/v2.30/bin/bin/../../lib/gcc/pic32c/6.2.1/../../../../pic32c/lib/v7e-m/fpv4-sp/hard\libc.a(lib_a-memset.o)
 .debug_line    0x00009fce      0x18d c:/program files (x86)/microchip/xc32/v2.30/bin/bin/../../lib/gcc/pic32c/6.2.1/../../../../pic32c/lib/v7e-m/fpv4-sp/hard\libc.a(lib_a-mlock.o)
 .debug_line    0x0000a15b      0x212 c:/program files (x86)/microchip/xc32/v2.30/bin/bin/../../lib/gcc/pic32c/6.2.1/../../../../pic32c/lib/v7e-m/fpv4-sp/hard\libc.a(lib_a-sbrkr.o)
 .debug_line    0x0000a36d       0xb1 c:/program files (x86)/microchip/xc32/v2.30/bin/bin/../../lib/gcc/pic32c/6.2.1/../../../../pic32c/lib/v7e-m/fpv4-sp/hard\libc.a(lib_a-strlen.o)
 .debug_line    0x0000a41e      0x2a1 c:/program files (x86)/microchip/xc32/v2.30/bin/bin/../../lib/gcc/pic32c/6.2.1/../../../../pic32c/lib/v7e-m/fpv4-sp/hard\libc.a(lib_a-freer.o)
 .debug_line    0x0000a6bf      0x17e c:/program files (x86)/microchip/xc32/v2.30/bin/bin/../../lib/gcc/pic32c/6.2.1/../../../../pic32c/lib/v7e-m/fpv4-sp/hard\libc.a(lib_a-impure.o)
 .debug_line    0x0000a83d      0x23d c:/program files (x86)/microchip/xc32/v2.30/bin/bin/../../lib/gcc/pic32c/6.2.1/../../../../pic32c/lib/v7e-m/fpv4-sp/hard\libc.a(lib_a-reent.o)
 .debug_line    0x0000aa7a       0xa2 c:/program files (x86)/microchip/xc32/v2.30/bin/bin/../../lib/gcc/pic32c/6.2.1/../../../../pic32c/lib/v7e-m/fpv4-sp/hard\libpic32c.a(sbrk.o)

.debug_str      0x00000000      0xa8a
 .debug_str     0x00000000      0x1b6 build/LAN9253_D51_SPI_direct_mode/production/_ext/2070931557/drv_spi.o
 .debug_str     0x000001b6       0x1e build/LAN9253_D51_SPI_direct_mode/production/_ext/1984496892/plib_clock.o
 .debug_str     0x000001d4       0x5a build/LAN9253_D51_SPI_direct_mode/production/_ext/1865161661/plib_dmac.o
 .debug_str     0x0000022e        0x9 build/LAN9253_D51_SPI_direct_mode/production/_ext/60167341/plib_eic.o
 .debug_str     0x00000237        0x0 build/LAN9253_D51_SPI_direct_mode/production/_ext/1986646378/plib_evsys.o
 .debug_str     0x00000237        0xa build/LAN9253_D51_SPI_direct_mode/production/_ext/1865468468/plib_nvic.o
 .debug_str     0x00000241       0x29 build/LAN9253_D51_SPI_direct_mode/production/_ext/1593096446/plib_nvmctrl.o
 .debug_str     0x0000026a        0xb build/LAN9253_D51_SPI_direct_mode/production/_ext/1865521619/plib_port.o
 .debug_str     0x00000275       0x62 build/LAN9253_D51_SPI_direct_mode/production/_ext/1865555181/plib_qspi_spi.o
 .debug_str     0x000002d7        0x9 build/LAN9253_D51_SPI_direct_mode/production/_ext/1827571544/plib_systick.o
 .debug_str     0x000002e0        0xe build/LAN9253_D51_SPI_direct_mode/production/_ext/14461671/sys_dma.o
 .debug_str     0x000002ee       0x10 build/LAN9253_D51_SPI_direct_mode/production/_ext/1881668453/sys_int.o
 .debug_str     0x000002fe        0xe build/LAN9253_D51_SPI_direct_mode/production/_ext/1171490990/exceptions.o
 .debug_str     0x0000030c       0x1b build/LAN9253_D51_SPI_direct_mode/production/_ext/1171490990/initialization.o
 .debug_str     0x00000327        0xe build/LAN9253_D51_SPI_direct_mode/production/_ext/1171490990/interrupts.o
 .debug_str     0x00000335        0xe build/LAN9253_D51_SPI_direct_mode/production/_ext/1171490990/startup_xc32.o
 .debug_str     0x00000343        0xe build/LAN9253_D51_SPI_direct_mode/production/_ext/1171490990/tasks.o
 .debug_str     0x00000351       0xdf build/LAN9253_D51_SPI_direct_mode/production/_ext/1671622979/Drivers.o
 .debug_str     0x00000430        0xe build/LAN9253_D51_SPI_direct_mode/production/_ext/108147519/ESC_Utils.o
 .debug_str     0x0000043e       0x55 build/LAN9253_D51_SPI_direct_mode/production/_ext/108147519/LAN925x.o
 .debug_str     0x00000493        0xe build/LAN9253_D51_SPI_direct_mode/production/_ext/108134065/bootmode.o
 .debug_str     0x000004a1       0x48 build/LAN9253_D51_SPI_direct_mode/production/_ext/108134065/coeappl.o
 .debug_str     0x000004e9       0x4a build/LAN9253_D51_SPI_direct_mode/production/_ext/108134065/ecatappl.o
 .debug_str     0x00000533       0x35 build/LAN9253_D51_SPI_direct_mode/production/_ext/108134065/ecatcoe.o
 .debug_str     0x00000568       0x24 build/LAN9253_D51_SPI_direct_mode/production/_ext/108134065/ecatfoe.o
 .debug_str     0x0000058c       0x6b build/LAN9253_D51_SPI_direct_mode/production/_ext/108134065/ecatslv.o
 .debug_str     0x000005f7       0x2d build/LAN9253_D51_SPI_direct_mode/production/_ext/108134065/emcy.o
 .debug_str     0x00000624       0x31 build/LAN9253_D51_SPI_direct_mode/production/_ext/108134065/foeappl.o
 .debug_str     0x00000655       0x50 build/LAN9253_D51_SPI_direct_mode/production/_ext/108134065/mailbox.o
 .debug_str     0x000006a5       0xa5 build/LAN9253_D51_SPI_direct_mode/production/_ext/108134065/objdef.o
 .debug_str     0x0000074a       0x66 build/LAN9253_D51_SPI_direct_mode/production/_ext/108134065/sample_app.o
 .debug_str     0x000007b0       0xa8 build/LAN9253_D51_SPI_direct_mode/production/_ext/108134065/sdoserv.o
 .debug_str     0x00000858        0xe build/LAN9253_D51_SPI_direct_mode/production/_ext/1360937237/main.o
 .debug_str     0x00000866       0x41 build/LAN9253_D51_SPI_direct_mode/production/_ext/1360937237/app.o
 .debug_str     0x000008a7        0x0 c:/program files (x86)/microchip/xc32/v2.30/bin/bin/../../lib/gcc/pic32c/6.2.1/../../../../pic32c/lib/v7e-m/fpv4-sp/hard\libpic32c.a(data_init.o)
 .debug_str     0x000008a7        0x0 c:/program files (x86)/microchip/xc32/v2.30/bin/bin/../../lib/gcc/pic32c/6.2.1/../../../../pic32c/lib/v7e-m/fpv4-sp/hard\libc.a(lib_a-init.o)
 .debug_str     0x000008a7       0x18 c:/program files (x86)/microchip/xc32/v2.30/bin/bin/../../lib/gcc/pic32c/6.2.1/../../../../pic32c/lib/v7e-m/fpv4-sp/hard\libc.a(lib_a-malloc.o)
 .debug_str     0x000008bf       0x36 c:/program files (x86)/microchip/xc32/v2.30/bin/bin/../../lib/gcc/pic32c/6.2.1/../../../../pic32c/lib/v7e-m/fpv4-sp/hard\libc.a(lib_a-mallocr.o)
 .debug_str     0x000008f5        0xe c:/program files (x86)/microchip/xc32/v2.30/bin/bin/../../lib/gcc/pic32c/6.2.1/../../../../pic32c/lib/v7e-m/fpv4-sp/hard\libc.a(lib_a-memcpy-stub.o)
 .debug_str     0x00000903      0x119 c:/program files (x86)/microchip/xc32/v2.30/bin/bin/../../lib/gcc/pic32c/6.2.1/../../../../pic32c/lib/v7e-m/fpv4-sp/hard\libc.a(lib_a-memset.o)
 .debug_str     0x00000a1c        0xe c:/program files (x86)/microchip/xc32/v2.30/bin/bin/../../lib/gcc/pic32c/6.2.1/../../../../pic32c/lib/v7e-m/fpv4-sp/hard\libc.a(lib_a-mlock.o)
 .debug_str     0x00000a2a        0xe c:/program files (x86)/microchip/xc32/v2.30/bin/bin/../../lib/gcc/pic32c/6.2.1/../../../../pic32c/lib/v7e-m/fpv4-sp/hard\libc.a(lib_a-sbrkr.o)
 .debug_str     0x00000a38       0x36 c:/program files (x86)/microchip/xc32/v2.30/bin/bin/../../lib/gcc/pic32c/6.2.1/../../../../pic32c/lib/v7e-m/fpv4-sp/hard\libc.a(lib_a-freer.o)
 .debug_str     0x00000a6e        0xe c:/program files (x86)/microchip/xc32/v2.30/bin/bin/../../lib/gcc/pic32c/6.2.1/../../../../pic32c/lib/v7e-m/fpv4-sp/hard\libc.a(lib_a-impure.o)
 .debug_str     0x00000a7c        0xe c:/program files (x86)/microchip/xc32/v2.30/bin/bin/../../lib/gcc/pic32c/6.2.1/../../../../pic32c/lib/v7e-m/fpv4-sp/hard\libc.a(lib_a-reent.o)
 .debug_str     0x00000a8a        0x0 c:/program files (x86)/microchip/xc32/v2.30/bin/bin/../../lib/gcc/pic32c/6.2.1/../../../../pic32c/lib/v7e-m/fpv4-sp/hard\libpic32c.a(sbrk.o)

.debug_frame    0x00000000     0x3428
 .debug_frame   0x00000000      0x60c build/LAN9253_D51_SPI_direct_mode/production/_ext/2070931557/drv_spi.o
 .debug_frame   0x0000060c      0x10c build/LAN9253_D51_SPI_direct_mode/production/_ext/1984496892/plib_clock.o
 .debug_frame   0x00000718      0x2ac build/LAN9253_D51_SPI_direct_mode/production/_ext/1865161661/plib_dmac.o
 .debug_frame   0x000009c4       0xfc build/LAN9253_D51_SPI_direct_mode/production/_ext/60167341/plib_eic.o
 .debug_frame   0x00000ac0       0x30 build/LAN9253_D51_SPI_direct_mode/production/_ext/1986646378/plib_evsys.o
 .debug_frame   0x00000af0       0xa4 build/LAN9253_D51_SPI_direct_mode/production/_ext/1865468468/plib_nvic.o
 .debug_frame   0x00000b94      0x2ac build/LAN9253_D51_SPI_direct_mode/production/_ext/1593096446/plib_nvmctrl.o
 .debug_frame   0x00000e40      0x170 build/LAN9253_D51_SPI_direct_mode/production/_ext/1865521619/plib_port.o
 .debug_frame   0x00000fb0      0x138 build/LAN9253_D51_SPI_direct_mode/production/_ext/1865555181/plib_qspi_spi.o
 .debug_frame   0x000010e8      0x184 build/LAN9253_D51_SPI_direct_mode/production/_ext/1827571544/plib_systick.o
 .debug_frame   0x0000126c       0x58 build/LAN9253_D51_SPI_direct_mode/production/_ext/14461671/sys_dma.o
 .debug_frame   0x000012c4      0x140 build/LAN9253_D51_SPI_direct_mode/production/_ext/1881668453/sys_int.o
 .debug_frame   0x00001404       0xa0 build/LAN9253_D51_SPI_direct_mode/production/_ext/1171490990/exceptions.o
 .debug_frame   0x000014a4       0x34 build/LAN9253_D51_SPI_direct_mode/production/_ext/1171490990/initialization.o
 .debug_frame   0x000014d8       0x20 build/LAN9253_D51_SPI_direct_mode/production/_ext/1171490990/interrupts.o
 .debug_frame   0x000014f8       0x98 build/LAN9253_D51_SPI_direct_mode/production/_ext/1171490990/startup_xc32.o
 .debug_frame   0x00001590       0x2c build/LAN9253_D51_SPI_direct_mode/production/_ext/1171490990/tasks.o
 .debug_frame   0x000015bc      0x5bc build/LAN9253_D51_SPI_direct_mode/production/_ext/1671622979/Drivers.o
 .debug_frame   0x00001b78       0xb4 build/LAN9253_D51_SPI_direct_mode/production/_ext/108147519/ESC_Utils.o
 .debug_frame   0x00001c2c      0x22c build/LAN9253_D51_SPI_direct_mode/production/_ext/108147519/LAN925x.o
 .debug_frame   0x00001e58       0xa8 build/LAN9253_D51_SPI_direct_mode/production/_ext/108134065/bootmode.o
 .debug_frame   0x00001f00      0x1a8 build/LAN9253_D51_SPI_direct_mode/production/_ext/108134065/coeappl.o
 .debug_frame   0x000020a8      0x1a8 build/LAN9253_D51_SPI_direct_mode/production/_ext/108134065/ecatappl.o
 .debug_frame   0x00002250       0x78 build/LAN9253_D51_SPI_direct_mode/production/_ext/108134065/ecatcoe.o
 .debug_frame   0x000022c8       0x7c build/LAN9253_D51_SPI_direct_mode/production/_ext/108134065/ecatfoe.o
 .debug_frame   0x00002344      0x320 build/LAN9253_D51_SPI_direct_mode/production/_ext/108134065/ecatslv.o
 .debug_frame   0x00002664      0x160 build/LAN9253_D51_SPI_direct_mode/production/_ext/108134065/emcy.o
 .debug_frame   0x000027c4       0xec build/LAN9253_D51_SPI_direct_mode/production/_ext/108134065/foeappl.o
 .debug_frame   0x000028b0      0x1ec build/LAN9253_D51_SPI_direct_mode/production/_ext/108134065/mailbox.o
 .debug_frame   0x00002a9c      0x1e8 build/LAN9253_D51_SPI_direct_mode/production/_ext/108134065/objdef.o
 .debug_frame   0x00002c84      0x30c build/LAN9253_D51_SPI_direct_mode/production/_ext/108134065/sample_app.o
 .debug_frame   0x00002f90      0x120 build/LAN9253_D51_SPI_direct_mode/production/_ext/108134065/sdoserv.o
 .debug_frame   0x000030b0       0x2c build/LAN9253_D51_SPI_direct_mode/production/_ext/1360937237/main.o
 .debug_frame   0x000030dc      0x108 build/LAN9253_D51_SPI_direct_mode/production/_ext/1360937237/app.o
 .debug_frame   0x000031e4       0x2c c:/program files (x86)/microchip/xc32/v2.30/bin/bin/../../lib/gcc/pic32c/6.2.1/../../../../pic32c/lib/v7e-m/fpv4-sp/hard\libpic32c.a(data_init.o)
 .debug_frame   0x00003210       0x2c c:/program files (x86)/microchip/xc32/v2.30/bin/bin/../../lib/gcc/pic32c/6.2.1/../../../../pic32c/lib/v7e-m/fpv4-sp/hard\libc.a(lib_a-init.o)
 .debug_frame   0x0000323c       0x30 c:/program files (x86)/microchip/xc32/v2.30/bin/bin/../../lib/gcc/pic32c/6.2.1/../../../../pic32c/lib/v7e-m/fpv4-sp/hard\libc.a(lib_a-malloc.o)
 .debug_frame   0x0000326c       0x40 c:/program files (x86)/microchip/xc32/v2.30/bin/bin/../../lib/gcc/pic32c/6.2.1/../../../../pic32c/lib/v7e-m/fpv4-sp/hard\libc.a(lib_a-mallocr.o)
 .debug_frame   0x000032ac       0x28 c:/program files (x86)/microchip/xc32/v2.30/bin/bin/../../lib/gcc/pic32c/6.2.1/../../../../pic32c/lib/v7e-m/fpv4-sp/hard\libc.a(lib_a-memcpy-stub.o)
 .debug_frame   0x000032d4       0x20 c:/program files (x86)/microchip/xc32/v2.30/bin/bin/../../lib/gcc/pic32c/6.2.1/../../../../pic32c/lib/v7e-m/fpv4-sp/hard\libc.a(lib_a-memset.o)
 .debug_frame   0x000032f4       0x30 c:/program files (x86)/microchip/xc32/v2.30/bin/bin/../../lib/gcc/pic32c/6.2.1/../../../../pic32c/lib/v7e-m/fpv4-sp/hard\libc.a(lib_a-mlock.o)
 .debug_frame   0x00003324       0x2c c:/program files (x86)/microchip/xc32/v2.30/bin/bin/../../lib/gcc/pic32c/6.2.1/../../../../pic32c/lib/v7e-m/fpv4-sp/hard\libc.a(lib_a-sbrkr.o)
 .debug_frame   0x00003350       0x5c c:/program files (x86)/microchip/xc32/v2.30/bin/bin/../../lib/gcc/pic32c/6.2.1/../../../../pic32c/lib/v7e-m/fpv4-sp/hard\libc.a(lib_a-freer.o)
 .debug_frame   0x000033ac       0x5c c:/program files (x86)/microchip/xc32/v2.30/bin/bin/../../lib/gcc/pic32c/6.2.1/../../../../pic32c/lib/v7e-m/fpv4-sp/hard\libc.a(lib_a-reent.o)
 .debug_frame   0x00003408       0x20 c:/program files (x86)/microchip/xc32/v2.30/bin/bin/../../lib/gcc/pic32c/6.2.1/../../../../pic32c/lib/v7e-m/fpv4-sp/hard\libpic32c.a(sbrk.o)

.stack          0x20005db0      0x100
 .stack         0x20005db0      0x100 stack

.data.aEepromData%1
                0x20003dd4      0x800
 .data.aEepromData
                0x20003dd4      0x800 build/LAN9253_D51_SPI_direct_mode/production/_ext/1360937237/app.o
                0x20003dd4                aEepromData

.data.impure_data%2
                0x200045d8      0x418
 .data.impure_data
                0x200045d8      0x418 c:/program files (x86)/microchip/xc32/v2.30/bin/bin/../../lib/gcc/pic32c/6.2.1/../../../../pic32c/lib/v7e-m/fpv4-sp/hard\libc.a(lib_a-impure.o)

.data.__malloc_av_%3
                0x200049f0      0x408
 .data.__malloc_av_
                0x200049f0      0x408 c:/program files (x86)/microchip/xc32/v2.30/bin/bin/../../lib/gcc/pic32c/6.2.1/../../../../pic32c/lib/v7e-m/fpv4-sp/hard\libc.a(lib_a-mallocr.o)
                0x200049f0                __malloc_av_

.data.OutputsProcessDataMapping0x1601%4
                0x20004df8      0x204
 .data.OutputsProcessDataMapping0x1601
                0x20004df8      0x204 build/LAN9253_D51_SPI_direct_mode/production/_ext/108134065/sample_app.o
                0x20004df8                OutputsProcessDataMapping0x1601

.data.InputsProcessDataMapping0x1A00%5
                0x20004ffc      0x204
 .data.InputsProcessDataMapping0x1A00
                0x20004ffc      0x204 build/LAN9253_D51_SPI_direct_mode/production/_ext/108134065/sample_app.o
                0x20004ffc                InputsProcessDataMapping0x1A00

.data.Inputs0x6000%6
                0x20005200      0x204
 .data.Inputs0x6000
                0x20005200      0x204 build/LAN9253_D51_SPI_direct_mode/production/_ext/108134065/sample_app.o
                0x20005200                Inputs0x6000

.data.Outputs0x7010%7
                0x20005404      0x204
 .data.Outputs0x7010
                0x20005404      0x204 build/LAN9253_D51_SPI_direct_mode/production/_ext/108134065/sample_app.o
                0x20005404                Outputs0x7010

.data.GenObjDic%8
                0x20005608      0x1e0
 .data.GenObjDic
                0x20005608      0x1e0 build/LAN9253_D51_SPI_direct_mode/production/_ext/108134065/coeappl.o
                0x20005608                GenObjDic

.data.ApplicationObjDic%9
                0x200057e8      0x118
 .data.ApplicationObjDic
                0x200057e8      0x118 build/LAN9253_D51_SPI_direct_mode/production/_ext/108134065/coeappl.o
                0x200057e8                ApplicationObjDic

.bss.drvSPI0TransferObjPool%10
                0x20005900       0x90
 .bss.drvSPI0TransferObjPool
                0x20005900       0x90 build/LAN9253_D51_SPI_direct_mode/production/_ext/1171490990/initialization.o

.bss.gDrvSPIObj%11
                0x20005990       0x6c
 .bss.gDrvSPIObj
                0x20005990       0x6c build/LAN9253_D51_SPI_direct_mode/production/_ext/2070931557/drv_spi.o

.bss.drvSPI0ClientObjPool%12
                0x200059fc       0x28
 .bss.drvSPI0ClientObjPool
                0x200059fc       0x28 build/LAN9253_D51_SPI_direct_mode/production/_ext/1171490990/initialization.o

.bss.__malloc_current_mallinfo%13
                0x20005a24       0x28
 .bss.__malloc_current_mallinfo
                0x20005a24       0x28 c:/program files (x86)/microchip/xc32/v2.30/bin/bin/../../lib/gcc/pic32c/6.2.1/../../../../pic32c/lib/v7e-m/fpv4-sp/hard\libc.a(lib_a-mallocr.o)
                0x20005a24                __malloc_current_mallinfo

.data.gau8DummyCntArr%14
                0x20005a4c       0x27
 .data.gau8DummyCntArr
                0x20005a4c       0x27 build/LAN9253_D51_SPI_direct_mode/production/_ext/108147519/LAN925x.o
                0x20005a4c                gau8DummyCntArr

.bss.txDummyData%15
                0x20005a80       0x20
 .bss.txDummyData
                0x20005a80       0x20 build/LAN9253_D51_SPI_direct_mode/production/_ext/2070931557/drv_spi.o

.bss._write_back_section%16
                0x20005aa0       0x20
 .bss._write_back_section
                0x20005aa0       0x20 build/LAN9253_D51_SPI_direct_mode/production/_ext/1865161661/plib_dmac.o

.bss.descriptor_section%17
                0x20005ac0       0x20
 .bss.descriptor_section
                0x20005ac0       0x20 build/LAN9253_D51_SPI_direct_mode/production/_ext/1865161661/plib_dmac.o

.bss%18         0x20005ae0       0x1c
 .bss           0x20005ae0       0x1c c:/program files (x86)/microchip/xc32/v2.30/bin/bin/../../lib/gcc/pic32c/6.2.1/v7e-m/fpv4-sp/hard/crtbegin.o

.data.acDevicename%19
                0x20005afc       0x16
 .data.acDevicename
                0x20005afc       0x16 build/LAN9253_D51_SPI_direct_mode/production/_ext/108134065/coeappl.o
                0x20005afc                acDevicename

.data.sIdentity%20
                0x20005b14       0x14
 .data.sIdentity
                0x20005b14       0x14 build/LAN9253_D51_SPI_direct_mode/production/_ext/108134065/coeappl.o
                0x20005b14                sIdentity

.data.aSubindexDesc%21
                0x20005b28        0xd
 .data.aSubindexDesc
                0x20005b28        0xd build/LAN9253_D51_SPI_direct_mode/production/_ext/108134065/objdef.o
                0x20005b28                aSubindexDesc

.data.sErrorSettings%22
                0x20005a74        0xc
 .data.sErrorSettings
                0x20005a74        0xc build/LAN9253_D51_SPI_direct_mode/production/_ext/108134065/objdef.o
                0x20005a74                sErrorSettings

.bss.u64Timestamp%23
                0x20005b38        0x8
 .bss.u64Timestamp
                0x20005b38        0x8 build/LAN9253_D51_SPI_direct_mode/production/_ext/108134065/coeappl.o
                0x20005b38                u64Timestamp

.data.sSyncmanagertype%24
                0x20005b40        0x6
 .data.sSyncmanagertype
                0x20005b40        0x6 build/LAN9253_D51_SPI_direct_mode/production/_ext/108134065/coeappl.o
                0x20005b40                sSyncmanagertype

.data.u32Devicetype%25
                0x200045d4        0x4
 .data.u32Devicetype
                0x200045d4        0x4 build/LAN9253_D51_SPI_direct_mode/production/_ext/108134065/coeappl.o
                0x200045d4                u32Devicetype

.data.acHardwareversion%26
                0x20005b48        0x4
 .data.acHardwareversion
                0x20005b48        0x4 build/LAN9253_D51_SPI_direct_mode/production/_ext/108134065/coeappl.o
                0x20005b48                acHardwareversion

.data.acSoftwareversion%27
                0x20005b4c        0x4
 .data.acSoftwareversion
                0x20005b4c        0x4 build/LAN9253_D51_SPI_direct_mode/production/_ext/108134065/coeappl.o
                0x20005b4c                acSoftwareversion

.bss.ObjDicList%28
                0x20005b50        0x4
 .bss.ObjDicList
                0x20005b50        0x4 build/LAN9253_D51_SPI_direct_mode/production/_ext/108134065/coeappl.o
                0x20005b50                ObjDicList

.bss.SMActivate%29
                0x20005b54        0x4
 .bss.SMActivate
                0x20005b54        0x4 build/LAN9253_D51_SPI_direct_mode/production/_ext/108134065/ecatslv.o
                0x20005b54                SMActivate

.data.sRxPDOassign%30
                0x20005b58        0x4
 .data.sRxPDOassign
                0x20005b58        0x4 build/LAN9253_D51_SPI_direct_mode/production/_ext/108134065/sample_app.o
                0x20005b58                sRxPDOassign

.data.sTxPDOassign%31
                0x20005b5c        0x4
 .data.sTxPDOassign
                0x20005b5c        0x4 build/LAN9253_D51_SPI_direct_mode/production/_ext/108134065/sample_app.o
                0x20005b5c                sTxPDOassign

.bss.gTriggerCounterValMeasure%32
                0x20005b60        0x4
 .bss.gTriggerCounterValMeasure
                0x20005b60        0x4 build/LAN9253_D51_SPI_direct_mode/production/_ext/108134065/sample_app.o
                0x20005b60                gTriggerCounterValMeasure

.data.gFOETestFrameSize%33
                0x20005b64        0x4
 .data.gFOETestFrameSize
                0x20005b64        0x4 build/LAN9253_D51_SPI_direct_mode/production/_ext/108134065/sample_app.o
                0x20005b64                gFOETestFrameSize

.bss.nFileWriteOffset%34
                0x20005b68        0x4
 .bss.nFileWriteOffset
                0x20005b68        0x4 build/LAN9253_D51_SPI_direct_mode/production/_ext/108134065/sample_app.o
                0x20005b68                nFileWriteOffset

.bss.nFileStartWriteAddress%35
                0x20005b6c        0x4
 .bss.nFileStartWriteAddress
                0x20005b6c        0x4 build/LAN9253_D51_SPI_direct_mode/production/_ext/108134065/sample_app.o
                0x20005b6c                nFileStartWriteAddress

.bss.u32FileSize%36
                0x20005b70        0x4
 .bss.u32FileSize
                0x20005b70        0x4 build/LAN9253_D51_SPI_direct_mode/production/_ext/108134065/sample_app.o
                0x20005b70                u32FileSize

.bss.__malloc_max_sbrked_mem%37
                0x20005b74        0x4
 .bss.__malloc_max_sbrked_mem
                0x20005b74        0x4 c:/program files (x86)/microchip/xc32/v2.30/bin/bin/../../lib/gcc/pic32c/6.2.1/../../../../pic32c/lib/v7e-m/fpv4-sp/hard\libc.a(lib_a-mallocr.o)
                0x20005b74                __malloc_max_sbrked_mem

.bss.__malloc_max_total_mem%38
                0x20005b78        0x4
 .bss.__malloc_max_total_mem
                0x20005b78        0x4 c:/program files (x86)/microchip/xc32/v2.30/bin/bin/../../lib/gcc/pic32c/6.2.1/../../../../pic32c/lib/v7e-m/fpv4-sp/hard\libc.a(lib_a-mallocr.o)
                0x20005b78                __malloc_max_total_mem

.bss.__malloc_top_pad%39
                0x20005b7c        0x4
 .bss.__malloc_top_pad
                0x20005b7c        0x4 c:/program files (x86)/microchip/xc32/v2.30/bin/bin/../../lib/gcc/pic32c/6.2.1/../../../../pic32c/lib/v7e-m/fpv4-sp/hard\libc.a(lib_a-mallocr.o)
                0x20005b7c                __malloc_top_pad

.data.__malloc_sbrk_base%40
                0x20005b80        0x4
 .data.__malloc_sbrk_base
                0x20005b80        0x4 c:/program files (x86)/microchip/xc32/v2.30/bin/bin/../../lib/gcc/pic32c/6.2.1/../../../../pic32c/lib/v7e-m/fpv4-sp/hard\libc.a(lib_a-mallocr.o)
                0x20005b80                __malloc_sbrk_base

.data.__malloc_trim_threshold%41
                0x20005b84        0x4
 .data.__malloc_trim_threshold
                0x20005b84        0x4 c:/program files (x86)/microchip/xc32/v2.30/bin/bin/../../lib/gcc/pic32c/6.2.1/../../../../pic32c/lib/v7e-m/fpv4-sp/hard\libc.a(lib_a-mallocr.o)
                0x20005b84                __malloc_trim_threshold

.data._impure_ptr%42
                0x20005b88        0x4
 .data._impure_ptr
                0x20005b88        0x4 c:/program files (x86)/microchip/xc32/v2.30/bin/bin/../../lib/gcc/pic32c/6.2.1/../../../../pic32c/lib/v7e-m/fpv4-sp/hard\libc.a(lib_a-impure.o)
                0x20005b88                _impure_ptr

.bss%43         0x20005b8c        0x4
 .bss           0x20005b8c        0x4 c:/program files (x86)/microchip/xc32/v2.30/bin/bin/../../lib/gcc/pic32c/6.2.1/../../../../pic32c/lib/v7e-m/fpv4-sp/hard\libpic32c.a(sbrk.o)

.bss.nvm_error%44
                0x20005b12        0x2
 .bss.nvm_error
                0x20005b12        0x2 build/LAN9253_D51_SPI_direct_mode/production/_ext/1593096446/plib_nvmctrl.o

.bss.u16ErrorRegister%45
                0x20005b46        0x2
 .bss.u16ErrorRegister
                0x20005b46        0x2 build/LAN9253_D51_SPI_direct_mode/production/_ext/108134065/coeappl.o
                0x20005b46                u16ErrorRegister

.data.gis_Tx_DMAComplete%46
                0x20005a73        0x1
 .data.gis_Tx_DMAComplete
                0x20005a73        0x1 build/LAN9253_D51_SPI_direct_mode/production/_ext/2070931557/drv_spi.o
                0x20005a73                gis_Tx_DMAComplete

.data.gis_Rx_DMAComplete%47
                0x20005b35        0x1
 .data.gis_Rx_DMAComplete
                0x20005b35        0x1 build/LAN9253_D51_SPI_direct_mode/production/_ext/2070931557/drv_spi.o
                0x20005b35                gis_Rx_DMAComplete

.data.gis_TxRx_DMAComplete%48
                0x20005b36        0x1
 .data.gis_TxRx_DMAComplete
                0x20005b36        0x1 build/LAN9253_D51_SPI_direct_mode/production/_ext/2070931557/drv_spi.o
                0x20005b36                gis_TxRx_DMAComplete

.bss.isLastByteTransferInProgress.9877%49
                0x20005b37        0x1
 .bss.isLastByteTransferInProgress.9877
                0x20005b37        0x1 build/LAN9253_D51_SPI_direct_mode/production/_ext/1865555181/plib_qspi_spi.o

.bss.gchEtherCATQSPITransmission%50
                0x20005b90        0x1
 .bss.gchEtherCATQSPITransmission
                0x20005b90        0x1 build/LAN9253_D51_SPI_direct_mode/production/_ext/1671622979/Drivers.o
                0x20005b90                gchEtherCATQSPITransmission

.bss.gbALEvtOpEnabled%51
                0x20005b91        0x1
 .bss.gbALEvtOpEnabled
                0x20005b91        0x1 build/LAN9253_D51_SPI_direct_mode/production/_ext/108147519/LAN925x.o
                0x20005b91                gbALEvtOpEnabled

.bss.bInitFinished%52
                0x20005b92        0x1
 .bss.bInitFinished
                0x20005b92        0x1 build/LAN9253_D51_SPI_direct_mode/production/_ext/108134065/ecatappl.o
                0x20005b92                bInitFinished

.bss.EepromLoaded%53
                0x20005b93        0x1
 .bss.EepromLoaded
                0x20005b93        0x1 build/LAN9253_D51_SPI_direct_mode/production/_ext/108134065/ecatslv.o
                0x20005b93                EepromLoaded

.bss.gFirmwareDownload_Started%54
                0x20005b94        0x1
 .bss.gFirmwareDownload_Started
                0x20005b94        0x1 build/LAN9253_D51_SPI_direct_mode/production/_ext/108134065/sample_app.o
                0x20005b94                gFirmwareDownload_Started

.bss.gFirmwareDownload_Finished%55
                0x20005b95        0x1
 .bss.gFirmwareDownload_Finished
                0x20005b95        0x1 build/LAN9253_D51_SPI_direct_mode/production/_ext/108134065/sample_app.o
                0x20005b95                gFirmwareDownload_Finished

.bss.bSdoInWork%56
                0x20005b96        0x1
 .bss.bSdoInWork
                0x20005b96        0x1 build/LAN9253_D51_SPI_direct_mode/production/_ext/108134065/sdoserv.o
                0x20005b96                bSdoInWork

.eh_frame%z1    0x00000000        0x0
 .eh_frame      0x00000000        0x0 c:/program files (x86)/microchip/xc32/v2.30/bin/bin/../../lib/gcc/pic32c/6.2.1/v7e-m/fpv4-sp/hard/crtbegin.o

.dinit%57       0x00000280     0x1f70
 .dinit         0x00000280     0x1f70 data_init

.text.StartInputHandler%58
                0x000021f0      0x7e4
 .text.StartInputHandler
                0x000021f0      0x7e4 build/LAN9253_D51_SPI_direct_mode/production/_ext/108134065/ecatslv.o
                0x000021f0                StartInputHandler

.text.AL_ControlInd%59
                0x000029d4      0x790
 .text.AL_ControlInd
                0x000029d4      0x790 build/LAN9253_D51_SPI_direct_mode/production/_ext/108134065/ecatslv.o
                0x000029d4                AL_ControlInd

.text.OBJ_Write%60
                0x00003164      0x710
 .text.OBJ_Write
                0x00003164      0x710 build/LAN9253_D51_SPI_direct_mode/production/_ext/108134065/objdef.o
                0x00003164                OBJ_Write

.rodata.aName0x1601%61
                0x00003874      0x6a0
 .rodata.aName0x1601
                0x00003874      0x6a0 build/LAN9253_D51_SPI_direct_mode/production/_ext/108134065/coeappl.o
                0x00003874                aName0x1601

.rodata.aName0x1A00%62
                0x00003f14      0x6a0
 .rodata.aName0x1A00
                0x00003f14      0x6a0 build/LAN9253_D51_SPI_direct_mode/production/_ext/108134065/coeappl.o
                0x00003f14                aName0x1A00

.text.OBJ_Read%63
                0x000045b4      0x67c
 .text.OBJ_Read
                0x000045b4      0x67c build/LAN9253_D51_SPI_direct_mode/production/_ext/108134065/objdef.o
                0x000045b4                OBJ_Read

.text.SDOS_SdoInd%64
                0x00004c30      0x5e4
 .text.SDOS_SdoInd
                0x00004c30      0x5e4 build/LAN9253_D51_SPI_direct_mode/production/_ext/108134065/sdoserv.o
                0x00004c30                SDOS_SdoInd

.rodata.aName0x7010%65
                0x00005214      0x520
 .rodata.aName0x7010
                0x00005214      0x520 build/LAN9253_D51_SPI_direct_mode/production/_ext/108134065/coeappl.o
                0x00005214                aName0x7010

.rodata.aName0x6000%66
                0x00005734      0x51c
 .rodata.aName0x6000
                0x00005734      0x51c build/LAN9253_D51_SPI_direct_mode/production/_ext/108134065/coeappl.o
                0x00005734                aName0x6000

.text.FOE_ServiceInd%67
                0x00005c50      0x488
 .text.FOE_ServiceInd
                0x00005c50      0x488 build/LAN9253_D51_SPI_direct_mode/production/_ext/108134065/ecatfoe.o
                0x00005c50                FOE_ServiceInd

.text._malloc_r%68
                0x000060d8      0x438
 .text._malloc_r
                0x000060d8      0x438 c:/program files (x86)/microchip/xc32/v2.30/bin/bin/../../lib/gcc/pic32c/6.2.1/../../../../pic32c/lib/v7e-m/fpv4-sp/hard\libc.a(lib_a-mallocr.o)
                0x000060d8                _malloc_r

.text.SDOS_SdoInfoInd%69
                0x00006510      0x434
 .text.SDOS_SdoInfoInd
                0x00006510      0x434 build/LAN9253_D51_SPI_direct_mode/production/_ext/108134065/sdoserv.o
                0x00006510                SDOS_SdoInfoInd

.text.SdoDownloadSegmentInd%70
                0x00006944      0x3b4
 .text.SdoDownloadSegmentInd
                0x00006944      0x3b4 build/LAN9253_D51_SPI_direct_mode/production/_ext/108134065/sdoserv.o

.text.CheckSmSettings%71
                0x00006cf8      0x3a4
 .text.CheckSmSettings
                0x00006cf8      0x3a4 build/LAN9253_D51_SPI_direct_mode/production/_ext/108134065/ecatslv.o
                0x00006cf8                CheckSmSettings

.rodata.asEntryDesc0x1601%72
                0x0000709c      0x308
 .rodata.asEntryDesc0x1601
                0x0000709c      0x308 build/LAN9253_D51_SPI_direct_mode/production/_ext/108134065/coeappl.o
                0x0000709c                asEntryDesc0x1601

.rodata.asEntryDesc0x1A00%73
                0x000073a4      0x308
 .rodata.asEntryDesc0x1A00
                0x000073a4      0x308 build/LAN9253_D51_SPI_direct_mode/production/_ext/108134065/coeappl.o
                0x000073a4                asEntryDesc0x1A00

.rodata.asEntryDesc0x6000%74
                0x000076ac      0x308
 .rodata.asEntryDesc0x6000
                0x000076ac      0x308 build/LAN9253_D51_SPI_direct_mode/production/_ext/108134065/coeappl.o
                0x000076ac                asEntryDesc0x6000

.rodata.asEntryDesc0x7010%75
                0x000079b4      0x308
 .rodata.asEntryDesc0x7010
                0x000079b4      0x308 build/LAN9253_D51_SPI_direct_mode/production/_ext/108134065/coeappl.o
                0x000079b4                asEntryDesc0x7010

.text.EEPROM_CommandHandler%76
                0x00007cbc      0x2bc
 .text.EEPROM_CommandHandler
                0x00007cbc      0x2bc build/LAN9253_D51_SPI_direct_mode/production/_ext/108134065/ecatappl.o
                0x00007cbc                EEPROM_CommandHandler

.text.AL_ControlRes%77
                0x00007f78      0x2bc
 .text.AL_ControlRes
                0x00007f78      0x2bc build/LAN9253_D51_SPI_direct_mode/production/_ext/108134065/ecatslv.o
                0x00007f78                AL_ControlRes

.text.SdoUploadSegmentInd%78
                0x00008234      0x260
 .text.SdoUploadSegmentInd
                0x00008234      0x260 build/LAN9253_D51_SPI_direct_mode/production/_ext/108134065/sdoserv.o

.text._DRV_SPI_StartDMATransfer%79
                0x00008494      0x20c
 .text._DRV_SPI_StartDMATransfer
                0x00008494      0x20c build/LAN9253_D51_SPI_direct_mode/production/_ext/2070931557/drv_spi.o

.text.SendSmFailedEmergency%80
                0x000086a0      0x1e0
 .text.SendSmFailedEmergency
                0x000086a0      0x1e0 build/LAN9253_D51_SPI_direct_mode/production/_ext/108134065/ecatslv.o
                0x000086a0                SendSmFailedEmergency

.text.SdoRes%81
                0x00008880      0x1bc
 .text.SdoRes   0x00008880      0x1bc build/LAN9253_D51_SPI_direct_mode/production/_ext/108134065/sdoserv.o
                0x00008880                SdoRes

.text.ECAT_Main%82
                0x00008a3c      0x1b4
 .text.ECAT_Main
                0x00008a3c      0x1b4 build/LAN9253_D51_SPI_direct_mode/production/_ext/108134065/ecatslv.o
                0x00008a3c                ECAT_Main

.text.CheckSyncTypeValue%83
                0x00008bf0      0x1b4
 .text.CheckSyncTypeValue
                0x00008bf0      0x1b4 build/LAN9253_D51_SPI_direct_mode/production/_ext/108134065/objdef.o
                0x00008bf0                CheckSyncTypeValue

.text.QSPI_Handler%84
                0x00008da4      0x1a0
 .text.QSPI_Handler
                0x00008da4      0x1a0 build/LAN9253_D51_SPI_direct_mode/production/_ext/1865555181/plib_qspi_spi.o
                0x00008da4                QSPI_Handler

.text.DRV_SPI_Initialize%85
                0x00008f44      0x19c
 .text.DRV_SPI_Initialize
                0x00008f44      0x19c build/LAN9253_D51_SPI_direct_mode/production/_ext/2070931557/drv_spi.o
                0x00008f44                DRV_SPI_Initialize

.text.DRV_SPI_Open%86
                0x000090e0      0x19c
 .text.DRV_SPI_Open
                0x000090e0      0x19c build/LAN9253_D51_SPI_direct_mode/production/_ext/2070931557/drv_spi.o
                0x000090e0                DRV_SPI_Open

.text._DRV_SPI_RX_DMA_CallbackHandler%87
                0x0000927c      0x190
 .text._DRV_SPI_RX_DMA_CallbackHandler
                0x0000927c      0x190 build/LAN9253_D51_SPI_direct_mode/production/_ext/2070931557/drv_spi.o
                0x0000927c                _DRV_SPI_RX_DMA_CallbackHandler

.text.DRV_SPI_WriteReadTransferAdd%88
                0x0000940c      0x17c
 .text.DRV_SPI_WriteReadTransferAdd
                0x0000940c      0x17c build/LAN9253_D51_SPI_direct_mode/production/_ext/2070931557/drv_spi.o
                0x0000940c                DRV_SPI_WriteReadTransferAdd

.text.QSPI_WriteRead%89
                0x00009588      0x17c
 .text.QSPI_WriteRead
                0x00009588      0x17c build/LAN9253_D51_SPI_direct_mode/production/_ext/1865555181/plib_qspi_spi.o
                0x00009588                QSPI_WriteRead

.text.LAN9253SPI_DMA_FastRead%90
                0x00009704      0x178
 .text.LAN9253SPI_DMA_FastRead
                0x00009704      0x178 build/LAN9253_D51_SPI_direct_mode/production/_ext/1671622979/Drivers.o
                0x00009704                LAN9253SPI_DMA_FastRead

.text.OBJ_GetEntryOffset%91
                0x0000987c      0x178
 .text.OBJ_GetEntryOffset
                0x0000987c      0x178 build/LAN9253_D51_SPI_direct_mode/production/_ext/108134065/objdef.o
                0x0000987c                OBJ_GetEntryOffset

.text._free_r%92
                0x000099f4      0x178
 .text._free_r  0x000099f4      0x178 c:/program files (x86)/microchip/xc32/v2.30/bin/bin/../../lib/gcc/pic32c/6.2.1/../../../../pic32c/lib/v7e-m/fpv4-sp/hard\libc.a(lib_a-freer.o)
                0x000099f4                _free_r

.text.APPL_GenerateMapping%93
                0x00009b6c      0x174
 .text.APPL_GenerateMapping
                0x00009b6c      0x174 build/LAN9253_D51_SPI_direct_mode/production/_ext/108134065/sample_app.o
                0x00009b6c                APPL_GenerateMapping

.text.ECAT_Init%94
                0x00009ce0      0x170
 .text.ECAT_Init
                0x00009ce0      0x170 build/LAN9253_D51_SPI_direct_mode/production/_ext/108134065/ecatslv.o
                0x00009ce0                ECAT_Init

.text.SetALStatus%95
                0x00009e50      0x164
 .text.SetALStatus
                0x00009e50      0x164 build/LAN9253_D51_SPI_direct_mode/production/_ext/108134065/ecatslv.o
                0x00009e50                SetALStatus

.text.MBX_CheckAndCopyMailbox%96
                0x00009fb4      0x164
 .text.MBX_CheckAndCopyMailbox
                0x00009fb4      0x164 build/LAN9253_D51_SPI_direct_mode/production/_ext/108134065/mailbox.o
                0x00009fb4                MBX_CheckAndCopyMailbox

.text.COE_ObjInit%97
                0x0000a118      0x160
 .text.COE_ObjInit
                0x0000a118      0x160 build/LAN9253_D51_SPI_direct_mode/production/_ext/108134065/coeappl.o
                0x0000a118                COE_ObjInit

.text.Sync0_Isr%98
                0x0000a278      0x15c
 .text.Sync0_Isr
                0x0000a278      0x15c build/LAN9253_D51_SPI_direct_mode/production/_ext/108134065/ecatappl.o
                0x0000a278                Sync0_Isr

.text.MainInit%99
                0x0000a3d4      0x15c
 .text.MainInit
                0x0000a3d4      0x15c build/LAN9253_D51_SPI_direct_mode/production/_ext/108134065/ecatappl.o
                0x0000a3d4                MainInit

.text.DMAC_ChannelTransfer%100
                0x0000a530      0x154
 .text.DMAC_ChannelTransfer
                0x0000a530      0x154 build/LAN9253_D51_SPI_direct_mode/production/_ext/1865161661/plib_dmac.o
                0x0000a530                DMAC_ChannelTransfer

.text.MBX_StopMailboxHandler%101
                0x0000a684      0x154
 .text.MBX_StopMailboxHandler
                0x0000a684      0x154 build/LAN9253_D51_SPI_direct_mode/production/_ext/108134065/mailbox.o
                0x0000a684                MBX_StopMailboxHandler

.text.PDI_Isr%102
                0x0000a7d8      0x14c
 .text.PDI_Isr  0x0000a7d8      0x14c build/LAN9253_D51_SPI_direct_mode/production/_ext/108134065/ecatappl.o
                0x0000a7d8                PDI_Isr

.text.FoE_WriteData%103
                0x0000a924      0x148
 .text.FoE_WriteData
                0x0000a924      0x148 build/LAN9253_D51_SPI_direct_mode/production/_ext/108134065/sample_app.o
                0x0000a924                FoE_WriteData

.text._DRV_SPI_PlibCallbackHandler%104
                0x0000aa6c      0x13c
 .text._DRV_SPI_PlibCallbackHandler
                0x0000aa6c      0x13c build/LAN9253_D51_SPI_direct_mode/production/_ext/2070931557/drv_spi.o

.text.APP_FlashEEPROMUpdate%105
                0x0000aba8      0x12e
 .text.APP_FlashEEPROMUpdate
                0x0000aba8      0x12e build/LAN9253_D51_SPI_direct_mode/production/_ext/1360937237/app.o
                0x0000aba8                APP_FlashEEPROMUpdate

.text.StopInputHandler%106
                0x0000acd8      0x12c
 .text.StopInputHandler
                0x0000acd8      0x12c build/LAN9253_D51_SPI_direct_mode/production/_ext/108134065/ecatslv.o
                0x0000acd8                StopInputHandler

.text._DRV_SPI_DisableInterrupts%107
                0x0000ae04      0x124
 .text._DRV_SPI_DisableInterrupts
                0x0000ae04      0x124 build/LAN9253_D51_SPI_direct_mode/production/_ext/2070931557/drv_spi.o

.text.MBX_MailboxReadInd%108
                0x0000af28      0x124
 .text.MBX_MailboxReadInd
                0x0000af28      0x124 build/LAN9253_D51_SPI_direct_mode/production/_ext/108134065/mailbox.o
                0x0000af28                MBX_MailboxReadInd

.text.OBJ_GetObjectLength%109
                0x0000b04c      0x124
 .text.OBJ_GetObjectLength
                0x0000b04c      0x124 build/LAN9253_D51_SPI_direct_mode/production/_ext/108134065/objdef.o
                0x0000b04c                OBJ_GetObjectLength

.text.SDOS_SdoRes%110
                0x0000b170      0x124
 .text.SDOS_SdoRes
                0x0000b170      0x124 build/LAN9253_D51_SPI_direct_mode/production/_ext/108134065/sdoserv.o
                0x0000b170                SDOS_SdoRes

.text.DC_CheckWatchdog%111
                0x0000b294      0x120
 .text.DC_CheckWatchdog
                0x0000b294      0x120 build/LAN9253_D51_SPI_direct_mode/production/_ext/108134065/ecatslv.o
                0x0000b294                DC_CheckWatchdog

.text.OBJ_GetDesc%112
                0x0000b3b4      0x120
 .text.OBJ_GetDesc
                0x0000b3b4      0x120 build/LAN9253_D51_SPI_direct_mode/production/_ext/108134065/objdef.o
                0x0000b3b4                OBJ_GetDesc

.text._DRV_SPI_EnableInterrupts%113
                0x0000b4d4      0x116
 .text._DRV_SPI_EnableInterrupts
                0x0000b4d4      0x116 build/LAN9253_D51_SPI_direct_mode/production/_ext/2070931557/drv_spi.o

.text.MBX_StartMailboxHandler%114
                0x0000b5ec      0x114
 .text.MBX_StartMailboxHandler
                0x0000b5ec      0x114 build/LAN9253_D51_SPI_direct_mode/production/_ext/108134065/mailbox.o
                0x0000b5ec                MBX_StartMailboxHandler

.text.DRV_SPITransferReceive%115
                0x0000b700      0x110
 .text.DRV_SPITransferReceive
                0x0000b700      0x110 build/LAN9253_D51_SPI_direct_mode/production/_ext/2070931557/drv_spi.o
                0x0000b700                DRV_SPITransferReceive

.text.MBX_CopyToSendMailbox%116
                0x0000b810      0x10c
 .text.MBX_CopyToSendMailbox
                0x0000b810      0x10c build/LAN9253_D51_SPI_direct_mode/production/_ext/108134065/mailbox.o
                0x0000b810                MBX_CopyToSendMailbox

.rodata.aName0x1C32%117
                0x0000b91c      0x100
 .rodata.aName0x1C32
                0x0000b91c      0x100 build/LAN9253_D51_SPI_direct_mode/production/_ext/108134065/coeappl.o
                0x0000b91c                aName0x1C32

.rodata.aName0x1C33%118
                0x0000ba1c      0x100
 .rodata.aName0x1C33
                0x0000ba1c      0x100 build/LAN9253_D51_SPI_direct_mode/production/_ext/108134065/coeappl.o
                0x0000ba1c                aName0x1C33

.text.MBX_Init%119
                0x0000bb1c      0x100
 .text.MBX_Init
                0x0000bb1c      0x100 build/LAN9253_D51_SPI_direct_mode/production/_ext/108134065/mailbox.o
                0x0000bb1c                MBX_Init

.text.ECAT_CheckTimer%120
                0x0000bc1c       0xf8
 .text.ECAT_CheckTimer
                0x0000bc1c       0xf8 build/LAN9253_D51_SPI_direct_mode/production/_ext/108134065/ecatappl.o
                0x0000bc1c                ECAT_CheckTimer

.text.OBJ_GetObjectList%121
                0x0000bd14       0xf8
 .text.OBJ_GetObjectList
                0x0000bd14       0xf8 build/LAN9253_D51_SPI_direct_mode/production/_ext/108134065/objdef.o
                0x0000bd14                OBJ_GetObjectList

.text.MBX_MailboxWriteInd%122
                0x0000be0c       0xf4
 .text.MBX_MailboxWriteInd
                0x0000be0c       0xf4 build/LAN9253_D51_SPI_direct_mode/production/_ext/108134065/mailbox.o
                0x0000be0c                MBX_MailboxWriteInd

.text.ReBuild_SPI_SetCfg_data%123
                0x0000bf00       0xf0
 .text.ReBuild_SPI_SetCfg_data
                0x0000bf00       0xf0 build/LAN9253_D51_SPI_direct_mode/production/_ext/1671622979/Drivers.o
                0x0000bf00                ReBuild_SPI_SetCfg_data

.text.MainLoop%124
                0x0000bff0       0xec
 .text.MainLoop
                0x0000bff0       0xec build/LAN9253_D51_SPI_direct_mode/production/_ext/108134065/ecatappl.o
                0x0000bff0                MainLoop

.text.COE_AddObjectToDic%125
                0x0000c0dc       0xe8
 .text.COE_AddObjectToDic
                0x0000c0dc       0xe8 build/LAN9253_D51_SPI_direct_mode/production/_ext/108134065/coeappl.o
                0x0000c0dc                COE_AddObjectToDic

.text.COE_Main%126
                0x0000c1c4       0xe8
 .text.COE_Main
                0x0000c1c4       0xe8 build/LAN9253_D51_SPI_direct_mode/production/_ext/108134065/coeappl.o
                0x0000c1c4                COE_Main

.text.EIC_Initialize%127
                0x0000c2ac       0xe4
 .text.EIC_Initialize
                0x0000c2ac       0xe4 build/LAN9253_D51_SPI_direct_mode/production/_ext/60167341/plib_eic.o
                0x0000c2ac                EIC_Initialize

.text.LAN925x_Init%128
                0x0000c390       0xe0
 .text.LAN925x_Init
                0x0000c390       0xe0 build/LAN9253_D51_SPI_direct_mode/production/_ext/108147519/LAN925x.o
                0x0000c390                LAN925x_Init

.text.MBX_MailboxSendReq%129
                0x0000c470       0xdc
 .text.MBX_MailboxSendReq
                0x0000c470       0xdc build/LAN9253_D51_SPI_direct_mode/production/_ext/108134065/mailbox.o
                0x0000c470                MBX_MailboxSendReq

.text.LAN9253SPI_DMA_Read%130
                0x0000c54c       0xd8
 .text.LAN9253SPI_DMA_Read
                0x0000c54c       0xd8 build/LAN9253_D51_SPI_direct_mode/production/_ext/1671622979/Drivers.o
                0x0000c54c                LAN9253SPI_DMA_Read

.text.HandleDmaData%131
                0x0000c624       0xd6
 .text.HandleDmaData
                0x0000c624       0xd6 build/LAN9253_D51_SPI_direct_mode/production/_ext/1671622979/Drivers.o
                0x0000c624                HandleDmaData

.text._DRV_SPI_FreeTransferObjGet%132
                0x0000c6fc       0xd4
 .text._DRV_SPI_FreeTransferObjGet
                0x0000c6fc       0xd4 build/LAN9253_D51_SPI_direct_mode/production/_ext/2070931557/drv_spi.o

.text.HW_EscWrite%133
                0x0000c7d0       0xce
 .text.HW_EscWrite
                0x0000c7d0       0xce build/LAN9253_D51_SPI_direct_mode/production/_ext/108147519/LAN925x.o
                0x0000c7d0                HW_EscWrite

.text.DMAC_Initialize%134
                0x0000c8a0       0xcc
 .text.DMAC_Initialize
                0x0000c8a0       0xcc build/LAN9253_D51_SPI_direct_mode/production/_ext/1865161661/plib_dmac.o
                0x0000c8a0                DMAC_Initialize

.text.HW_EscRead%135
                0x0000c96c       0xcc
 .text.HW_EscRead
                0x0000c96c       0xcc build/LAN9253_D51_SPI_direct_mode/production/_ext/108147519/LAN925x.o
                0x0000c96c                HW_EscRead

.text.SODS_ClearPendingResponse%136
                0x0000ca38       0xcc
 .text.SODS_ClearPendingResponse
                0x0000ca38       0xcc build/LAN9253_D51_SPI_direct_mode/production/_ext/108134065/sdoserv.o
                0x0000ca38                SODS_ClearPendingResponse

.text.DRV_SPI_TransferSetup%137
                0x0000cb04       0xc8
 .text.DRV_SPI_TransferSetup
                0x0000cb04       0xc8 build/LAN9253_D51_SPI_direct_mode/production/_ext/2070931557/drv_spi.o
                0x0000cb04                DRV_SPI_TransferSetup

.rodata.asEntryDesc0x1C3x%138
                0x0000cbcc       0xc8
 .rodata.asEntryDesc0x1C3x
                0x0000cbcc       0xc8 build/LAN9253_D51_SPI_direct_mode/production/_ext/108134065/coeappl.o
                0x0000cbcc                asEntryDesc0x1C3x

.text.GetDummyBytesRequired%139
                0x0000cc94       0xc6
 .text.GetDummyBytesRequired
                0x0000cc94       0xc6 build/LAN9253_D51_SPI_direct_mode/production/_ext/108147519/ESC_Utils.o
                0x0000cc94                GetDummyBytesRequired

.text.LAN9253SPI_DMA_Write%140
                0x0000cd5c       0xc4
 .text.LAN9253SPI_DMA_Write
                0x0000cd5c       0xc4 build/LAN9253_D51_SPI_direct_mode/production/_ext/1671622979/Drivers.o
                0x0000cd5c                LAN9253SPI_DMA_Write

.text.FoE_Read%141
                0x0000ce20       0xbc
 .text.FoE_Read
                0x0000ce20       0xbc build/LAN9253_D51_SPI_direct_mode/production/_ext/108134065/sample_app.o
                0x0000ce20                FoE_Read

.text.MBX_Main%142
                0x0000cedc       0xb8
 .text.MBX_Main
                0x0000cedc       0xb8 build/LAN9253_D51_SPI_direct_mode/production/_ext/108134065/mailbox.o
                0x0000cedc                MBX_Main

.text._DRV_SPI_UpdateTransferSetupAndAssertCS%143
                0x0000cf94       0xb4
 .text._DRV_SPI_UpdateTransferSetupAndAssertCS
                0x0000cf94       0xb4 build/LAN9253_D51_SPI_direct_mode/production/_ext/2070931557/drv_spi.o

.text.PDO_OutputMapping%144
                0x0000d048       0xb0
 .text.PDO_OutputMapping
                0x0000d048       0xb0 build/LAN9253_D51_SPI_direct_mode/production/_ext/108134065/ecatappl.o
                0x0000d048                PDO_OutputMapping

.text.EMCY_Init%145
                0x0000d0f8       0xa8
 .text.EMCY_Init
                0x0000d0f8       0xa8 build/LAN9253_D51_SPI_direct_mode/production/_ext/108134065/emcy.o
                0x0000d0f8                EMCY_Init

.text.EMCY_SendEmergency%146
                0x0000d1a0       0xa4
 .text.EMCY_SendEmergency
                0x0000d1a0       0xa4 build/LAN9253_D51_SPI_direct_mode/production/_ext/108134065/emcy.o
                0x0000d1a0                EMCY_SendEmergency

.text.HW_EepromReload%147
                0x0000d244       0xa0
 .text.HW_EepromReload
                0x0000d244       0xa0 build/LAN9253_D51_SPI_direct_mode/production/_ext/108134065/sample_app.o
                0x0000d244                HW_EepromReload

.text._DRV_SPI_DriverHandleValidate%148
                0x0000d2e4       0x9c
 .text._DRV_SPI_DriverHandleValidate
                0x0000d2e4       0x9c build/LAN9253_D51_SPI_direct_mode/production/_ext/2070931557/drv_spi.o

.text._DMAC_interruptHandler%149
                0x0000d380       0x9c
 .text._DMAC_interruptHandler
                0x0000d380       0x9c build/LAN9253_D51_SPI_direct_mode/production/_ext/1865161661/plib_dmac.o
                0x0000d380                _DMAC_interruptHandler

.text.CSRLengthAlignment%150
                0x0000d41c       0x9c
 .text.CSRLengthAlignment
                0x0000d41c       0x9c build/LAN9253_D51_SPI_direct_mode/production/_ext/1671622979/Drivers.o
                0x0000d41c                CSRLengthAlignment

.text.COE_SyncTimeStamp%151
                0x0000d4b8       0x9c
 .text.COE_SyncTimeStamp
                0x0000d4b8       0x9c build/LAN9253_D51_SPI_direct_mode/production/_ext/108134065/coeappl.o
                0x0000d4b8                COE_SyncTimeStamp

.text.QSPI_TransferSetup%152
                0x0000d554       0x98
 .text.QSPI_TransferSetup
                0x0000d554       0x98 build/LAN9253_D51_SPI_direct_mode/production/_ext/1865555181/plib_qspi_spi.o
                0x0000d554                QSPI_TransferSetup

.text.OBJ_GetNoOfObjects%153
                0x0000d5ec       0x98
 .text.OBJ_GetNoOfObjects
                0x0000d5ec       0x98 build/LAN9253_D51_SPI_direct_mode/production/_ext/108134065/objdef.o
                0x0000d5ec                OBJ_GetNoOfObjects

.text.RoundUpMultipleOf%154
                0x0000d684       0x96
 .text.RoundUpMultipleOf
                0x0000d684       0x96 build/LAN9253_D51_SPI_direct_mode/production/_ext/108147519/ESC_Utils.o

.text.PDO_InputMapping%155
                0x0000d71c       0x94
 .text.PDO_InputMapping
                0x0000d71c       0x94 build/LAN9253_D51_SPI_direct_mode/production/_ext/108134065/ecatappl.o
                0x0000d71c                PDO_InputMapping

.text.OBJ_CopyNumberToString%156
                0x0000d7b0       0x94
 .text.OBJ_CopyNumberToString
                0x0000d7b0       0x94 build/LAN9253_D51_SPI_direct_mode/production/_ext/108134065/objdef.o
                0x0000d7b0                OBJ_CopyNumberToString

.text.FoE_Write%157
                0x0000d844       0x94
 .text.FoE_Write
                0x0000d844       0x94 build/LAN9253_D51_SPI_direct_mode/production/_ext/108134065/sample_app.o
                0x0000d844                FoE_Write

.text._malloc_trim_r%158
                0x0000d8d8       0x94
 .text._malloc_trim_r
                0x0000d8d8       0x94 c:/program files (x86)/microchip/xc32/v2.30/bin/bin/../../lib/gcc/pic32c/6.2.1/../../../../pic32c/lib/v7e-m/fpv4-sp/hard\libc.a(lib_a-freer.o)
                0x0000d8d8                _malloc_trim_r

.text._DRV_SPI_TX_DMA_CallbackHandler%159
                0x0000d96c       0x90
 .text._DRV_SPI_TX_DMA_CallbackHandler
                0x0000d96c       0x90 build/LAN9253_D51_SPI_direct_mode/production/_ext/2070931557/drv_spi.o
                0x0000d96c                _DRV_SPI_TX_DMA_CallbackHandler

.text.HW_EepromWrite%160
                0x0000d9fc       0x90
 .text.HW_EepromWrite
                0x0000d9fc       0x90 build/LAN9253_D51_SPI_direct_mode/production/_ext/108134065/sample_app.o
                0x0000d9fc                HW_EepromWrite

.text._SPI_initialize%161
                0x0000da8c       0x88
 .text._SPI_initialize
                0x0000da8c       0x88 build/LAN9253_D51_SPI_direct_mode/production/_ext/2070931557/drv_spi.o
                0x0000da8c                _SPI_initialize

.text._APP_MyTransferEventHandler%162
                0x0000db14       0x80
 .text._APP_MyTransferEventHandler
                0x0000db14       0x80 build/LAN9253_D51_SPI_direct_mode/production/_ext/2070931557/drv_spi.o
                0x0000db14                _APP_MyTransferEventHandler

.text.ESC_BYTE_TEST_Register_Read%163
                0x0000db94       0x80
 .text.ESC_BYTE_TEST_Register_Read
                0x0000db94       0x80 build/LAN9253_D51_SPI_direct_mode/production/_ext/1671622979/Drivers.o
                0x0000db94                ESC_BYTE_TEST_Register_Read

.text.COE_RemoveDicEntry%164
                0x0000dc14       0x80
 .text.COE_RemoveDicEntry
                0x0000dc14       0x80 build/LAN9253_D51_SPI_direct_mode/production/_ext/108134065/coeappl.o
                0x0000dc14                COE_RemoveDicEntry

.text.__pic32c_data_initialization%165
                0x0000dc94       0x80
 .text.__pic32c_data_initialization
                0x0000dc94       0x80 c:/program files (x86)/microchip/xc32/v2.30/bin/bin/../../lib/gcc/pic32c/6.2.1/../../../../pic32c/lib/v7e-m/fpv4-sp/hard\libpic32c.a(data_init.o)
                0x0000dc94                __pic32c_data_initialization

.text.HandleCycleTimeMeasurement%166
                0x0000dd14       0x7c
 .text.HandleCycleTimeMeasurement
                0x0000dd14       0x7c build/LAN9253_D51_SPI_direct_mode/production/_ext/108134065/ecatappl.o
                0x0000dd14                HandleCycleTimeMeasurement

.text.MBX_MailboxRepeatReq%167
                0x0000dd90       0x7c
 .text.MBX_MailboxRepeatReq
                0x0000dd90       0x7c build/LAN9253_D51_SPI_direct_mode/production/_ext/108134065/mailbox.o
                0x0000dd90                MBX_MailboxRepeatReq

.text.PORT_Initialize%168
                0x0000de0c       0x78
 .text.PORT_Initialize
                0x0000de0c       0x78 build/LAN9253_D51_SPI_direct_mode/production/_ext/1865521619/plib_port.o
                0x0000de0c                PORT_Initialize

.text.EscWrite%169
                0x0000de84       0x78
 .text.EscWrite
                0x0000de84       0x78 build/LAN9253_D51_SPI_direct_mode/production/_ext/108147519/LAN925x.o
                0x0000de84                EscWrite

.rodata.cAbortCode%170
                0x0000defc       0x78
 .rodata.cAbortCode
                0x0000defc       0x78 build/LAN9253_D51_SPI_direct_mode/production/_ext/108134065/sdoserv.o
                0x0000defc                cAbortCode

.text.APP_FlashWrite%171
                0x0000df74       0x78
 .text.APP_FlashWrite
                0x0000df74       0x78 build/LAN9253_D51_SPI_direct_mode/production/_ext/1360937237/app.o
                0x0000df74                APP_FlashWrite

.text.EscRead%172
                0x0000dfec       0x76
 .text.EscRead  0x0000dfec       0x76 build/LAN9253_D51_SPI_direct_mode/production/_ext/108147519/LAN925x.o
                0x0000dfec                EscRead

.text.COE_ServiceInd%173
                0x0000e064       0x74
 .text.COE_ServiceInd
                0x0000e064       0x74 build/LAN9253_D51_SPI_direct_mode/production/_ext/108134065/ecatcoe.o
                0x0000e064                COE_ServiceInd

.text.StartOutputHandler%174
                0x0000e0d8       0x74
 .text.StartOutputHandler
                0x0000e0d8       0x74 build/LAN9253_D51_SPI_direct_mode/production/_ext/108134065/ecatslv.o
                0x0000e0d8                StartOutputHandler

.text.NVIC_Initialize%175
                0x0000e14c       0x72
 .text.NVIC_Initialize
                0x0000e14c       0x72 build/LAN9253_D51_SPI_direct_mode/production/_ext/1865468468/plib_nvic.o
                0x0000e14c                NVIC_Initialize

.text.GetSystemTimeDelay%176
                0x0000e1c0       0x70
 .text.GetSystemTimeDelay
                0x0000e1c0       0x70 build/LAN9253_D51_SPI_direct_mode/production/_ext/108134065/ecatappl.o
                0x0000e1c0                GetSystemTimeDelay

.text.APP_Tasks%177
                0x0000e230       0x70
 .text.APP_Tasks
                0x0000e230       0x70 build/LAN9253_D51_SPI_direct_mode/production/_ext/1360937237/app.o
                0x0000e230                APP_Tasks

.text.CalculateCRC8%178
                0x0000e2a0       0x6e
 .text.CalculateCRC8
                0x0000e2a0       0x6e build/LAN9253_D51_SPI_direct_mode/production/_ext/1360937237/app.o
                0x0000e2a0                CalculateCRC8

.text.DRV_SPI_TransferEventHandlerSet%179
                0x0000e310       0x6c
 .text.DRV_SPI_TransferEventHandlerSet
                0x0000e310       0x6c build/LAN9253_D51_SPI_direct_mode/production/_ext/2070931557/drv_spi.o
                0x0000e310                DRV_SPI_TransferEventHandlerSet

.text.FDPLL0_Initialize%180
                0x0000e37c       0x6c
 .text.FDPLL0_Initialize
                0x0000e37c       0x6c build/LAN9253_D51_SPI_direct_mode/production/_ext/1984496892/plib_clock.o

.text.FOE_Data%181
                0x0000e3e8       0x6c
 .text.FOE_Data
                0x0000e3e8       0x6c build/LAN9253_D51_SPI_direct_mode/production/_ext/108134065/foeappl.o
                0x0000e3e8                FOE_Data

.text.DMAC_ChannelSettingsSet%182
                0x0000e454       0x68
 .text.DMAC_ChannelSettingsSet
                0x0000e454       0x68 build/LAN9253_D51_SPI_direct_mode/production/_ext/1865161661/plib_dmac.o
                0x0000e454                DMAC_ChannelSettingsSet

.text.NVMCTRL_PageWrite%183
                0x0000e4bc       0x68
 .text.NVMCTRL_PageWrite
                0x0000e4bc       0x68 build/LAN9253_D51_SPI_direct_mode/production/_ext/1593096446/plib_nvmctrl.o
                0x0000e4bc                NVMCTRL_PageWrite

.text.COE_UpdateSyncErrorStatus%184
                0x0000e524       0x68
 .text.COE_UpdateSyncErrorStatus
                0x0000e524       0x68 build/LAN9253_D51_SPI_direct_mode/production/_ext/108134065/coeappl.o
                0x0000e524                COE_UpdateSyncErrorStatus

.text.MailboxServiceInd%185
                0x0000e58c       0x68
 .text.MailboxServiceInd
                0x0000e58c       0x68 build/LAN9253_D51_SPI_direct_mode/production/_ext/108134065/mailbox.o
                0x0000e58c                MailboxServiceInd

.text.SPI_SetConfiguration%186
                0x0000e5f4       0x64
 .text.SPI_SetConfiguration
                0x0000e5f4       0x64 build/LAN9253_D51_SPI_direct_mode/production/_ext/1671622979/Drivers.o
                0x0000e5f4                SPI_SetConfiguration

.text.ECAT_CheckWatchdog%187
                0x0000e658       0x64
 .text.ECAT_CheckWatchdog
                0x0000e658       0x64 build/LAN9253_D51_SPI_direct_mode/production/_ext/108134065/ecatslv.o
                0x0000e658                ECAT_CheckWatchdog

.text.BL_FOE_Application%188
                0x0000e6bc       0x64
 .text.BL_FOE_Application
                0x0000e6bc       0x64 build/LAN9253_D51_SPI_direct_mode/production/_ext/108134065/sample_app.o
                0x0000e6bc                BL_FOE_Application

.text.APPL_Application%189
                0x0000e720       0x64
 .text.APPL_Application
                0x0000e720       0x64 build/LAN9253_D51_SPI_direct_mode/production/_ext/108134065/sample_app.o
                0x0000e720                APPL_Application

.text.DmaBuffsizeCalculate%190
                0x0000e784       0x5e
 .text.DmaBuffsizeCalculate
                0x0000e784       0x5e build/LAN9253_D51_SPI_direct_mode/production/_ext/1671622979/Drivers.o
                0x0000e784                DmaBuffsizeCalculate

.text._SPI_TxRx%191
                0x0000e7e4       0x5c
 .text._SPI_TxRx
                0x0000e7e4       0x5c build/LAN9253_D51_SPI_direct_mode/production/_ext/2070931557/drv_spi.o
                0x0000e7e4                _SPI_TxRx

.text.EIC_CallbackRegister%192
                0x0000e840       0x5c
 .text.EIC_CallbackRegister
                0x0000e840       0x5c build/LAN9253_D51_SPI_direct_mode/production/_ext/60167341/plib_eic.o
                0x0000e840                EIC_CallbackRegister

.text.Reset_Handler%193
                0x0000e89c       0x5c
 .text.Reset_Handler
                0x0000e89c       0x5c build/LAN9253_D51_SPI_direct_mode/production/_ext/1171490990/startup_xc32.o
                0x0000e89c                Reset_Handler

.text.Read0x10F8%194
                0x0000e8f8       0x5c
 .text.Read0x10F8
                0x0000e8f8       0x5c build/LAN9253_D51_SPI_direct_mode/production/_ext/108134065/coeappl.o
                0x0000e8f8                Read0x10F8

.text.COE_ContinueInd%195
                0x0000e954       0x5c
 .text.COE_ContinueInd
                0x0000e954       0x5c build/LAN9253_D51_SPI_direct_mode/production/_ext/108134065/ecatcoe.o
                0x0000e954                COE_ContinueInd

.text.GetOutOfEmptyEmcyQueue%196
                0x0000e9b0       0x5c
 .text.GetOutOfEmptyEmcyQueue
                0x0000e9b0       0x5c build/LAN9253_D51_SPI_direct_mode/production/_ext/108134065/emcy.o
                0x0000e9b0                GetOutOfEmptyEmcyQueue

.text.GetOutOfSendEmcyQueue%197
                0x0000ea0c       0x5c
 .text.GetOutOfSendEmcyQueue
                0x0000ea0c       0x5c build/LAN9253_D51_SPI_direct_mode/production/_ext/108134065/emcy.o
                0x0000ea0c                GetOutOfSendEmcyQueue

.text.FoE_ReadData%198
                0x0000ea68       0x5c
 .text.FoE_ReadData
                0x0000ea68       0x5c build/LAN9253_D51_SPI_direct_mode/production/_ext/108134065/sample_app.o
                0x0000ea68                FoE_ReadData

.text._DRV_SPI_TransferObjAddToList%199
                0x0000eac4       0x5a
 .text._DRV_SPI_TransferObjAddToList
                0x0000eac4       0x5a build/LAN9253_D51_SPI_direct_mode/production/_ext/2070931557/drv_spi.o

.text.DRV_SPIReceive%200
                0x0000eb1e       0x5a
 .text.DRV_SPIReceive
                0x0000eb1e       0x5a build/LAN9253_D51_SPI_direct_mode/production/_ext/2070931557/drv_spi.o
                0x0000eb1e                DRV_SPIReceive

.text.DRV_SPITransfer%201
                0x0000eb78       0x5a
 .text.DRV_SPITransfer
                0x0000eb78       0x5a build/LAN9253_D51_SPI_direct_mode/production/_ext/2070931557/drv_spi.o
                0x0000eb78                DRV_SPITransfer

.text.GetOutOfMbxQueue%202
                0x0000ebd2       0x58
 .text.GetOutOfMbxQueue
                0x0000ebd2       0x58 build/LAN9253_D51_SPI_direct_mode/production/_ext/108134065/mailbox.o
                0x0000ebd2                GetOutOfMbxQueue

.text.OBJ_GetEntryDesc%203
                0x0000ec2a       0x58
 .text.OBJ_GetEntryDesc
                0x0000ec2a       0x58 build/LAN9253_D51_SPI_direct_mode/production/_ext/108134065/objdef.o
                0x0000ec2a                OBJ_GetEntryDesc

.text.CLOCK_Initialize%204
                0x0000ec84       0x54
 .text.CLOCK_Initialize
                0x0000ec84       0x54 build/LAN9253_D51_SPI_direct_mode/production/_ext/1984496892/plib_clock.o
                0x0000ec84                CLOCK_Initialize

.text.__NVIC_SetPriority%205
                0x0000ecd8       0x54
 .text.__NVIC_SetPriority
                0x0000ecd8       0x54 build/LAN9253_D51_SPI_direct_mode/production/_ext/1865468468/plib_nvic.o

.text.ESF_PDI_Init%206
                0x0000ed2c       0x54
 .text.ESF_PDI_Init
                0x0000ed2c       0x54 build/LAN9253_D51_SPI_direct_mode/production/_ext/1671622979/Drivers.o
                0x0000ed2c                ESF_PDI_Init

.text.PutInMbxQueue%207
                0x0000ed80       0x52
 .text.PutInMbxQueue
                0x0000ed80       0x52 build/LAN9253_D51_SPI_direct_mode/production/_ext/108134065/mailbox.o
                0x0000ed80                PutInMbxQueue

.text._SPI_Rx%208
                0x0000edd4       0x50
 .text._SPI_Rx  0x0000edd4       0x50 build/LAN9253_D51_SPI_direct_mode/production/_ext/2070931557/drv_spi.o
                0x0000edd4                _SPI_Rx

.text._SPI_Tx%209
                0x0000ee24       0x50
 .text._SPI_Tx  0x0000ee24       0x50 build/LAN9253_D51_SPI_direct_mode/production/_ext/2070931557/drv_spi.o
                0x0000ee24                _SPI_Tx

.text.SYS_Initialize%210
                0x0000ee74       0x50
 .text.SYS_Initialize
                0x0000ee74       0x50 build/LAN9253_D51_SPI_direct_mode/production/_ext/1171490990/initialization.o
                0x0000ee74                SYS_Initialize

.text.UpdateEEPROMLoadedState%211
                0x0000eec4       0x4c
 .text.UpdateEEPROMLoadedState
                0x0000eec4       0x4c build/LAN9253_D51_SPI_direct_mode/production/_ext/108134065/ecatslv.o
                0x0000eec4                UpdateEEPROMLoadedState

.text.DisableSyncManChannel%212
                0x0000ef10       0x4c
 .text.DisableSyncManChannel
                0x0000ef10       0x4c build/LAN9253_D51_SPI_direct_mode/production/_ext/108134065/ecatslv.o
                0x0000ef10                DisableSyncManChannel

.text.CheckIfEcatError%213
                0x0000ef5c       0x4c
 .text.CheckIfEcatError
                0x0000ef5c       0x4c build/LAN9253_D51_SPI_direct_mode/production/_ext/108134065/ecatslv.o
                0x0000ef5c                CheckIfEcatError

.text._DRV_SPI_ResourceLock%214
                0x0000efa8       0x4a
 .text._DRV_SPI_ResourceLock
                0x0000efa8       0x4a build/LAN9253_D51_SPI_direct_mode/production/_ext/2070931557/drv_spi.o

.text.HW_EscReadIsr%215
                0x0000eff2       0x4a
 .text.HW_EscReadIsr
                0x0000eff2       0x4a build/LAN9253_D51_SPI_direct_mode/production/_ext/108147519/LAN925x.o
                0x0000eff2                HW_EscReadIsr

.text.HW_EscWriteIsr%216
                0x0000f03c       0x4a
 .text.HW_EscWriteIsr
                0x0000f03c       0x4a build/LAN9253_D51_SPI_direct_mode/production/_ext/108147519/LAN925x.o
                0x0000f03c                HW_EscWriteIsr

.text.EnableSyncManChannel%217
                0x0000f086       0x4a
 .text.EnableSyncManChannel
                0x0000f086       0x4a build/LAN9253_D51_SPI_direct_mode/production/_ext/108134065/ecatslv.o
                0x0000f086                EnableSyncManChannel

.text.__NVIC_SetPriorityGrouping%218
                0x0000f0d0       0x48
 .text.__NVIC_SetPriorityGrouping
                0x0000f0d0       0x48 build/LAN9253_D51_SPI_direct_mode/production/_ext/1865468468/plib_nvic.o

.text.FOE_Read%219
                0x0000f118       0x48
 .text.FOE_Read
                0x0000f118       0x48 build/LAN9253_D51_SPI_direct_mode/production/_ext/108134065/foeappl.o
                0x0000f118                FOE_Read

.text.__libc_init_array%220
                0x0000f160       0x48
 .text.__libc_init_array
                0x0000f160       0x48 c:/program files (x86)/microchip/xc32/v2.30/bin/bin/../../lib/gcc/pic32c/6.2.1/../../../../pic32c/lib/v7e-m/fpv4-sp/hard\libc.a(lib_a-init.o)
                0x0000f160                __libc_init_array

.text.SYS_DMA_AddressingModeSetup%221
                0x0000f1a8       0x46
 .text.SYS_DMA_AddressingModeSetup
                0x0000f1a8       0x46 build/LAN9253_D51_SPI_direct_mode/production/_ext/14461671/sys_dma.o
                0x0000f1a8                SYS_DMA_AddressingModeSetup

.text.ResetALEventMask%222
                0x0000f1ee       0x46
 .text.ResetALEventMask
                0x0000f1ee       0x46 build/LAN9253_D51_SPI_direct_mode/production/_ext/108134065/ecatslv.o
                0x0000f1ee                ResetALEventMask

.text.SetALEventMask%223
                0x0000f234       0x46
 .text.SetALEventMask
                0x0000f234       0x46 build/LAN9253_D51_SPI_direct_mode/production/_ext/108134065/ecatslv.o
                0x0000f234                SetALEventMask

.text._DRV_SPI_RemoveTransferObjFromList%224
                0x0000f27a       0x44
 .text._DRV_SPI_RemoveTransferObjFromList
                0x0000f27a       0x44 build/LAN9253_D51_SPI_direct_mode/production/_ext/2070931557/drv_spi.o

.text.GCLK0_Initialize%225
                0x0000f2c0       0x44
 .text.GCLK0_Initialize
                0x0000f2c0       0x44 build/LAN9253_D51_SPI_direct_mode/production/_ext/1984496892/plib_clock.o

.text.__NVIC_DisableIRQ%226
                0x0000f304       0x44
 .text.__NVIC_DisableIRQ
                0x0000f304       0x44 build/LAN9253_D51_SPI_direct_mode/production/_ext/1881668453/sys_int.o

.text.SYS_INT_SourceDisable%227
                0x0000f348       0x44
 .text.SYS_INT_SourceDisable
                0x0000f348       0x44 build/LAN9253_D51_SPI_direct_mode/production/_ext/1881668453/sys_int.o
                0x0000f348                SYS_INT_SourceDisable

.text.FPU_Enable%228
                0x0000f38c       0x44
 .text.FPU_Enable
                0x0000f38c       0x44 build/LAN9253_D51_SPI_direct_mode/production/_ext/1171490990/startup_xc32.o

.text.COE_ObjDictionaryInit%229
                0x0000f3d0       0x44
 .text.COE_ObjDictionaryInit
                0x0000f3d0       0x44 build/LAN9253_D51_SPI_direct_mode/production/_ext/108134065/coeappl.o
                0x0000f3d0                COE_ObjDictionaryInit

.text.Sync1_Isr%230
                0x0000f414       0x44
 .text.Sync1_Isr
                0x0000f414       0x44 build/LAN9253_D51_SPI_direct_mode/production/_ext/108134065/ecatappl.o
                0x0000f414                Sync1_Isr

.text.PutInEmptyEmcyQueue%231
                0x0000f458       0x44
 .text.PutInEmptyEmcyQueue
                0x0000f458       0x44 build/LAN9253_D51_SPI_direct_mode/production/_ext/108134065/emcy.o
                0x0000f458                PutInEmptyEmcyQueue

.text.PutInSendEmcyQueue%232
                0x0000f49c       0x44
 .text.PutInSendEmcyQueue
                0x0000f49c       0x44 build/LAN9253_D51_SPI_direct_mode/production/_ext/108134065/emcy.o
                0x0000f49c                PutInSendEmcyQueue

.text.AddObjectsToObjDictionary%233
                0x0000f4e0       0x42
 .text.AddObjectsToObjDictionary
                0x0000f4e0       0x42 build/LAN9253_D51_SPI_direct_mode/production/_ext/108134065/coeappl.o
                0x0000f4e0                AddObjectsToObjDictionary

.text%234       0x0000f524       0x40
 .text          0x0000f524       0x40 c:/program files (x86)/microchip/xc32/v2.30/bin/bin/../../lib/gcc/pic32c/6.2.1/v7e-m/fpv4-sp/hard/crtbegin.o

.text.SYSTICK_TimerInitialize%235
                0x0000f564       0x40
 .text.SYSTICK_TimerInitialize
                0x0000f564       0x40 build/LAN9253_D51_SPI_direct_mode/production/_ext/1827571544/plib_systick.o
                0x0000f564                SYSTICK_TimerInitialize

.text.__NVIC_GetEnableIRQ%236
                0x0000f5a4       0x40
 .text.__NVIC_GetEnableIRQ
                0x0000f5a4       0x40 build/LAN9253_D51_SPI_direct_mode/production/_ext/1881668453/sys_int.o

.text.ICache_Enable%237
                0x0000f5e4       0x40
 .text.ICache_Enable
                0x0000f5e4       0x40 build/LAN9253_D51_SPI_direct_mode/production/_ext/1171490990/startup_xc32.o

.rodata.aName0x10F1%238
                0x0000f624       0x40
 .rodata.aName0x10F1
                0x0000f624       0x40 build/LAN9253_D51_SPI_direct_mode/production/_ext/108134065/coeappl.o
                0x0000f624                aName0x10F1

.text.COE_ClearObjDictionary%239
                0x0000f664       0x40
 .text.COE_ClearObjDictionary
                0x0000f664       0x40 build/LAN9253_D51_SPI_direct_mode/production/_ext/108134065/coeappl.o
                0x0000f664                COE_ClearObjDictionary

.text.SYS_DMA_DataWidthSetup%240
                0x0000f6a4       0x3e
 .text.SYS_DMA_DataWidthSetup
                0x0000f6a4       0x3e build/LAN9253_D51_SPI_direct_mode/production/_ext/14461671/sys_dma.o
                0x0000f6a4                SYS_DMA_DataWidthSetup

.text.DMAC_ChannelCallbackRegister%241
                0x0000f6e4       0x3c
 .text.DMAC_ChannelCallbackRegister
                0x0000f6e4       0x3c build/LAN9253_D51_SPI_direct_mode/production/_ext/1865161661/plib_dmac.o
                0x0000f6e4                DMAC_ChannelCallbackRegister

.text.__NVIC_EnableIRQ%242
                0x0000f720       0x78
 .text.__NVIC_EnableIRQ
                0x0000f720       0x3c build/LAN9253_D51_SPI_direct_mode/production/_ext/1865468468/plib_nvic.o
 .text.__NVIC_EnableIRQ
                0x0000f75c       0x3c build/LAN9253_D51_SPI_direct_mode/production/_ext/1881668453/sys_int.o

.text.HW_GetALEventRegister%244
                0x0000f798       0x3c
 .text.HW_GetALEventRegister
                0x0000f798       0x3c build/LAN9253_D51_SPI_direct_mode/production/_ext/108147519/LAN925x.o
                0x0000f798                HW_GetALEventRegister

.rodata.aName0x1018%245
                0x0000f7d4       0x3c
 .rodata.aName0x1018
                0x0000f7d4       0x3c build/LAN9253_D51_SPI_direct_mode/production/_ext/108134065/coeappl.o
                0x0000f7d4                aName0x1018

.text.ECAT_Application%246
                0x0000f810       0x3c
 .text.ECAT_Application
                0x0000f810       0x3c build/LAN9253_D51_SPI_direct_mode/production/_ext/108134065/ecatappl.o
                0x0000f810                ECAT_Application

.text.APP_RunApplication%247
                0x0000f84c       0x3c
 .text.APP_RunApplication
                0x0000f84c       0x3c build/LAN9253_D51_SPI_direct_mode/production/_ext/1360937237/app.o

.text.PORT_PinSet%248
                0x0000f888       0x38
 .text.PORT_PinSet
                0x0000f888       0x38 build/LAN9253_D51_SPI_direct_mode/production/_ext/2070931557/drv_spi.o

.text.PORT_PinClear%249
                0x0000f8c0       0x38
 .text.PORT_PinClear
                0x0000f8c0       0x38 build/LAN9253_D51_SPI_direct_mode/production/_ext/2070931557/drv_spi.o

.text.QSPI_IsBusy%250
                0x0000f8f8       0x38
 .text.QSPI_IsBusy
                0x0000f8f8       0x38 build/LAN9253_D51_SPI_direct_mode/production/_ext/1865555181/plib_qspi_spi.o
                0x0000f8f8                QSPI_IsBusy

.text.PORT_PinSet%251
                0x0000f930       0x38
 .text.PORT_PinSet
                0x0000f930       0x38 build/LAN9253_D51_SPI_direct_mode/production/_ext/1671622979/Drivers.o

.text.PORT_PinClear%252
                0x0000f968       0x38
 .text.PORT_PinClear
                0x0000f968       0x38 build/LAN9253_D51_SPI_direct_mode/production/_ext/1671622979/Drivers.o

.text.PORT_PinOutputEnable%253
                0x0000f9a0       0x38
 .text.PORT_PinOutputEnable
                0x0000f9a0       0x38 build/LAN9253_D51_SPI_direct_mode/production/_ext/1671622979/Drivers.o

.text.PORT_PinSet%254
                0x0000f9d8       0x38
 .text.PORT_PinSet
                0x0000f9d8       0x38 build/LAN9253_D51_SPI_direct_mode/production/_ext/108147519/LAN925x.o

.text.PORT_PinClear%255
                0x0000fa10       0x38
 .text.PORT_PinClear
                0x0000fa10       0x38 build/LAN9253_D51_SPI_direct_mode/production/_ext/108147519/LAN925x.o

.text.FOE_Write%256
                0x0000fa48       0x38
 .text.FOE_Write
                0x0000fa48       0x38 build/LAN9253_D51_SPI_direct_mode/production/_ext/108134065/foeappl.o
                0x0000fa48                FOE_Write

.text.FOE_Ack%257
                0x0000fa80       0x38
 .text.FOE_Ack  0x0000fa80       0x38 build/LAN9253_D51_SPI_direct_mode/production/_ext/108134065/foeappl.o
                0x0000fa80                FOE_Ack

.text.APP_FW_startDownload%258
                0x0000fab8       0x38
 .text.APP_FW_startDownload
                0x0000fab8       0x38 build/LAN9253_D51_SPI_direct_mode/production/_ext/108134065/sample_app.o
                0x0000fab8                APP_FW_startDownload

.text.OBJ_GetObjectHandle%259
                0x0000faf0       0x36
 .text.OBJ_GetObjectHandle
                0x0000faf0       0x36 build/LAN9253_D51_SPI_direct_mode/production/_ext/108134065/objdef.o
                0x0000faf0                OBJ_GetObjectHandle

.text.NVMCTRL_BlockErase%260
                0x0000fb28       0x34
 .text.NVMCTRL_BlockErase
                0x0000fb28       0x34 build/LAN9253_D51_SPI_direct_mode/production/_ext/1593096446/plib_nvmctrl.o
                0x0000fb28                NVMCTRL_BlockErase

.text.HW_GetALEventRegister_Isr%261
                0x0000fb5c       0x34
 .text.HW_GetALEventRegister_Isr
                0x0000fb5c       0x34 build/LAN9253_D51_SPI_direct_mode/production/_ext/108147519/LAN925x.o
                0x0000fb5c                HW_GetALEventRegister_Isr

.rodata.drvSPI0InitData%262
                0x0000fb90       0x30
 .rodata.drvSPI0InitData
                0x0000fb90       0x30 build/LAN9253_D51_SPI_direct_mode/production/_ext/1171490990/initialization.o
                0x0000fb90                drvSPI0InitData

.text.FOE_ContinueInd%263
                0x0000fbc0       0x30
 .text.FOE_ContinueInd
                0x0000fbc0       0x30 build/LAN9253_D51_SPI_direct_mode/production/_ext/108134065/ecatfoe.o
                0x0000fbc0                FOE_ContinueInd

.text.GetSyncMan%264
                0x0000fbf0       0x30
 .text.GetSyncMan
                0x0000fbf0       0x30 build/LAN9253_D51_SPI_direct_mode/production/_ext/108134065/ecatslv.o
                0x0000fbf0                GetSyncMan

.text._DRV_SPI_MAKE_HANDLE%265
                0x0000fc20       0x2c
 .text._DRV_SPI_MAKE_HANDLE
                0x0000fc20       0x2c build/LAN9253_D51_SPI_direct_mode/production/_ext/2070931557/drv_spi.o

.text._DRV_SPI_UPDATE_TOKEN%266
                0x0000fc4c       0x2c
 .text._DRV_SPI_UPDATE_TOKEN
                0x0000fc4c       0x2c build/LAN9253_D51_SPI_direct_mode/production/_ext/2070931557/drv_spi.o

.text._DRV_SPI_ResourceUnlock%267
                0x0000fc78       0x2c
 .text._DRV_SPI_ResourceUnlock
                0x0000fc78       0x2c build/LAN9253_D51_SPI_direct_mode/production/_ext/2070931557/drv_spi.o

.text.GCLK1_Initialize%268
                0x0000fca4       0x2c
 .text.GCLK1_Initialize
                0x0000fca4       0x2c build/LAN9253_D51_SPI_direct_mode/production/_ext/1984496892/plib_clock.o

.text.GCLK2_Initialize%269
                0x0000fcd0       0x2c
 .text.GCLK2_Initialize
                0x0000fcd0       0x2c build/LAN9253_D51_SPI_direct_mode/production/_ext/1984496892/plib_clock.o

.text.DMAC_ChannelSettingsGet%270
                0x0000fcfc       0x2c
 .text.DMAC_ChannelSettingsGet
                0x0000fcfc       0x2c build/LAN9253_D51_SPI_direct_mode/production/_ext/1865161661/plib_dmac.o
                0x0000fcfc                DMAC_ChannelSettingsGet

.text.EIC_EXTINT_0_InterruptHandler%271
                0x0000fd28       0x2c
 .text.EIC_EXTINT_0_InterruptHandler
                0x0000fd28       0x2c build/LAN9253_D51_SPI_direct_mode/production/_ext/60167341/plib_eic.o
                0x0000fd28                EIC_EXTINT_0_InterruptHandler

.text.EIC_EXTINT_1_InterruptHandler%272
                0x0000fd54       0x2c
 .text.EIC_EXTINT_1_InterruptHandler
                0x0000fd54       0x2c build/LAN9253_D51_SPI_direct_mode/production/_ext/60167341/plib_eic.o
                0x0000fd54                EIC_EXTINT_1_InterruptHandler

.text.EIC_EXTINT_7_InterruptHandler%273
                0x0000fd80       0x2c
 .text.EIC_EXTINT_7_InterruptHandler
                0x0000fd80       0x2c build/LAN9253_D51_SPI_direct_mode/production/_ext/60167341/plib_eic.o
                0x0000fd80                EIC_EXTINT_7_InterruptHandler

.text.SysTick_Handler%274
                0x0000fdac       0x2c
 .text.SysTick_Handler
                0x0000fdac       0x2c build/LAN9253_D51_SPI_direct_mode/production/_ext/1827571544/plib_systick.o
                0x0000fdac                SysTick_Handler

.text.SYS_INT_Disable%275
                0x0000fdd8       0x2c
 .text.SYS_INT_Disable
                0x0000fdd8       0x2c build/LAN9253_D51_SPI_direct_mode/production/_ext/1881668453/sys_int.o
                0x0000fdd8                SYS_INT_Disable

.text.FOE_Init%276
                0x0000fe04       0x2c
 .text.FOE_Init
                0x0000fe04       0x2c build/LAN9253_D51_SPI_direct_mode/production/_ext/108134065/ecatfoe.o
                0x0000fe04                FOE_Init

.text.Emulation_Init%277
                0x0000fe30       0x2c
 .text.Emulation_Init
                0x0000fe30       0x2c build/LAN9253_D51_SPI_direct_mode/production/_ext/108134065/sample_app.o
                0x0000fe30                Emulation_Init

.text._sbrk%278
                0x0000fe5c       0x2c
 .text._sbrk    0x0000fe5c       0x2c c:/program files (x86)/microchip/xc32/v2.30/bin/bin/../../lib/gcc/pic32c/6.2.1/../../../../pic32c/lib/v7e-m/fpv4-sp/hard\libpic32c.a(sbrk.o)
                0x0000fe5c                _sbrk

.text.DRV_SPI_WriteTransferAdd%279
                0x0000fe88       0x2a
 .text.DRV_SPI_WriteTransferAdd
                0x0000fe88       0x2a build/LAN9253_D51_SPI_direct_mode/production/_ext/2070931557/drv_spi.o
                0x0000fe88                DRV_SPI_WriteTransferAdd

.text.DRV_SPI_ReadTransferAdd%280
                0x0000feb2       0x2a
 .text.DRV_SPI_ReadTransferAdd
                0x0000feb2       0x2a build/LAN9253_D51_SPI_direct_mode/production/_ext/2070931557/drv_spi.o
                0x0000feb2                DRV_SPI_ReadTransferAdd

.text.SYS_INT_Restore%281
                0x0000fedc       0x2a
 .text.SYS_INT_Restore
                0x0000fedc       0x2a build/LAN9253_D51_SPI_direct_mode/production/_ext/1881668453/sys_int.o
                0x0000fedc                SYS_INT_Restore

.text.SYS_INT_SourceRestore%282
                0x0000ff06       0x2a
 .text.SYS_INT_SourceRestore
                0x0000ff06       0x2a build/LAN9253_D51_SPI_direct_mode/production/_ext/1881668453/sys_int.o
                0x0000ff06                SYS_INT_SourceRestore

.text.OSCCTRL_Initialize%283
                0x0000ff30       0x28
 .text.OSCCTRL_Initialize
                0x0000ff30       0x28 build/LAN9253_D51_SPI_direct_mode/production/_ext/1984496892/plib_clock.o

.text.NVMCTRL_IsBusy%284
                0x0000ff58       0x28
 .text.NVMCTRL_IsBusy
                0x0000ff58       0x28 build/LAN9253_D51_SPI_direct_mode/production/_ext/1593096446/plib_nvmctrl.o
                0x0000ff58                NVMCTRL_IsBusy

.text.QSPI_CallbackRegister%285
                0x0000ff80       0x28
 .text.QSPI_CallbackRegister
                0x0000ff80       0x28 build/LAN9253_D51_SPI_direct_mode/production/_ext/1865555181/plib_qspi_spi.o
                0x0000ff80                QSPI_CallbackRegister

.text.SYSTICK_TimerCallbackSet%286
                0x0000ffa8       0x28
 .text.SYSTICK_TimerCallbackSet
                0x0000ffa8       0x28 build/LAN9253_D51_SPI_direct_mode/production/_ext/1827571544/plib_systick.o
                0x0000ffa8                SYSTICK_TimerCallbackSet

.rodata.drvSPI0remapDataBits%287
                0x0000ffd0       0x28
 .rodata.drvSPI0remapDataBits
                0x0000ffd0       0x28 build/LAN9253_D51_SPI_direct_mode/production/_ext/1171490990/initialization.o
                0x0000ffd0                drvSPI0remapDataBits

.text.ESC_IRQ_cb%288
                0x0000fff8       0x28
 .text.ESC_IRQ_cb
                0x0000fff8       0x28 build/LAN9253_D51_SPI_direct_mode/production/_ext/1671622979/Drivers.o
                0x0000fff8                ESC_IRQ_cb

.text.APP_FW_StateBOOTtoINIT%289
                0x00010020       0x28
 .text.APP_FW_StateBOOTtoINIT
                0x00010020       0x28 build/LAN9253_D51_SPI_direct_mode/production/_ext/108134065/sample_app.o
                0x00010020                APP_FW_StateBOOTtoINIT

.text.SPI_DisableQuadMode%290
                0x00010048       0x26
 .text.SPI_DisableQuadMode
                0x00010048       0x26 build/LAN9253_D51_SPI_direct_mode/production/_ext/1671622979/Drivers.o
                0x00010048                SPI_DisableQuadMode

.text.SYSTICK_TimerStart%291
                0x00010070       0x24
 .text.SYSTICK_TimerStart
                0x00010070       0x24 build/LAN9253_D51_SPI_direct_mode/production/_ext/1827571544/plib_systick.o
                0x00010070                SYSTICK_TimerStart

.text.TCM_Configure%292
                0x00010094       0x24
 .text.TCM_Configure
                0x00010094       0x24 build/LAN9253_D51_SPI_direct_mode/production/_ext/1171490990/startup_xc32.o

.text.PDI_Init_SYNC_Interrupts%293
                0x000100b8       0x24
 .text.PDI_Init_SYNC_Interrupts
                0x000100b8       0x24 build/LAN9253_D51_SPI_direct_mode/production/_ext/108147519/ESC_Utils.o
                0x000100b8                PDI_Init_SYNC_Interrupts

.text.COE_Init%294
                0x000100dc       0x24
 .text.COE_Init
                0x000100dc       0x24 build/LAN9253_D51_SPI_direct_mode/production/_ext/108134065/ecatcoe.o
                0x000100dc                COE_Init

.text.StopOutputHandler%295
                0x00010100       0x24
 .text.StopOutputHandler
                0x00010100       0x24 build/LAN9253_D51_SPI_direct_mode/production/_ext/108134065/ecatslv.o
                0x00010100                StopOutputHandler

.text.EMCY_IsQueueEmpty%296
                0x00010124       0x24
 .text.EMCY_IsQueueEmpty
                0x00010124       0x24 build/LAN9253_D51_SPI_direct_mode/production/_ext/108134065/emcy.o
                0x00010124                EMCY_IsQueueEmpty

.text.FOE_Error%297
                0x00010148       0x24
 .text.FOE_Error
                0x00010148       0x24 build/LAN9253_D51_SPI_direct_mode/production/_ext/108134065/foeappl.o
                0x00010148                FOE_Error

.text.APPL_InputMapping%298
                0x0001016c       0x24
 .text.APPL_InputMapping
                0x0001016c       0x24 build/LAN9253_D51_SPI_direct_mode/production/_ext/108134065/sample_app.o
                0x0001016c                APPL_InputMapping

.text.APPL_OutputMapping%299
                0x00010190       0x24
 .text.APPL_OutputMapping
                0x00010190       0x24 build/LAN9253_D51_SPI_direct_mode/production/_ext/108134065/sample_app.o
                0x00010190                APPL_OutputMapping

.text.APP_BankSwitch%300
                0x000101b4       0x24
 .text.APP_BankSwitch
                0x000101b4       0x24 build/LAN9253_D51_SPI_direct_mode/production/_ext/1360937237/app.o

.text.NVMCTRL_Read%301
                0x000101d8       0x22
 .text.NVMCTRL_Read
                0x000101d8       0x22 build/LAN9253_D51_SPI_direct_mode/production/_ext/1593096446/plib_nvmctrl.o
                0x000101d8                NVMCTRL_Read

.text.EMCY_ContinueInd%302
                0x000101fa       0x22
 .text.EMCY_ContinueInd
                0x000101fa       0x22 build/LAN9253_D51_SPI_direct_mode/production/_ext/108134065/emcy.o
                0x000101fa                EMCY_ContinueInd

.text._DRV_SPI_TransferObjListGet%303
                0x0001021c       0x20
 .text._DRV_SPI_TransferObjListGet
                0x0001021c       0x20 build/LAN9253_D51_SPI_direct_mode/production/_ext/2070931557/drv_spi.o

.text.ECAT_SPI_Callback%304
                0x0001023c       0x20
 .text.ECAT_SPI_Callback
                0x0001023c       0x20 build/LAN9253_D51_SPI_direct_mode/production/_ext/1671622979/Drivers.o
                0x0001023c                ECAT_SPI_Callback

.rodata.asEntryDesc0x1018%305
                0x0001025c       0x20
 .rodata.asEntryDesc0x1018
                0x0001025c       0x20 build/LAN9253_D51_SPI_direct_mode/production/_ext/108134065/coeappl.o
                0x0001025c                asEntryDesc0x1018

.text.FOE_Busy%306
                0x0001027c       0x20
 .text.FOE_Busy
                0x0001027c       0x20 build/LAN9253_D51_SPI_direct_mode/production/_ext/108134065/foeappl.o
                0x0001027c                FOE_Busy

.rodata.cBitMask%307
                0x0001029c       0x20
 .rodata.cBitMask
                0x0001029c       0x20 build/LAN9253_D51_SPI_direct_mode/production/_ext/108134065/objdef.o
                0x0001029c                cBitMask

.text._sbrk_r%308
                0x000102bc       0x20
 .text._sbrk_r  0x000102bc       0x20 c:/program files (x86)/microchip/xc32/v2.30/bin/bin/../../lib/gcc/pic32c/6.2.1/../../../../pic32c/lib/v7e-m/fpv4-sp/hard\libc.a(lib_a-sbrkr.o)
                0x000102bc                _sbrk_r

.text.SYS_PORT_PinSet%309
                0x000102dc       0x1c
 .text.SYS_PORT_PinSet
                0x000102dc       0x1c build/LAN9253_D51_SPI_direct_mode/production/_ext/2070931557/drv_spi.o

.text.SYS_PORT_PinClear%310
                0x000102f8       0x1c
 .text.SYS_PORT_PinClear
                0x000102f8       0x1c build/LAN9253_D51_SPI_direct_mode/production/_ext/2070931557/drv_spi.o

.text.NVMCTRL_Initialize%311
                0x00010314       0x1c
 .text.NVMCTRL_Initialize
                0x00010314       0x1c build/LAN9253_D51_SPI_direct_mode/production/_ext/1593096446/plib_nvmctrl.o
                0x00010314                NVMCTRL_Initialize

.text.NVMCTRL_BankSwap%312
                0x00010330       0x1c
 .text.NVMCTRL_BankSwap
                0x00010330       0x1c build/LAN9253_D51_SPI_direct_mode/production/_ext/1593096446/plib_nvmctrl.o
                0x00010330                NVMCTRL_BankSwap

.text.PORT_GroupSet%313
                0x0001034c       0x1c
 .text.PORT_GroupSet
                0x0001034c       0x1c build/LAN9253_D51_SPI_direct_mode/production/_ext/1865521619/plib_port.o
                0x0001034c                PORT_GroupSet

.text.PORT_GroupClear%314
                0x00010368       0x1c
 .text.PORT_GroupClear
                0x00010368       0x1c build/LAN9253_D51_SPI_direct_mode/production/_ext/1865521619/plib_port.o
                0x00010368                PORT_GroupClear

.text.PORT_GroupOutputEnable%315
                0x00010384       0x1c
 .text.PORT_GroupOutputEnable
                0x00010384       0x1c build/LAN9253_D51_SPI_direct_mode/production/_ext/1865521619/plib_port.o
                0x00010384                PORT_GroupOutputEnable

.text.CRITICAL_SECTION_ENTER%316
                0x000103a0       0x1c
 .text.CRITICAL_SECTION_ENTER
                0x000103a0       0x1c build/LAN9253_D51_SPI_direct_mode/production/_ext/1671622979/Drivers.o
                0x000103a0                CRITICAL_SECTION_ENTER

.text.CRITICAL_SECTION_LEAVE%317
                0x000103bc       0x1c
 .text.CRITICAL_SECTION_LEAVE
                0x000103bc       0x1c build/LAN9253_D51_SPI_direct_mode/production/_ext/1671622979/Drivers.o
                0x000103bc                CRITICAL_SECTION_LEAVE

.text.SPIChipSelectDisable%318
                0x000103d8       0x1c
 .text.SPIChipSelectDisable
                0x000103d8       0x1c build/LAN9253_D51_SPI_direct_mode/production/_ext/1671622979/Drivers.o

.text.SPIChipSelectEnable%319
                0x000103f4       0x1c
 .text.SPIChipSelectEnable
                0x000103f4       0x1c build/LAN9253_D51_SPI_direct_mode/production/_ext/1671622979/Drivers.o

.text.ECAT_SysTick_Handler%320
                0x00010410       0x1c
 .text.ECAT_SysTick_Handler
                0x00010410       0x1c build/LAN9253_D51_SPI_direct_mode/production/_ext/1671622979/Drivers.o
                0x00010410                ECAT_SysTick_Handler

.rodata.aName0x1C12%321
                0x0001042c       0x1c
 .rodata.aName0x1C12
                0x0001042c       0x1c build/LAN9253_D51_SPI_direct_mode/production/_ext/108134065/coeappl.o
                0x0001042c                aName0x1C12

.rodata.aName0x1C13%322
                0x00010448       0x1c
 .rodata.aName0x1C13
                0x00010448       0x1c build/LAN9253_D51_SPI_direct_mode/production/_ext/108134065/coeappl.o
                0x00010448                aName0x1C13

.text.OSC32KCTRL_Initialize%323
                0x00010464       0x18
 .text.OSC32KCTRL_Initialize
                0x00010464       0x18 build/LAN9253_D51_SPI_direct_mode/production/_ext/1984496892/plib_clock.o

.rodata.drvSPI0InterruptSources%324
                0x0001047c       0x18
 .rodata.drvSPI0InterruptSources
                0x0001047c       0x18 build/LAN9253_D51_SPI_direct_mode/production/_ext/1171490990/initialization.o
                0x0001047c                drvSPI0InterruptSources

.text.PDI_Init_SYSTick_Interrupt%325
                0x00010494       0x18
 .text.PDI_Init_SYSTick_Interrupt
                0x00010494       0x18 build/LAN9253_D51_SPI_direct_mode/production/_ext/1671622979/Drivers.o

.text.PDI_IRQ_Interrupt%326
                0x000104ac       0x18
 .text.PDI_IRQ_Interrupt
                0x000104ac       0x18 build/LAN9253_D51_SPI_direct_mode/production/_ext/108147519/ESC_Utils.o
                0x000104ac                PDI_IRQ_Interrupt

.text.COE_GetObjectDictionary%327
                0x000104c4       0x18
 .text.COE_GetObjectDictionary
                0x000104c4       0x18 build/LAN9253_D51_SPI_direct_mode/production/_ext/108134065/coeappl.o
                0x000104c4                COE_GetObjectDictionary

.text.BackToInitTransition%328
                0x000104dc       0x18
 .text.BackToInitTransition
                0x000104dc       0x18 build/LAN9253_D51_SPI_direct_mode/production/_ext/108134065/ecatslv.o
                0x000104dc                BackToInitTransition

.text.OBJ_GetObjDesc%329
                0x000104f4       0x18
 .text.OBJ_GetObjDesc
                0x000104f4       0x18 build/LAN9253_D51_SPI_direct_mode/production/_ext/108134065/objdef.o
                0x000104f4                OBJ_GetObjDesc

.text.APP_FW_GetDownloadStateFinished%330
                0x0001050c       0x18
 .text.APP_FW_GetDownloadStateFinished
                0x0001050c       0x18 build/LAN9253_D51_SPI_direct_mode/production/_ext/108134065/sample_app.o
                0x0001050c                APP_FW_GetDownloadStateFinished

.text.APP_Initialize%331
                0x00010524       0x18
 .text.APP_Initialize
                0x00010524       0x18 build/LAN9253_D51_SPI_direct_mode/production/_ext/1360937237/app.o
                0x00010524                APP_Initialize

.text.BL_Start%332
                0x0001053c       0x16
 .text.BL_Start
                0x0001053c       0x16 build/LAN9253_D51_SPI_direct_mode/production/_ext/108134065/bootmode.o
                0x0001053c                BL_Start

.text.EMCY_GetEmcyBuffer%333
                0x00010552       0x16
 .text.EMCY_GetEmcyBuffer
                0x00010552       0x16 build/LAN9253_D51_SPI_direct_mode/production/_ext/108134065/emcy.o
                0x00010552                EMCY_GetEmcyBuffer

.text.APPL_AckErrorInd%334
                0x00010568       0x16
 .text.APPL_AckErrorInd
                0x00010568       0x16 build/LAN9253_D51_SPI_direct_mode/production/_ext/108134065/sample_app.o
                0x00010568                APPL_AckErrorInd

.text.APPL_StartInputHandler%335
                0x0001057e       0x16
 .text.APPL_StartInputHandler
                0x0001057e       0x16 build/LAN9253_D51_SPI_direct_mode/production/_ext/108134065/sample_app.o
                0x0001057e                APPL_StartInputHandler

.text.memcpy%336
                0x00010594       0x16
 .text.memcpy   0x00010594       0x16 c:/program files (x86)/microchip/xc32/v2.30/bin/bin/../../lib/gcc/pic32c/6.2.1/../../../../pic32c/lib/v7e-m/fpv4-sp/hard\libc.a(lib_a-memcpy-stub.o)
                0x00010594                memcpy

.text.EtherCAT_QSPI_CallbackRegistration%337
                0x000105ac       0x14
 .text.EtherCAT_QSPI_CallbackRegistration
                0x000105ac       0x14 build/LAN9253_D51_SPI_direct_mode/production/_ext/1671622979/Drivers.o
                0x000105ac                EtherCAT_QSPI_CallbackRegistration

.text.ESC_Sync0_cb%338
                0x000105c0       0x14
 .text.ESC_Sync0_cb
                0x000105c0       0x14 build/LAN9253_D51_SPI_direct_mode/production/_ext/1671622979/Drivers.o
                0x000105c0                ESC_Sync0_cb

.text.ESC_Sync1_cb%339
                0x000105d4       0x14
 .text.ESC_Sync1_cb
                0x000105d4       0x14 build/LAN9253_D51_SPI_direct_mode/production/_ext/1671622979/Drivers.o
                0x000105d4                ESC_Sync1_cb

.rodata.aName0x1009%340
                0x000105e8       0x14
 .rodata.aName0x1009
                0x000105e8       0x14 build/LAN9253_D51_SPI_direct_mode/production/_ext/108134065/coeappl.o
                0x000105e8                aName0x1009

.rodata.aName0x100A%341
                0x000105fc       0x14
 .rodata.aName0x100A
                0x000105fc       0x14 build/LAN9253_D51_SPI_direct_mode/production/_ext/108134065/coeappl.o
                0x000105fc                aName0x100A

.rodata.asEntryDesc0x10F1%342
                0x00010610       0x14
 .rodata.asEntryDesc0x10F1
                0x00010610       0x14 build/LAN9253_D51_SPI_direct_mode/production/_ext/108134065/coeappl.o
                0x00010610                asEntryDesc0x10F1

.rodata.aName0x10F8%343
                0x00010624       0x14
 .rodata.aName0x10F8
                0x00010624       0x14 build/LAN9253_D51_SPI_direct_mode/production/_ext/108134065/coeappl.o
                0x00010624                aName0x10F8

.rodata.aName0x1C00%344
                0x00010638       0x14
 .rodata.aName0x1C00
                0x00010638       0x14 build/LAN9253_D51_SPI_direct_mode/production/_ext/108134065/coeappl.o
                0x00010638                aName0x1C00

.rodata.drvSPI0PlibAPI%345
                0x0001064c       0x10
 .rodata.drvSPI0PlibAPI
                0x0001064c       0x10 build/LAN9253_D51_SPI_direct_mode/production/_ext/1171490990/initialization.o
                0x0001064c                drvSPI0PlibAPI

.rodata.aName0x1001%346
                0x0001065c       0x10
 .rodata.aName0x1001
                0x0001065c       0x10 build/LAN9253_D51_SPI_direct_mode/production/_ext/108134065/coeappl.o
                0x0001065c                aName0x1001

.text.APPL_StartMailboxHandler%347
                0x0001066c       0x10
 .text.APPL_StartMailboxHandler
                0x0001066c       0x10 build/LAN9253_D51_SPI_direct_mode/production/_ext/108134065/sample_app.o
                0x0001066c                APPL_StartMailboxHandler

.text.APPL_StopInputHandler%348
                0x0001067c       0x10
 .text.APPL_StopInputHandler
                0x0001067c       0x10 build/LAN9253_D51_SPI_direct_mode/production/_ext/108134065/sample_app.o
                0x0001067c                APPL_StopInputHandler

.text.APPL_StartOutputHandler%349
                0x0001068c       0x10
 .text.APPL_StartOutputHandler
                0x0001068c       0x10 build/LAN9253_D51_SPI_direct_mode/production/_ext/108134065/sample_app.o
                0x0001068c                APPL_StartOutputHandler

.text.APPL_StopOutputHandler%350
                0x0001069c       0x10
 .text.APPL_StopOutputHandler
                0x0001069c       0x10 build/LAN9253_D51_SPI_direct_mode/production/_ext/108134065/sample_app.o
                0x0001069c                APPL_StopOutputHandler

.text.main%351  0x000106ac       0x10
 .text.main     0x000106ac       0x10 build/LAN9253_D51_SPI_direct_mode/production/_ext/1360937237/main.o
                0x000106ac                main

.text.malloc%352
                0x000106bc       0x10
 .text.malloc   0x000106bc       0x10 c:/program files (x86)/microchip/xc32/v2.30/bin/bin/../../lib/gcc/pic32c/6.2.1/../../../../pic32c/lib/v7e-m/fpv4-sp/hard\libc.a(lib_a-malloc.o)
                0x000106bc                malloc

.text.free%353  0x000106cc       0x10
 .text.free     0x000106cc       0x10 c:/program files (x86)/microchip/xc32/v2.30/bin/bin/../../lib/gcc/pic32c/6.2.1/../../../../pic32c/lib/v7e-m/fpv4-sp/hard\libc.a(lib_a-malloc.o)
                0x000106cc                free

.text.memset%354
                0x000106dc       0x10
 .text.memset   0x000106dc       0x10 c:/program files (x86)/microchip/xc32/v2.30/bin/bin/../../lib/gcc/pic32c/6.2.1/../../../../pic32c/lib/v7e-m/fpv4-sp/hard\libc.a(lib_a-memset.o)
                0x000106dc                memset

.text%355       0x000106ec       0x10
 .text          0x000106ec       0x10 c:/program files (x86)/microchip/xc32/v2.30/bin/bin/../../lib/gcc/pic32c/6.2.1/../../../../pic32c/lib/v7e-m/fpv4-sp/hard\libc.a(lib_a-strlen.o)
                0x000106ec                strlen

.text.DFLL_Initialize%356
                0x000106fc        0xe
 .text.DFLL_Initialize
                0x000106fc        0xe build/LAN9253_D51_SPI_direct_mode/production/_ext/1984496892/plib_clock.o

.text.DMAC_0_Handler%357
                0x0001070a        0xe
 .text.DMAC_0_Handler
                0x0001070a        0xe build/LAN9253_D51_SPI_direct_mode/production/_ext/1865161661/plib_dmac.o
                0x0001070a                DMAC_0_Handler

.text.DMAC_1_Handler%358
                0x00010718        0xe
 .text.DMAC_1_Handler
                0x00010718        0xe build/LAN9253_D51_SPI_direct_mode/production/_ext/1865161661/plib_dmac.o
                0x00010718                DMAC_1_Handler

.text.EVSYS_Initialize%359
                0x00010726        0xe
 .text.EVSYS_Initialize
                0x00010726        0xe build/LAN9253_D51_SPI_direct_mode/production/_ext/1986646378/plib_evsys.o
                0x00010726                EVSYS_Initialize

.text.BL_Stop%360
                0x00010734        0xe
 .text.BL_Stop  0x00010734        0xe build/LAN9253_D51_SPI_direct_mode/production/_ext/108134065/bootmode.o
                0x00010734                BL_Stop

.text.APPL_StopMailboxHandler%361
                0x00010742        0xe
 .text.APPL_StopMailboxHandler
                0x00010742        0xe build/LAN9253_D51_SPI_direct_mode/production/_ext/108134065/sample_app.o
                0x00010742                APPL_StopMailboxHandler

.text.SYS_Tasks%362
                0x00010750        0xc
 .text.SYS_Tasks
                0x00010750        0xc build/LAN9253_D51_SPI_direct_mode/production/_ext/1171490990/tasks.o
                0x00010750                SYS_Tasks

.text.PDI_Timer_Interrupt%363
                0x0001075c        0xc
 .text.PDI_Timer_Interrupt
                0x0001075c        0xc build/LAN9253_D51_SPI_direct_mode/production/_ext/1671622979/Drivers.o
                0x0001075c                PDI_Timer_Interrupt

.text.ESC_Init%364
                0x00010768        0xc
 .text.ESC_Init
                0x00010768        0xc build/LAN9253_D51_SPI_direct_mode/production/_ext/108147519/ESC_Utils.o
                0x00010768                ESC_Init

.rodata.asEntryDesc0x1C12%365
                0x00010774        0xc
 .rodata.asEntryDesc0x1C12
                0x00010774        0xc build/LAN9253_D51_SPI_direct_mode/production/_ext/108134065/coeappl.o
                0x00010774                asEntryDesc0x1C12

.rodata.asEntryDesc0x1C13%366
                0x00010780        0xc
 .rodata.asEntryDesc0x1C13
                0x00010780        0xc build/LAN9253_D51_SPI_direct_mode/production/_ext/108134065/coeappl.o
                0x00010780                asEntryDesc0x1C13

.rodata.aName0x1000%367
                0x0001078c        0xc
 .rodata.aName0x1000
                0x0001078c        0xc build/LAN9253_D51_SPI_direct_mode/production/_ext/108134065/coeappl.o
                0x0001078c                aName0x1000

.rodata.aName0x1008%368
                0x00010798        0xc
 .rodata.aName0x1008
                0x00010798        0xc build/LAN9253_D51_SPI_direct_mode/production/_ext/108134065/coeappl.o
                0x00010798                aName0x1008

.rodata.asEntryDesc0x1C00%369
                0x000107a4        0xc
 .rodata.asEntryDesc0x1C00
                0x000107a4        0xc build/LAN9253_D51_SPI_direct_mode/production/_ext/108134065/coeappl.o
                0x000107a4                asEntryDesc0x1C00

.rodata.drvSPI0remapClockPolarity%370
                0x000107b0        0x8
 .rodata.drvSPI0remapClockPolarity
                0x000107b0        0x8 build/LAN9253_D51_SPI_direct_mode/production/_ext/1171490990/initialization.o
                0x000107b0                drvSPI0remapClockPolarity

.rodata.drvSPI0remapClockPhase%371
                0x000107b8        0x8
 .rodata.drvSPI0remapClockPhase
                0x000107b8        0x8 build/LAN9253_D51_SPI_direct_mode/production/_ext/1171490990/initialization.o
                0x000107b8                drvSPI0remapClockPhase

.rodata.sEntryDesc0x1000%372
                0x000107c0        0x8
 .rodata.sEntryDesc0x1000
                0x000107c0        0x8 build/LAN9253_D51_SPI_direct_mode/production/_ext/108134065/coeappl.o
                0x000107c0                sEntryDesc0x1000

.rodata.sEntryDesc0x1001%373
                0x000107c8        0x8
 .rodata.sEntryDesc0x1001
                0x000107c8        0x8 build/LAN9253_D51_SPI_direct_mode/production/_ext/108134065/coeappl.o
                0x000107c8                sEntryDesc0x1001

.rodata.sEntryDesc0x1008%374
                0x000107d0        0x8
 .rodata.sEntryDesc0x1008
                0x000107d0        0x8 build/LAN9253_D51_SPI_direct_mode/production/_ext/108134065/coeappl.o
                0x000107d0                sEntryDesc0x1008

.rodata.sEntryDesc0x1009%375
                0x000107d8        0x8
 .rodata.sEntryDesc0x1009
                0x000107d8        0x8 build/LAN9253_D51_SPI_direct_mode/production/_ext/108134065/coeappl.o
                0x000107d8                sEntryDesc0x1009

.rodata.sEntryDesc0x100A%376
                0x000107e0        0x8
 .rodata.sEntryDesc0x100A
                0x000107e0        0x8 build/LAN9253_D51_SPI_direct_mode/production/_ext/108134065/coeappl.o
                0x000107e0                sEntryDesc0x100A

.rodata.sEntryDesc0x10F8%377
                0x000107e8        0x8
 .rodata.sEntryDesc0x10F8
                0x000107e8        0x8 build/LAN9253_D51_SPI_direct_mode/production/_ext/108134065/coeappl.o
                0x000107e8                sEntryDesc0x10F8

.rodata.acEmcyCoeHeader%378
                0x000107f0        0x8
 .rodata.acEmcyCoeHeader
                0x000107f0        0x8 build/LAN9253_D51_SPI_direct_mode/production/_ext/108134065/emcy.o
                0x000107f0                acEmcyCoeHeader

.text.NonMaskableInt_Handler%379
                0x000107f8        0x6
 .text.NonMaskableInt_Handler
                0x000107f8        0x6 build/LAN9253_D51_SPI_direct_mode/production/_ext/1171490990/exceptions.o
                0x000107f8                NonMaskableInt_Handler

.text.HardFault_Handler%380
                0x000107fe        0x6
 .text.HardFault_Handler
                0x000107fe        0x6 build/LAN9253_D51_SPI_direct_mode/production/_ext/1171490990/exceptions.o
                0x000107fe                HardFault_Handler

.text.DebugMonitor_Handler%381
                0x00010804        0x6
 .text.DebugMonitor_Handler
                0x00010804        0x6 build/LAN9253_D51_SPI_direct_mode/production/_ext/1171490990/exceptions.o
                0x00010804                DebugMonitor_Handler

.text.MemoryManagement_Handler%382
                0x0001080a        0x6
 .text.MemoryManagement_Handler
                0x0001080a        0x6 build/LAN9253_D51_SPI_direct_mode/production/_ext/1171490990/exceptions.o
                0x0001080a                MemoryManagement_Handler

.text.BusFault_Handler%383
                0x00010810        0x6
 .text.BusFault_Handler
                0x00010810        0x6 build/LAN9253_D51_SPI_direct_mode/production/_ext/1171490990/exceptions.o
                0x00010810                BusFault_Handler

.text.UsageFault_Handler%384
                0x00010816        0x6
 .text.UsageFault_Handler
                0x00010816        0x6 build/LAN9253_D51_SPI_direct_mode/production/_ext/1171490990/exceptions.o
                0x00010816                UsageFault_Handler

.rodata%385     0x0001081c        0x4
 .rodata        0x0001081c        0x4 build/LAN9253_D51_SPI_direct_mode/production/_ext/108134065/sample_app.o

.text.Dummy_Handler%386
                0x0000acd6        0x2
 .text.Dummy_Handler
                0x0000acd6        0x2 build/LAN9253_D51_SPI_direct_mode/production/_ext/1171490990/interrupts.o
                0x0000acd6                EIC_EXTINT_9_Handler
                0x0000acd6                TCC0_MC5_Handler
                0x0000acd6                SVCall_Handler
                0x0000acd6                SERCOM0_2_Handler
                0x0000acd6                USB_SOF_HSOF_Handler
                0x0000acd6                TCC4_OTHER_Handler
                0x0000acd6                TCC2_MC2_Handler
                0x0000acd6                EVSYS_0_Handler
                0x0000acd6                TRNG_Handler
                0x0000acd6                TC2_Handler
                0x0000acd6                USB_TRCPT0_Handler
                0x0000acd6                DAC_OTHER_Handler
                0x0000acd6                AC_Handler
                0x0000acd6                DAC_EMPTY_0_Handler
                0x0000acd6                DMAC_OTHER_Handler
                0x0000acd6                EIC_EXTINT_5_Handler
                0x0000acd6                SERCOM3_1_Handler
                0x0000acd6                SERCOM4_OTHER_Handler
                0x0000acd6                SERCOM3_2_Handler
                0x0000acd6                EIC_EXTINT_6_Handler
                0x0000acd6                PendSV_Handler
                0x0000acd6                TCC4_MC0_Handler
                0x0000acd6                EVSYS_3_Handler
                0x0000acd6                TCC2_MC0_Handler
                0x0000acd6                PDEC_OTHER_Handler
                0x0000acd6                TCC3_MC0_Handler
                0x0000acd6                PDEC_MC1_Handler
                0x0000acd6                TCC2_MC1_Handler
                0x0000acd6                OSCCTRL_XOSC1_Handler
                0x0000acd6                PDEC_MC0_Handler
                0x0000acd6                EIC_EXTINT_4_Handler
                0x0000acd6                SERCOM0_OTHER_Handler
                0x0000acd6                EVSYS_OTHER_Handler
                0x0000acd6                SERCOM0_0_Handler
                0x0000acd6                RTC_Handler
                0x0000acd6                SERCOM4_0_Handler
                0x0000acd6                TCC1_MC0_Handler
                0x0000acd6                SERCOM1_OTHER_Handler
                0x0000acd6                TCC2_OTHER_Handler
                0x0000acd6                EIC_EXTINT_11_Handler
                0x0000acd6                SUPC_BODDET_Handler
                0x0000acd6                EIC_EXTINT_14_Handler
                0x0000acd6                OSC32KCTRL_Handler
                0x0000acd6                EVSYS_1_Handler
                0x0000acd6                TCC4_MC1_Handler
                0x0000acd6                SUPC_OTHER_Handler
                0x0000acd6                WDT_Handler
                0x0000acd6                EIC_EXTINT_15_Handler
                0x0000acd6                TCC3_MC1_Handler
                0x0000acd6                SERCOM5_0_Handler
                0x0000acd6                TC4_Handler
                0x0000acd6                TC1_Handler
                0x0000acd6                TCC1_MC1_Handler
                0x0000acd6                TCC1_OTHER_Handler
                0x0000acd6                PAC_Handler
                0x0000acd6                SERCOM4_1_Handler
                0x0000acd6                TC3_Handler
                0x0000acd6                Dummy_Handler
                0x0000acd6                DAC_RESRDY_0_Handler
                0x0000acd6                SERCOM5_1_Handler
                0x0000acd6                DMAC_2_Handler
                0x0000acd6                TCC0_MC4_Handler
                0x0000acd6                USB_TRCPT1_Handler
                0x0000acd6                SERCOM0_1_Handler
                0x0000acd6                TCC0_MC3_Handler
                0x0000acd6                EIC_EXTINT_12_Handler
                0x0000acd6                OSCCTRL_DPLL0_Handler
                0x0000acd6                SERCOM5_OTHER_Handler
                0x0000acd6                PM_Handler
                0x0000acd6                OSCCTRL_DFLL_Handler
                0x0000acd6                DAC_RESRDY_1_Handler
                0x0000acd6                USB_OTHER_Handler
                0x0000acd6                TCC0_OTHER_Handler
                0x0000acd6                EIC_EXTINT_10_Handler
                0x0000acd6                TCC1_MC3_Handler
                0x0000acd6                OSCCTRL_XOSC0_Handler
                0x0000acd6                TCC0_MC0_Handler
                0x0000acd6                EIC_EXTINT_2_Handler
                0x0000acd6                SDHC0_Handler
                0x0000acd6                SERCOM1_1_Handler
                0x0000acd6                I2S_Handler
                0x0000acd6                PCC_Handler
                0x0000acd6                TCC3_OTHER_Handler
                0x0000acd6                EIC_EXTINT_13_Handler
                0x0000acd6                SERCOM1_0_Handler
                0x0000acd6                PUKCC_Handler
                0x0000acd6                SERCOM2_1_Handler
                0x0000acd6                SERCOM1_2_Handler
                0x0000acd6                SERCOM3_0_Handler
                0x0000acd6                SERCOM4_2_Handler
                0x0000acd6                TCC1_MC2_Handler
                0x0000acd6                ADC1_RESRDY_Handler
                0x0000acd6                NVMCTRL_1_Handler
                0x0000acd6                SERCOM5_2_Handler
                0x0000acd6                SERCOM2_2_Handler
                0x0000acd6                DAC_EMPTY_1_Handler
                0x0000acd6                ADC1_OTHER_Handler
                0x0000acd6                OSCCTRL_DPLL1_Handler
                0x0000acd6                EIC_EXTINT_3_Handler
                0x0000acd6                SERCOM3_OTHER_Handler
                0x0000acd6                EIC_EXTINT_8_Handler
                0x0000acd6                NVMCTRL_0_Handler
                0x0000acd6                ADC0_RESRDY_Handler
                0x0000acd6                ADC0_OTHER_Handler
                0x0000acd6                MCLK_Handler
                0x0000acd6                EVSYS_2_Handler
                0x0000acd6                SERCOM2_OTHER_Handler
                0x0000acd6                FREQM_Handler
                0x0000acd6                TC0_Handler
                0x0000acd6                TCC0_MC1_Handler
                0x0000acd6                DMAC_3_Handler
                0x0000acd6                RAMECC_Handler
                0x0000acd6                TC5_Handler
                0x0000acd6                SERCOM2_0_Handler
                0x0000acd6                AES_Handler
                0x0000acd6                ICM_Handler
                0x0000acd6                TCC0_MC2_Handler

.text.__malloc_lock%387
                0x0000b5ea        0x2
 .text.__malloc_lock
                0x0000b5ea        0x2 c:/program files (x86)/microchip/xc32/v2.30/bin/bin/../../lib/gcc/pic32c/6.2.1/../../../../pic32c/lib/v7e-m/fpv4-sp/hard\libc.a(lib_a-mlock.o)
                0x0000b5ea                __malloc_lock

.text.__malloc_unlock%388
                0x0000c6fa        0x2
 .text.__malloc_unlock
                0x0000c6fa        0x2 c:/program files (x86)/microchip/xc32/v2.30/bin/bin/../../lib/gcc/pic32c/6.2.1/../../../../pic32c/lib/v7e-m/fpv4-sp/hard\libc.a(lib_a-mlock.o)
                0x0000c6fa                __malloc_unlock
