Archive member included to satisfy reference by file (symbol)

c:/program files (x86)/microchip/xc32/v2.30/bin/bin/../../lib/gcc/pic32c/6.2.1/../../../../pic32c/lib/v7e-m/fpv4-sp/hard\libpic32c.a(data_init.o)
                              build/LAN9253_D51_SPI_Beckhoff_mode/production/_ext/1171490990/startup_xc32.o (__pic32c_data_initialization)
c:/program files (x86)/microchip/xc32/v2.30/bin/bin/../../lib/gcc/pic32c/6.2.1/../../../../pic32c/lib/v7e-m/fpv4-sp/hard\libc.a(lib_a-init.o)
                              build/LAN9253_D51_SPI_Beckhoff_mode/production/_ext/1171490990/startup_xc32.o (__libc_init_array)
c:/program files (x86)/microchip/xc32/v2.30/bin/bin/../../lib/gcc/pic32c/6.2.1/../../../../pic32c/lib/v7e-m/fpv4-sp/hard\libc.a(lib_a-malloc.o)
                              build/LAN9253_D51_SPI_Beckhoff_mode/production/_ext/108134065/ecatcoe.o (malloc)
c:/program files (x86)/microchip/xc32/v2.30/bin/bin/../../lib/gcc/pic32c/6.2.1/../../../../pic32c/lib/v7e-m/fpv4-sp/hard\libc.a(lib_a-mallocr.o)
                              c:/program files (x86)/microchip/xc32/v2.30/bin/bin/../../lib/gcc/pic32c/6.2.1/../../../../pic32c/lib/v7e-m/fpv4-sp/hard\libc.a(lib_a-malloc.o) (_malloc_r)
c:/program files (x86)/microchip/xc32/v2.30/bin/bin/../../lib/gcc/pic32c/6.2.1/../../../../pic32c/lib/v7e-m/fpv4-sp/hard\libc.a(lib_a-memcpy-stub.o)
                              build/LAN9253_D51_SPI_Beckhoff_mode/production/_ext/1593096446/plib_nvmctrl.o (memcpy)
c:/program files (x86)/microchip/xc32/v2.30/bin/bin/../../lib/gcc/pic32c/6.2.1/../../../../pic32c/lib/v7e-m/fpv4-sp/hard\libc.a(lib_a-memset.o)
                              build/LAN9253_D51_SPI_Beckhoff_mode/production/_ext/1671622979/Drivers.o (memset)
c:/program files (x86)/microchip/xc32/v2.30/bin/bin/../../lib/gcc/pic32c/6.2.1/../../../../pic32c/lib/v7e-m/fpv4-sp/hard\libc.a(lib_a-mlock.o)
                              c:/program files (x86)/microchip/xc32/v2.30/bin/bin/../../lib/gcc/pic32c/6.2.1/../../../../pic32c/lib/v7e-m/fpv4-sp/hard\libc.a(lib_a-mallocr.o) (__malloc_lock)
c:/program files (x86)/microchip/xc32/v2.30/bin/bin/../../lib/gcc/pic32c/6.2.1/../../../../pic32c/lib/v7e-m/fpv4-sp/hard\libc.a(lib_a-sbrkr.o)
                              c:/program files (x86)/microchip/xc32/v2.30/bin/bin/../../lib/gcc/pic32c/6.2.1/../../../../pic32c/lib/v7e-m/fpv4-sp/hard\libc.a(lib_a-mallocr.o) (_sbrk_r)
c:/program files (x86)/microchip/xc32/v2.30/bin/bin/../../lib/gcc/pic32c/6.2.1/../../../../pic32c/lib/v7e-m/fpv4-sp/hard\libc.a(lib_a-strlen.o)
                              build/LAN9253_D51_SPI_Beckhoff_mode/production/_ext/108134065/objdef.o (strlen)
c:/program files (x86)/microchip/xc32/v2.30/bin/bin/../../lib/gcc/pic32c/6.2.1/../../../../pic32c/lib/v7e-m/fpv4-sp/hard\libc.a(lib_a-freer.o)
                              c:/program files (x86)/microchip/xc32/v2.30/bin/bin/../../lib/gcc/pic32c/6.2.1/../../../../pic32c/lib/v7e-m/fpv4-sp/hard\libc.a(lib_a-malloc.o) (_free_r)
c:/program files (x86)/microchip/xc32/v2.30/bin/bin/../../lib/gcc/pic32c/6.2.1/../../../../pic32c/lib/v7e-m/fpv4-sp/hard\libc.a(lib_a-impure.o)
                              c:/program files (x86)/microchip/xc32/v2.30/bin/bin/../../lib/gcc/pic32c/6.2.1/../../../../pic32c/lib/v7e-m/fpv4-sp/hard\libc.a(lib_a-malloc.o) (_impure_ptr)
c:/program files (x86)/microchip/xc32/v2.30/bin/bin/../../lib/gcc/pic32c/6.2.1/../../../../pic32c/lib/v7e-m/fpv4-sp/hard\libc.a(lib_a-reent.o)
                              c:/program files (x86)/microchip/xc32/v2.30/bin/bin/../../lib/gcc/pic32c/6.2.1/../../../../pic32c/lib/v7e-m/fpv4-sp/hard\libc.a(lib_a-sbrkr.o) (errno)
c:/program files (x86)/microchip/xc32/v2.30/bin/bin/../../lib/gcc/pic32c/6.2.1/../../../../pic32c/lib/v7e-m/fpv4-sp/hard\libpic32c.a(sbrk.o)
                              c:/program files (x86)/microchip/xc32/v2.30/bin/bin/../../lib/gcc/pic32c/6.2.1/../../../../pic32c/lib/v7e-m/fpv4-sp/hard\libc.a(lib_a-sbrkr.o) (_sbrk)

Allocating common symbols
Common symbol       size              file

b3BufferMode        0x1               build/LAN9253_D51_SPI_Beckhoff_mode/production/_ext/108134065/ecatslv.o
nEcatStateTrans     0x2               build/LAN9253_D51_SPI_Beckhoff_mode/production/_ext/108134065/ecatslv.o
EcatWdCounter       0x2               build/LAN9253_D51_SPI_Beckhoff_mode/production/_ext/108134065/ecatslv.o
sSendEmcyQueue      0x10              build/LAN9253_D51_SPI_Beckhoff_mode/production/_ext/108134065/emcy.o
bApplEsmPending     0x1               build/LAN9253_D51_SPI_Beckhoff_mode/production/_ext/108134065/ecatslv.o
pCoeSendStored      0x4               build/LAN9253_D51_SPI_Beckhoff_mode/production/_ext/108134065/ecatcoe.o
nSdoInfoIndex       0x2               build/LAN9253_D51_SPI_Beckhoff_mode/production/_ext/108134065/sdoserv.o
pStoreData          0x4               build/LAN9253_D51_SPI_Beckhoff_mode/production/_ext/108134065/sdoserv.o
u8MbxReadCounter    0x1               build/LAN9253_D51_SPI_Beckhoff_mode/production/_ext/108134065/mailbox.o
nAlStatus           0x1               build/LAN9253_D51_SPI_Beckhoff_mode/production/_ext/108134065/ecatslv.o
nPdOutputSize       0x2               build/LAN9253_D51_SPI_Beckhoff_mode/production/_ext/108134065/ecatslv.o
u32FileOffset       0x4               build/LAN9253_D51_SPI_Beckhoff_mode/production/_ext/108134065/ecatfoe.o
u16LocalErrorCode   0x2               build/LAN9253_D51_SPI_Beckhoff_mode/production/_ext/108134065/ecatslv.o
nSdoSegBytesToHandle
                    0x4               build/LAN9253_D51_SPI_Beckhoff_mode/production/_ext/108134065/sdoserv.o
errno               0x4               c:/program files (x86)/microchip/xc32/v2.30/bin/bin/../../lib/gcc/pic32c/6.2.1/../../../../pic32c/lib/v7e-m/fpv4-sp/hard\libc.a(lib_a-reent.o)
sMbxSendQueue       0x34              build/LAN9253_D51_SPI_Beckhoff_mode/production/_ext/108134065/mailbox.o
gEscALEvent         0x2               build/LAN9253_D51_SPI_Beckhoff_mode/production/_ext/108147519/LAN925x.o
sMbxReceiveQueue    0x34              build/LAN9253_D51_SPI_Beckhoff_mode/production/_ext/108134065/mailbox.o
bNoMbxMemoryAvailable
                    0x1               build/LAN9253_D51_SPI_Beckhoff_mode/production/_ext/108134065/mailbox.o
u16FileAccessState  0x2               build/LAN9253_D51_SPI_Beckhoff_mode/production/_ext/108134065/ecatfoe.o
Sync0WdCounter      0x2               build/LAN9253_D51_SPI_Beckhoff_mode/production/_ext/108134065/ecatslv.o
u32PacketNo         0x4               build/LAN9253_D51_SPI_Beckhoff_mode/production/_ext/108134065/ecatfoe.o
bMinCycleTimeMeasurementStarted
                    0x1               build/LAN9253_D51_SPI_Beckhoff_mode/production/_ext/108134065/ecatappl.o
bLocalErrorFlag     0x1               build/LAN9253_D51_SPI_Beckhoff_mode/production/_ext/108134065/ecatslv.o
bSendMbxIsFull      0x1               build/LAN9253_D51_SPI_Beckhoff_mode/production/_ext/108134065/mailbox.o
u32CycleTimeStartValue
                    0x4               build/LAN9253_D51_SPI_Beckhoff_mode/production/_ext/108134065/ecatappl.o
LatchInputSync0Counter
                    0x2               build/LAN9253_D51_SPI_Beckhoff_mode/production/_ext/108134065/ecatslv.o
i16WaitForPllRunningCnt
                    0x2               build/LAN9253_D51_SPI_Beckhoff_mode/production/_ext/108134065/ecatslv.o
nEscAddrOutputData  0x2               build/LAN9253_D51_SPI_Beckhoff_mode/production/_ext/108134065/ecatslv.o
bMbxRunning         0x1               build/LAN9253_D51_SPI_Beckhoff_mode/production/_ext/108134065/mailbox.o
aFileData           0x2000            build/LAN9253_D51_SPI_Beckhoff_mode/production/_ext/108134065/sample_app.o
Sync0WdValue        0x2               build/LAN9253_D51_SPI_Beckhoff_mode/production/_ext/108134065/ecatslv.o
u8EcatRunLed        0x1               build/LAN9253_D51_SPI_Beckhoff_mode/production/_ext/108134065/ecatslv.o
i16WaitForPllRunningTimeout
                    0x2               build/LAN9253_D51_SPI_Beckhoff_mode/production/_ext/108134065/ecatslv.o
bSdoSegAccess       0x1               build/LAN9253_D51_SPI_Beckhoff_mode/production/_ext/108134065/sdoserv.o
Sync1WdValue        0x2               build/LAN9253_D51_SPI_Beckhoff_mode/production/_ext/108134065/ecatslv.o
bSdoSegFollows      0x1               build/LAN9253_D51_SPI_Beckhoff_mode/production/_ext/108134065/sdoserv.o
nSdoSegCompleteSize
                    0x4               build/LAN9253_D51_SPI_Beckhoff_mode/production/_ext/108134065/sdoserv.o
u16ALEventMask      0x2               build/LAN9253_D51_SPI_Beckhoff_mode/production/_ext/108134065/ecatslv.o
pSdoPendFunc        0x4               build/LAN9253_D51_SPI_Beckhoff_mode/production/_ext/108134065/sdoserv.o
bDcRunning          0x1               build/LAN9253_D51_SPI_Beckhoff_mode/production/_ext/108134065/ecatslv.o
u32dummy            0x4               build/LAN9253_D51_SPI_Beckhoff_mode/production/_ext/108134065/ecatslv.o
bRunApplication     0x1               build/LAN9253_D51_SPI_Beckhoff_mode/production/_ext/108134065/ecatappl.o
u16EscAddrReceiveMbx
                    0x2               build/LAN9253_D51_SPI_Beckhoff_mode/production/_ext/108134065/mailbox.o
psStoreMbx          0x4               build/LAN9253_D51_SPI_Beckhoff_mode/production/_ext/108134065/mailbox.o
SyncManInfo         0x8               build/LAN9253_D51_SPI_Beckhoff_mode/production/_ext/108134065/ecatslv.o
b32BitDc            0x1               build/LAN9253_D51_SPI_Beckhoff_mode/production/_ext/108134065/ecatslv.o
u32SystemTimeReadFailure
                    0x4               build/LAN9253_D51_SPI_Beckhoff_mode/production/_ext/108134065/ecatappl.o
u8PendingSdo        0x1               build/LAN9253_D51_SPI_Beckhoff_mode/production/_ext/108134065/sdoserv.o
appData             0x1               build/LAN9253_D51_SPI_Beckhoff_mode/production/_ext/1360937237/app.o
LatchInputSync0Value
                    0x2               build/LAN9253_D51_SPI_Beckhoff_mode/production/_ext/108134065/ecatslv.o
u16SendMbxSize      0x2               build/LAN9253_D51_SPI_Beckhoff_mode/production/_ext/108134065/mailbox.o
bEcatWaitForAlControlRes
                    0x1               build/LAN9253_D51_SPI_Beckhoff_mode/production/_ext/108134065/ecatslv.o
psReadMbx           0x4               build/LAN9253_D51_SPI_Beckhoff_mode/production/_ext/108134065/mailbox.o
bEcatWaitForInputUpdate
                    0x1               build/LAN9253_D51_SPI_Beckhoff_mode/production/_ext/108134065/ecatappl.o
sSyncManInPar       0x44              build/LAN9253_D51_SPI_Beckhoff_mode/production/_ext/108134065/objdef.o
nPdInputSize        0x2               build/LAN9253_D51_SPI_Beckhoff_mode/production/_ext/108134065/ecatslv.o
u32MinCycleTimeValue
                    0x4               build/LAN9253_D51_SPI_Beckhoff_mode/production/_ext/108134065/ecatappl.o
gau8DmaBuff         0x800             build/LAN9253_D51_SPI_Beckhoff_mode/production/_ext/1671622979/Drivers.o
u16SmSync0Value     0x2               build/LAN9253_D51_SPI_Beckhoff_mode/production/_ext/108134065/ecatslv.o
bStoreCompleteAccess
                    0x1               build/LAN9253_D51_SPI_Beckhoff_mode/production/_ext/108134065/sdoserv.o
aPdOutputData       0x44              build/LAN9253_D51_SPI_Beckhoff_mode/production/_ext/108134065/ecatappl.o
bSdoSegLastToggle   0x1               build/LAN9253_D51_SPI_Beckhoff_mode/production/_ext/108134065/sdoserv.o
handle              0x4               build/LAN9253_D51_SPI_Beckhoff_mode/production/_ext/1171490990/initialization.o
eicCallbackObject   0xc0              build/LAN9253_D51_SPI_Beckhoff_mode/production/_ext/60167341/plib_eic.o
nSdoSegService      0x1               build/LAN9253_D51_SPI_Beckhoff_mode/production/_ext/108134065/sdoserv.o
bReceiveMbxIsLocked
                    0x1               build/LAN9253_D51_SPI_Beckhoff_mode/production/_ext/108134065/mailbox.o
pAPPL_FoeError      0x4               build/LAN9253_D51_SPI_Beckhoff_mode/production/_ext/108134065/ecatappl.o
u16EscAddrSendMbx   0x2               build/LAN9253_D51_SPI_Beckhoff_mode/production/_ext/108134065/mailbox.o
sysObj              0x4               build/LAN9253_D51_SPI_Beckhoff_mode/production/_ext/1171490990/initialization.o
nMaxEscAddress      0x2               build/LAN9253_D51_SPI_Beckhoff_mode/production/_ext/108134065/ecatslv.o
bEcatFirstOutputsReceived
                    0x1               build/LAN9253_D51_SPI_Beckhoff_mode/production/_ext/108134065/ecatslv.o
qspiObj             0x28              build/LAN9253_D51_SPI_Beckhoff_mode/production/_ext/1865555181/plib_qspi_spi.o
psWriteMbx          0x4               build/LAN9253_D51_SPI_Beckhoff_mode/production/_ext/108134065/mailbox.o
u8MbxWriteCounter   0x1               build/LAN9253_D51_SPI_Beckhoff_mode/production/_ext/108134065/mailbox.o
u32LastDc32Value    0x4               build/LAN9253_D51_SPI_Beckhoff_mode/production/_ext/108134065/coeappl.o
u32CheckForDcOverrunCnt
                    0x4               build/LAN9253_D51_SPI_Beckhoff_mode/production/_ext/108134065/coeappl.o
u8MailboxSendReqStored
                    0x1               build/LAN9253_D51_SPI_Beckhoff_mode/production/_ext/108134065/mailbox.o
pSdoInfoObjEntry    0x4               build/LAN9253_D51_SPI_Beckhoff_mode/production/_ext/108134065/sdoserv.o
bSmSyncSequenceValid
                    0x1               build/LAN9253_D51_SPI_Beckhoff_mode/production/_ext/108134065/ecatslv.o
nSdoInfoFragmentsLeft
                    0x2               build/LAN9253_D51_SPI_Beckhoff_mode/production/_ext/108134065/sdoserv.o
EsmTimeoutCounter   0x2               build/LAN9253_D51_SPI_Beckhoff_mode/production/_ext/108134065/ecatslv.o
pAPPL_FoeReadData   0x4               build/LAN9253_D51_SPI_Beckhoff_mode/production/_ext/108134065/ecatappl.o
u16ReceiveMbxSize   0x2               build/LAN9253_D51_SPI_Beckhoff_mode/production/_ext/108134065/mailbox.o
pSdoResStored       0x4               build/LAN9253_D51_SPI_Beckhoff_mode/production/_ext/108134065/sdoserv.o
asEmcy              0x8               build/LAN9253_D51_SPI_Beckhoff_mode/production/_ext/108134065/emcy.o
bBootMode           0x1               build/LAN9253_D51_SPI_Beckhoff_mode/production/_ext/108134065/ecatslv.o
u32StoreDataSize    0x4               build/LAN9253_D51_SPI_Beckhoff_mode/production/_ext/108134065/sdoserv.o
transferTxHandle    0x4               build/LAN9253_D51_SPI_Beckhoff_mode/production/_ext/2070931557/drv_spi.o
pSdoSegData         0x4               build/LAN9253_D51_SPI_Beckhoff_mode/production/_ext/108134065/sdoserv.o
bDcSyncActive       0x1               build/LAN9253_D51_SPI_Beckhoff_mode/production/_ext/108134065/ecatslv.o
bEcatOutputUpdateRunning
                    0x1               build/LAN9253_D51_SPI_Beckhoff_mode/production/_ext/108134065/ecatslv.o
pAPPL_MainLoop      0x4               build/LAN9253_D51_SPI_Beckhoff_mode/production/_ext/108134065/ecatappl.o
sSyncManOutPar      0x44              build/LAN9253_D51_SPI_Beckhoff_mode/production/_ext/108134065/objdef.o
sEmptyEmcyQueue     0x10              build/LAN9253_D51_SPI_Beckhoff_mode/production/_ext/108134065/emcy.o
transferRxHandle    0x4               build/LAN9253_D51_SPI_Beckhoff_mode/production/_ext/2070931557/drv_spi.o
Sync1WdCounter      0x2               build/LAN9253_D51_SPI_Beckhoff_mode/production/_ext/108134065/ecatslv.o
setup               0x14              build/LAN9253_D51_SPI_Beckhoff_mode/production/_ext/2070931557/drv_spi.o
EcatWdValue         0x2               build/LAN9253_D51_SPI_Beckhoff_mode/production/_ext/108134065/ecatslv.o
bEtherCATErrorLed   0x1               build/LAN9253_D51_SPI_Beckhoff_mode/production/_ext/108134065/ecatappl.o
u32MinCycleTimeStartValue
                    0x4               build/LAN9253_D51_SPI_Beckhoff_mode/production/_ext/108134065/ecatappl.o
bSyncSetByUser      0x1               build/LAN9253_D51_SPI_Beckhoff_mode/production/_ext/108134065/objdef.o
bMbxRepeatToggle    0x1               build/LAN9253_D51_SPI_Beckhoff_mode/production/_ext/108134065/mailbox.o
bEcatInputUpdateRunning
                    0x1               build/LAN9253_D51_SPI_Beckhoff_mode/production/_ext/108134065/ecatslv.o
bEscIntEnabled      0x1               build/LAN9253_D51_SPI_Beckhoff_mode/production/_ext/108134065/ecatslv.o
psRepeatMbx         0x4               build/LAN9253_D51_SPI_Beckhoff_mode/production/_ext/108134065/mailbox.o
nSdoSegIndex        0x2               build/LAN9253_D51_SPI_Beckhoff_mode/production/_ext/108134065/sdoserv.o
aSdoInfoHeader      0x10              build/LAN9253_D51_SPI_Beckhoff_mode/production/_ext/108134065/sdoserv.o
pSdoSegObjEntry     0x4               build/LAN9253_D51_SPI_Beckhoff_mode/production/_ext/108134065/sdoserv.o
aPdInputData        0x44              build/LAN9253_D51_SPI_Beckhoff_mode/production/_ext/108134065/ecatappl.o
bWdTrigger          0x1               build/LAN9253_D51_SPI_Beckhoff_mode/production/_ext/108134065/ecatslv.o
nSdoSegSubindex     0x1               build/LAN9253_D51_SPI_Beckhoff_mode/production/_ext/108134065/sdoserv.o
u16StoreIndex       0x2               build/LAN9253_D51_SPI_Beckhoff_mode/production/_ext/108134065/sdoserv.o
bEtherCATRunLed     0x1               build/LAN9253_D51_SPI_Beckhoff_mode/production/_ext/108134065/ecatappl.o
pAPPL_FoeWriteData  0x4               build/LAN9253_D51_SPI_Beckhoff_mode/production/_ext/108134065/ecatappl.o
u16SmSync0Counter   0x2               build/LAN9253_D51_SPI_Beckhoff_mode/production/_ext/108134065/ecatslv.o
pFoeSendStored      0x4               build/LAN9253_D51_SPI_Beckhoff_mode/production/_ext/108134065/ecatfoe.o
nMaxSyncMan         0x1               build/LAN9253_D51_SPI_Beckhoff_mode/production/_ext/108134065/ecatslv.o
u8StoreSubindex     0x1               build/LAN9253_D51_SPI_Beckhoff_mode/production/_ext/108134065/sdoserv.o
aFileName           0x16              build/LAN9253_D51_SPI_Beckhoff_mode/production/_ext/108134065/sample_app.o
u32LastFileOffset   0x4               build/LAN9253_D51_SPI_Beckhoff_mode/production/_ext/108134065/ecatfoe.o
pAPPL_FoeRead       0x4               build/LAN9253_D51_SPI_Beckhoff_mode/production/_ext/108134065/ecatappl.o
dmacChannelObj      0x20              build/LAN9253_D51_SPI_Beckhoff_mode/production/_ext/1865161661/plib_dmac.o
sCycleDiag          0x2               build/LAN9253_D51_SPI_Beckhoff_mode/production/_ext/108134065/objdef.o
systick             0xc               build/LAN9253_D51_SPI_Beckhoff_mode/production/_ext/1827571544/plib_systick.o
pAPPL_FoeWrite      0x4               build/LAN9253_D51_SPI_Beckhoff_mode/production/_ext/108134065/ecatappl.o
u16FoeMaxSendBlockSize
                    0x2               build/LAN9253_D51_SPI_Beckhoff_mode/production/_ext/108134065/ecatfoe.o
u8EcatErrorLed      0x1               build/LAN9253_D51_SPI_Beckhoff_mode/production/_ext/108134065/ecatslv.o
nEscAddrInputData   0x2               build/LAN9253_D51_SPI_Beckhoff_mode/production/_ext/108134065/ecatslv.o

Microchip PIC32 Memory-Usage Report

ROM Program-Memory Usage
section                    address  length [bytes]      (dec)  Description
-------                 ----------  -------------------------  -----------
.vectors                         0          0x260         608   
.text                        0x260           0x20          32  App's exec code 
.dinit                       0x280          0xf20        3872   
.text.StartInputHandler     0x11a0          0x7e4        2020   
.text.AL_ControlInd         0x1984          0x790        1936   
.text.OBJ_Write             0x2114          0x710        1808   
.text.OBJ_Read              0x2824          0x67c        1660   
.text.SDOS_SdoInd           0x2ea0          0x5e4        1508   
.text.FOE_ServiceInd        0x3484          0x488        1160   
.text._malloc_r             0x390c          0x438        1080   
.text.SDOS_SdoInfoInd       0x3d44          0x434        1076   
.text.SdoDownloadSegmen     0x4178          0x3b4         948   
.text.CheckSmSettings       0x452c          0x3a0         928   
.text.AL_ControlRes         0x48cc          0x2bc         700   
.text.SdoUploadSegmentI     0x4b88          0x260         608   
.text._DRV_SPI_StartDMA     0x4de8          0x20c         524   
.text.SendSmFailedEmerg     0x4ff4          0x1e0         480   
.text.SdoRes                0x51d4          0x1bc         444   
.text.CheckSyncTypeValu     0x5390          0x1b4         436   
.text.ECAT_Main             0x5544          0x1a8         424   
.text.QSPI_Handler          0x56ec          0x1a0         416   
.text.DRV_SPI_Initializ     0x588c          0x19c         412   
.text.DRV_SPI_Open          0x5a28          0x19c         412   
.text._DRV_SPI_RX_DMA_C     0x5bc4          0x190         400   
.text.DRV_SPI_WriteRead     0x5d54          0x17c         380   
.text.QSPI_WriteRead        0x5ed0          0x17c         380   
.text.OBJ_GetEntryOffse     0x604c          0x178         376   
.text._free_r               0x61c4          0x178         376   
.text.APPL_GenerateMapp     0x633c          0x174         372   
.text.ECAT_Init             0x64b0          0x170         368   
.text.SetALStatus           0x6620          0x164         356   
.text.MBX_CheckAndCopyM     0x6784          0x164         356   
.text.COE_ObjInit           0x68e8          0x160         352   
.text.Sync0_Isr             0x6a48          0x15c         348   
.text.DMAC_ChannelTrans     0x6ba4          0x154         340   
.text.MBX_StopMailboxHa     0x6cf8          0x154         340   
.text.PDI_Isr               0x6e4c          0x14c         332   
.text.FoE_WriteData         0x6f98          0x148         328   
.text._DRV_SPI_PlibCall     0x70e0          0x13c         316   
.text.StopInputHandler      0x721c          0x12c         300   
.text._DRV_SPI_DisableI     0x7348          0x124         292   
.text.MBX_MailboxReadIn     0x746c          0x124         292   
.text.OBJ_GetObjectLeng     0x7590          0x124         292   
.text.SDOS_SdoRes           0x76b4          0x124         292   
.text.DC_CheckWatchdog      0x77d8          0x120         288   
.text.OBJ_GetDesc           0x78f8          0x120         288   
.text._DRV_SPI_EnableIn     0x7a18          0x116         278   
.text.Dummy_Handler         0x7b2e            0x2           2   
.text.MBX_StartMailboxH     0x7b30          0x114         276   
.text.MBX_CopyToSendMai     0x7c44          0x10c         268   
.rodata.aName0x1C32         0x7d50          0x100         256   
.rodata.aName0x1C33         0x7e50          0x100         256   
.text.MainInit              0x7f50          0x100         256   
.text.MBX_Init              0x8050          0x100         256   
.text.OBJ_GetObjectList     0x8150           0xf8         248   
.text.MBX_MailboxWriteI     0x8248           0xf4         244   
.text.MainLoop              0x833c           0xec         236   
.text.COE_AddObjectToDi     0x8428           0xe8         232   
.text.COE_Main              0x8510           0xe8         232   
.text.EIC_Initialize        0x85f8           0xe4         228   
.text.LAN925x_Init          0x86dc           0xe0         224   
.text.MBX_MailboxSendRe     0x87bc           0xdc         220   
.text._DRV_SPI_FreeTran     0x8898           0xd4         212   
.text.HW_EscWrite           0x896c           0xce         206   
.text.__malloc_lock         0x8a3a            0x2           2   
.text.DMAC_Initialize       0x8a3c           0xcc         204   
.text.HW_EscRead            0x8b08           0xcc         204   
.text.SODS_ClearPending     0x8bd4           0xcc         204   
.text.DRV_SPI_TransferS     0x8ca0           0xc8         200   
.rodata.asEntryDesc0x1C     0x8d68           0xc8         200   
.text.BeckhoffSPI_DMA_R     0x8e30           0xc4         196   
.text.FoE_Read              0x8ef4           0xbc         188   
.text.MBX_Main              0x8fb0           0xb8         184   
.text._DRV_SPI_UpdateTr     0x9068           0xb4         180   
.text.PDO_OutputMapping     0x911c           0xb0         176   
.text.ECAT_CheckTimer       0x91cc           0xb0         176   
.text.BeckhoffSPI_DMA_W     0x927c           0xac         172   
.text.EMCY_Init             0x9328           0xa8         168   
.text.EMCY_SendEmergenc     0x93d0           0xa4         164   
.text._DRV_SPI_DriverHa     0x9474           0x9c         156   
.text._DMAC_interruptHa     0x9510           0x9c         156   
.text.COE_SyncTimeStamp     0x95ac           0x9c         156   
.text.QSPI_TransferSetu     0x9648           0x98         152   
.text.OBJ_GetNoOfObject     0x96e0           0x98         152   
.text.PDO_InputMapping      0x9778           0x94         148   
.text.OBJ_CopyNumberToS     0x980c           0x94         148   
.text.FoE_Write             0x98a0           0x94         148   
.text._malloc_trim_r        0x9934           0x94         148   
.text._DRV_SPI_TX_DMA_C     0x99c8           0x90         144   
.text._SPI_initialize       0x9a58           0x88         136   
.text.COE_RemoveDicEntr     0x9ae0           0x80         128   
.text.__pic32c_data_ini     0x9b60           0x80         128   
.text.HandleCycleTimeMe     0x9be0           0x7c         124   
.text.MBX_MailboxRepeat     0x9c5c           0x7c         124   
.text.PORT_Initialize       0x9cd8           0x78         120   
.text.EscWrite              0x9d50           0x78         120   
.rodata.cAbortCode          0x9dc8           0x78         120   
.text.APP_FlashWrite        0x9e40           0x78         120   
.text.EscRead               0x9eb8           0x76         118   
.text.__malloc_unlock       0x9f2e            0x2           2   
.text.COE_ServiceInd        0x9f30           0x74         116   
.text.StartOutputHandle     0x9fa4           0x74         116   
.text.NVIC_Initialize       0xa018           0x72         114   
.text.GetSystemTimeDela     0xa08c           0x70         112   
.text.DRV_SPI_TransferE     0xa0fc           0x6c         108   
.text.FDPLL0_Initialize     0xa168           0x6c         108   
.text.FOE_Data              0xa1d4           0x6c         108   
.text.DMAC_ChannelSetti     0xa240           0x68         104   
.text.NVMCTRL_PageWrite     0xa2a8           0x68         104   
.text.COE_UpdateSyncErr     0xa310           0x68         104   
.text.MailboxServiceInd     0xa378           0x68         104   
.text._APP_MyTransferEv     0xa3e0           0x64         100   
.text.ECAT_CheckWatchdo     0xa444           0x64         100   
.text.BL_FOE_Applicatio     0xa4a8           0x64         100   
.text.APPL_Application      0xa50c           0x64         100   
.text.DRV_SPIReceive        0xa570           0x60          96   
.text.DRV_SPITransfer       0xa5d0           0x60          96   
.text.EIC_CallbackRegis     0xa630           0x5c          92   
.text.Reset_Handler         0xa68c           0x5c          92   
.text.Read0x10F8            0xa6e8           0x5c          92   
.text.COE_ContinueInd       0xa744           0x5c          92   
.text.GetOutOfEmptyEmcy     0xa7a0           0x5c          92   
.text.GetOutOfSendEmcyQ     0xa7fc           0x5c          92   
.text.FoE_ReadData          0xa858           0x5c          92   
.text.APP_Tasks             0xa8b4           0x5c          92   
.text._DRV_SPI_Transfer     0xa910           0x5a          90   
.text.GetOutOfMbxQueue      0xa96a           0x58          88   
.text.OBJ_GetEntryDesc      0xa9c2           0x58          88   
.text.CLOCK_Initialize      0xaa1c           0x54          84   
.text.__NVIC_SetPriorit     0xaa70           0x54          84   
.text.PutInMbxQueue         0xaac4           0x52          82   
.text._SPI_Rx               0xab18           0x50          80   
.text._SPI_Tx               0xab68           0x50          80   
.text.SYS_Initialize        0xabb8           0x50          80   
.text.UpdateEEPROMLoade     0xac08           0x4c          76   
.text.DisableSyncManCha     0xac54           0x4c          76   
.text.CheckIfEcatError      0xaca0           0x4c          76   
.text._DRV_SPI_Resource     0xacec           0x4a          74   
.text.HW_EscReadIsr         0xad36           0x4a          74   
.text.HW_EscWriteIsr        0xad80           0x4a          74   
.text.EnableSyncManChan     0xadca           0x4a          74   
.text.__NVIC_SetPriorit     0xae14           0x48          72   
.text.FOE_Read              0xae5c           0x48          72   
.text.__libc_init_array     0xaea4           0x48          72   
.text.SYS_DMA_Addressin     0xaeec           0x46          70   
.text.ResetALEventMask      0xaf32           0x46          70   
.text.SetALEventMask        0xaf78           0x46          70   
.text._DRV_SPI_RemoveTr     0xafbe           0x44          68   
.text.GCLK0_Initialize      0xb004           0x44          68   
.text.__NVIC_DisableIRQ     0xb048           0x44          68   
.text.SYS_INT_SourceDis     0xb08c           0x44          68   
.text.FPU_Enable            0xb0d0           0x44          68   
.text.COE_ObjDictionary     0xb114           0x44          68   
.text.Sync1_Isr             0xb158           0x44          68   
.text.PutInEmptyEmcyQue     0xb19c           0x44          68   
.text.PutInSendEmcyQueu     0xb1e0           0x44          68   
.text.AddObjectsToObjDi     0xb224           0x42          66   
.text                       0xb268           0x40          64  App's exec code 
.text.SYSTICK_TimerInit     0xb2a8           0x40          64   
.text.__NVIC_GetEnableI     0xb2e8           0x40          64   
.text.ICache_Enable         0xb328           0x40          64   
.rodata.aName0x10F1         0xb368           0x40          64   
.text.COE_ClearObjDicti     0xb3a8           0x40          64   
.text.SYS_DMA_DataWidth     0xb3e8           0x3e          62   
.text.DMAC_ChannelCallb     0xb428           0x3c          60   
.text.__NVIC_EnableIRQ      0xb464           0x78         120   
.rodata.aName0x1018         0xb4dc           0x3c          60   
.text.ECAT_Application      0xb518           0x3c          60   
.text.APP_RunApplicatio     0xb554           0x3c          60   
.text.PORT_PinSet           0xb590           0x38          56   
.text.PORT_PinClear         0xb5c8           0x38          56   
.text.QSPI_IsBusy           0xb600           0x38          56   
.text.PORT_PinSet           0xb638           0x38          56   
.text.PORT_PinClear         0xb670           0x38          56   
.text.PORT_PinOutputEna     0xb6a8           0x38          56   
.text.PORT_PinSet           0xb6e0           0x38          56   
.text.PORT_PinClear         0xb718           0x38          56   
.text.FOE_Write             0xb750           0x38          56   
.text.FOE_Ack               0xb788           0x38          56   
.text.APP_FW_startDownl     0xb7c0           0x38          56   
.text.OBJ_GetObjectHand     0xb7f8           0x36          54   
.text.NVMCTRL_BlockEras     0xb830           0x34          52   
.rodata.drvSPI0InitData     0xb864           0x30          48   
.text.FOE_ContinueInd       0xb894           0x30          48   
.text.GetSyncMan            0xb8c4           0x30          48   
.text._DRV_SPI_MAKE_HAN     0xb8f4           0x2c          44   
.text._DRV_SPI_UPDATE_T     0xb920           0x2c          44   
.text._DRV_SPI_Resource     0xb94c           0x2c          44   
.text.GCLK1_Initialize      0xb978           0x2c          44   
.text.GCLK2_Initialize      0xb9a4           0x2c          44   
.text.DMAC_ChannelSetti     0xb9d0           0x2c          44   
.text.EIC_EXTINT_0_Inte     0xb9fc           0x2c          44   
.text.EIC_EXTINT_1_Inte     0xba28           0x2c          44   
.text.EIC_EXTINT_7_Inte     0xba54           0x2c          44   
.text.SysTick_Handler       0xba80           0x2c          44   
.text.SYS_INT_Disable       0xbaac           0x2c          44   
.rodata.aName0x1601         0xbad8           0x2c          44   
.rodata.aName0x1A00         0xbb04           0x2c          44   
.text.FOE_Init              0xbb30           0x2c          44   
.text._sbrk                 0xbb5c           0x2c          44   
.text.DRV_SPI_WriteTran     0xbb88           0x2a          42   
.text.DRV_SPI_ReadTrans     0xbbb2           0x2a          42   
.text.SYS_INT_Restore       0xbbdc           0x2a          42   
.text.SYS_INT_SourceRes     0xbc06           0x2a          42   
.text.OSCCTRL_Initializ     0xbc30           0x28          40   
.text.NVMCTRL_IsBusy        0xbc58           0x28          40   
.text.QSPI_CallbackRegi     0xbc80           0x28          40   
.text.SYSTICK_TimerCall     0xbca8           0x28          40   
.rodata.drvSPI0remapDat     0xbcd0           0x28          40   
.text.ESC_IRQ_cb            0xbcf8           0x28          40   
.text.APP_FW_StateBOOTt     0xbd20           0x28          40   
.text.CSRLengthAlignmen     0xbd48           0x26          38   
.text.HW_GetALEventRegi     0xbd6e           0x26          38   
.text.SYSTICK_TimerStar     0xbd94           0x24          36   
.text.TCM_Configure         0xbdb8           0x24          36   
.text.PDI_Init_SYNC_Int     0xbddc           0x24          36   
.text.COE_Init              0xbe00           0x24          36   
.text.StopOutputHandler     0xbe24           0x24          36   
.text.EMCY_IsQueueEmpty     0xbe48           0x24          36   
.text.FOE_Error             0xbe6c           0x24          36   
.text.APPL_InputMapping     0xbe90           0x24          36   
.text.APPL_OutputMappin     0xbeb4           0x24          36   
.text.APP_BankSwitch        0xbed8           0x24          36   
.text.EMCY_ContinueInd      0xbefc           0x22          34   
.text._DRV_SPI_Transfer     0xbf1e           0x20          32   
.text.ECAT_SPI_Callback     0xbf40           0x20          32   
.rodata.asEntryDesc0x10     0xbf60           0x20          32   
.text.FOE_Busy              0xbf80           0x20          32   
.rodata.cBitMask            0xbfa0           0x20          32   
.text._sbrk_r               0xbfc0           0x20          32   
.text.ESF_PDI_Init          0xbfe0           0x1e          30   
.text.HW_GetALEventRegi     0xbffe           0x1e          30   
.text.SYS_PORT_PinSet       0xc01c           0x1c          28   
.text.SYS_PORT_PinClear     0xc038           0x1c          28   
.text.NVMCTRL_Initializ     0xc054           0x1c          28   
.text.NVMCTRL_BankSwap      0xc070           0x1c          28   
.text.PORT_GroupSet         0xc08c           0x1c          28   
.text.PORT_GroupClear       0xc0a8           0x1c          28   
.text.PORT_GroupOutputE     0xc0c4           0x1c          28   
.text.CRITICAL_SECTION_     0xc0e0           0x1c          28   
.text.CRITICAL_SECTION_     0xc0fc           0x1c          28   
.text.SPIChipSelectDisa     0xc118           0x1c          28   
.text.SPIChipSelectEnab     0xc134           0x1c          28   
.text.ECAT_SysTick_Hand     0xc150           0x1c          28   
.rodata.aName0x1C12         0xc16c           0x1c          28   
.rodata.aName0x1C13         0xc188           0x1c          28   
.text.OSC32KCTRL_Initia     0xc1a4           0x18          24   
.rodata.drvSPI0Interrup     0xc1bc           0x18          24   
.text.PDI_Init_SYSTick_     0xc1d4           0x18          24   
.text.PDI_IRQ_Interrupt     0xc1ec           0x18          24   
.text.COE_GetObjectDict     0xc204           0x18          24   
.text.BackToInitTransit     0xc21c           0x18          24   
.text.OBJ_GetObjDesc        0xc234           0x18          24   
.text.APP_FW_GetDownloa     0xc24c           0x18          24   
.text.APP_Initialize        0xc264           0x18          24   
.text.BL_Start              0xc27c           0x16          22   
.text.EMCY_GetEmcyBuffe     0xc292           0x16          22   
.text.APPL_AckErrorInd      0xc2a8           0x16          22   
.text.APPL_StartInputHa     0xc2be           0x16          22   
.text.memcpy                0xc2d4           0x16          22   
.text.EtherCAT_QSPI_Cal     0xc2ec           0x14          20   
.text.ESC_Sync0_cb          0xc300           0x14          20   
.text.ESC_Sync1_cb          0xc314           0x14          20   
.rodata.aName0x6000         0xc328           0x14          20   
.rodata.aName0x7010         0xc33c           0x14          20   
.rodata.aName0x1009         0xc350           0x14          20   
.rodata.aName0x100A         0xc364           0x14          20   
.rodata.asEntryDesc0x10     0xc378           0x14          20   
.rodata.aName0x10F8         0xc38c           0x14          20   
.rodata.aName0x1C00         0xc3a0           0x14          20   
.rodata.drvSPI0PlibAPI      0xc3b4           0x10          16   
.rodata.aName0x1001         0xc3c4           0x10          16   
.text.APPL_StartMailbox     0xc3d4           0x10          16   
.text.APPL_StopInputHan     0xc3e4           0x10          16   
.text.APPL_StartOutputH     0xc3f4           0x10          16   
.text.APPL_StopOutputHa     0xc404           0x10          16   
.text.main                  0xc414           0x10          16   
.text.malloc                0xc424           0x10          16   
.text.free                  0xc434           0x10          16   
.text.memset                0xc444           0x10          16   
.text                       0xc454           0x10          16  App's exec code 
.text.DFLL_Initialize       0xc464            0xe          14   
.text.DMAC_0_Handler        0xc472            0xe          14   
.text.DMAC_1_Handler        0xc480            0xe          14   
.text.EVSYS_Initialize      0xc48e            0xe          14   
.text.BL_Stop               0xc49c            0xe          14   
.text.APPL_StopMailboxH     0xc4aa            0xe          14   
.text.SYS_Tasks             0xc4b8            0xc          12   
.text.PDI_Timer_Interru     0xc4c4            0xc          12   
.text.ESC_Init              0xc4d0            0xc          12   
.rodata.asEntryDesc0x16     0xc4dc            0xc          12   
.rodata.asEntryDesc0x1A     0xc4e8            0xc          12   
.rodata.asEntryDesc0x1C     0xc4f4            0xc          12   
.rodata.asEntryDesc0x1C     0xc500            0xc          12   
.rodata.asEntryDesc0x60     0xc50c            0xc          12   
.rodata.asEntryDesc0x70     0xc518            0xc          12   
.rodata.aName0x1000         0xc524            0xc          12   
.rodata.aName0x1008         0xc530            0xc          12   
.rodata.asEntryDesc0x1C     0xc53c            0xc          12   
.rodata.drvSPI0remapClo     0xc548            0x8           8   
.rodata.drvSPI0remapClo     0xc550            0x8           8   
.rodata.sEntryDesc0x100     0xc558            0x8           8   
.rodata.sEntryDesc0x100     0xc560            0x8           8   
.rodata.sEntryDesc0x100     0xc568            0x8           8   
.rodata.sEntryDesc0x100     0xc570            0x8           8   
.rodata.sEntryDesc0x100     0xc578            0x8           8   
.rodata.sEntryDesc0x10F     0xc580            0x8           8   
.rodata.acEmcyCoeHeader     0xc588            0x8           8   
.text.NonMaskableInt_Ha     0xc590            0x6           6   
.text.HardFault_Handler     0xc596            0x6           6   
.text.DebugMonitor_Hand     0xc59c            0x6           6   
.text.MemoryManagement_     0xc5a2            0x6           6   
.text.BusFault_Handler      0xc5a8            0x6           6   
.text.UsageFault_Handle     0xc5ae            0x6           6   
.rodata                     0xc5b4            0x4           4  Read-only const 
      Total ROM used  :      0xc5a6       50598  9.7% of 0x80000
        --------------------------------------------------------------------------
         Total Program Memory used  :      0xc5a6       50598  9.7% of 0x80000
        --------------------------------------------------------------------------


RAM Data-Memory Usage
section                    address  length [bytes]      (dec)  Description
-------                 ----------  -------------------------  -----------
.bss                    0x20000000         0x2c30       11312  Uninitialized data 
.data.impure_data       0x20002c30          0x418        1048   
.data.__malloc_av_      0x20003048          0x408        1032   
.data.GenObjDic         0x20003450          0x1e0         480   
.data.ApplicationObjDic 0x20003630          0x118         280   
.bss.drvSPI0TransferObj 0x20003748           0x90         144   
.bss.gDrvSPIObj         0x200037d8           0x6c         108   
.bss.drvSPI0ClientObjPo 0x20003844           0x28          40   
.bss.__malloc_current_m 0x2000386c           0x28          40   
.data.sErrorSettings    0x20003894            0xc          12   
.bss.txDummyData        0x200038a0           0x20          32   
.bss._write_back_sectio 0x200038c0           0x20          32   
.bss.descriptor_section 0x200038e0           0x20          32   
.bss                    0x20003900           0x1c          28  Uninitialized data 
.data.acDevicename      0x2000391c           0x16          22   
.bss.nvm_error          0x20003932            0x2           2   
.data.sIdentity         0x20003934           0x14          20   
.data.aSubindexDesc     0x20003948            0xd          13   
.data.gis_Tx_DMAComplet 0x20003955            0x1           1   
.data.gis_Rx_DMAComplet 0x20003956            0x1           1   
.bss.isLastByteTransfer 0x20003957            0x1           1   
.bss.u64Timestamp       0x20003958            0x8           8   
.data.OutputsProcessDat 0x20003960            0x8           8   
.data.InputsProcessData 0x20003968            0x8           8   
.data.Inputs0x6000      0x20003970            0x8           8   
.data.Outputs0x7010     0x20003978            0x8           8   
.data.sSyncmanagertype  0x20003980            0x6           6   
.bss.u16ErrorRegister   0x20003986            0x2           2   
.data.u32Devicetype     0x20003988            0x4           4   
.data.acHardwareversion 0x2000398c            0x4           4   
.data.acSoftwareversion 0x20003990            0x4           4   
.bss.ObjDicList         0x20003994            0x4           4   
.bss.SMActivate         0x20003998            0x4           4   
.data.sRxPDOassign      0x2000399c            0x4           4   
.data.sTxPDOassign      0x200039a0            0x4           4   
.bss.gTriggerCounterVal 0x200039a4            0x4           4   
.data.gFOETestFrameSize 0x200039a8            0x4           4   
.bss.nFileWriteOffset   0x200039ac            0x4           4   
.bss.nFileStartWriteAdd 0x200039b0            0x4           4   
.bss.u32FileSize        0x200039b4            0x4           4   
.bss.__malloc_max_sbrke 0x200039b8            0x4           4   
.bss.__malloc_max_total 0x200039bc            0x4           4   
.bss.__malloc_top_pad   0x200039c0            0x4           4   
.data.__malloc_sbrk_bas 0x200039c4            0x4           4   
.data.__malloc_trim_thr 0x200039c8            0x4           4   
.data._impure_ptr       0x200039cc            0x4           4   
.bss                    0x200039d0            0x4           4  Uninitialized data 
.bss.gchEtherCATQSPITra 0x200039d4            0x1           1   
.bss.gbALEvtOpEnabled   0x200039d5            0x1           1   
.bss.bInitFinished      0x200039d6            0x1           1   
.bss.EepromLoaded       0x200039d7            0x1           1   
.bss.gFirmwareDownload_ 0x200039d8            0x1           1   
.bss.gFirmwareDownload_ 0x200039d9            0x1           1   
.bss.bSdoInWork         0x200039da            0x1           1   
         Total RAM used  :      0x39db       14811  7.5% of 0x30000
        --------------------------------------------------------------------------
            Total Data Memory used  :      0x39db       14811  7.5% of 0x30000
        --------------------------------------------------------------------------


Dynamic Data-Memory Reservation
section                    address  length [bytes]      (dec)  Description
-------                 ----------  -------------------------  -----------
heap                    0x200039e0          0x200         512  Reserved for heap 
stack                   0x20003bf8        0x2c3f8      181240  Reserved for stack 

        --------------------------------------------------------------------------

Discarded input sections

 .text          0x00000000        0x0 c:/program files (x86)/microchip/xc32/v2.30/bin/bin/../../lib/gcc/pic32c/6.2.1/v7e-m/fpv4-sp/hard/crti.o
 .data          0x00000000        0x0 c:/program files (x86)/microchip/xc32/v2.30/bin/bin/../../lib/gcc/pic32c/6.2.1/v7e-m/fpv4-sp/hard/crti.o
 .bss           0x00000000        0x0 c:/program files (x86)/microchip/xc32/v2.30/bin/bin/../../lib/gcc/pic32c/6.2.1/v7e-m/fpv4-sp/hard/crti.o
 .data          0x00000000        0x4 c:/program files (x86)/microchip/xc32/v2.30/bin/bin/../../lib/gcc/pic32c/6.2.1/v7e-m/fpv4-sp/hard/crtbegin.o
 .text          0x00000000        0x0 build/LAN9253_D51_SPI_Beckhoff_mode/production/_ext/2070931557/drv_spi.o
 .data          0x00000000        0x0 build/LAN9253_D51_SPI_Beckhoff_mode/production/_ext/2070931557/drv_spi.o
 .bss           0x00000000        0x0 build/LAN9253_D51_SPI_Beckhoff_mode/production/_ext/2070931557/drv_spi.o
 .text._DRV_SPI_RemoveClientTransfersFromList
                0x00000000       0x74 build/LAN9253_D51_SPI_Beckhoff_mode/production/_ext/2070931557/drv_spi.o
 .text.DRV_SPI_ExclusiveUse
                0x00000000       0xfc build/LAN9253_D51_SPI_Beckhoff_mode/production/_ext/2070931557/drv_spi.o
 .text.DRV_SPI_Status
                0x00000000       0x3c build/LAN9253_D51_SPI_Beckhoff_mode/production/_ext/2070931557/drv_spi.o
 .text.DRV_SPI_Close
                0x00000000       0xdc build/LAN9253_D51_SPI_Beckhoff_mode/production/_ext/2070931557/drv_spi.o
 .text.DRV_SPI_TransferStatusGet
                0x00000000       0x88 build/LAN9253_D51_SPI_Beckhoff_mode/production/_ext/2070931557/drv_spi.o
 .text.DRV_SPI_Lock
                0x00000000       0x20 build/LAN9253_D51_SPI_Beckhoff_mode/production/_ext/2070931557/drv_spi.o
 .text          0x00000000        0x0 build/LAN9253_D51_SPI_Beckhoff_mode/production/_ext/1984496892/plib_clock.o
 .data          0x00000000        0x0 build/LAN9253_D51_SPI_Beckhoff_mode/production/_ext/1984496892/plib_clock.o
 .bss           0x00000000        0x0 build/LAN9253_D51_SPI_Beckhoff_mode/production/_ext/1984496892/plib_clock.o
 .text          0x00000000        0x0 build/LAN9253_D51_SPI_Beckhoff_mode/production/_ext/1865131932/plib_cmcc.o
 .data          0x00000000        0x0 build/LAN9253_D51_SPI_Beckhoff_mode/production/_ext/1865131932/plib_cmcc.o
 .bss           0x00000000        0x0 build/LAN9253_D51_SPI_Beckhoff_mode/production/_ext/1865131932/plib_cmcc.o
 .text.CMCC_Disable
                0x00000000       0x2c build/LAN9253_D51_SPI_Beckhoff_mode/production/_ext/1865131932/plib_cmcc.o
 .text.CMCC_EnableICache
                0x00000000       0x40 build/LAN9253_D51_SPI_Beckhoff_mode/production/_ext/1865131932/plib_cmcc.o
 .text.CMCC_DisableICache
                0x00000000       0x40 build/LAN9253_D51_SPI_Beckhoff_mode/production/_ext/1865131932/plib_cmcc.o
 .text.CMCC_EnableDCache
                0x00000000       0x40 build/LAN9253_D51_SPI_Beckhoff_mode/production/_ext/1865131932/plib_cmcc.o
 .text.CMCC_DisableDCache
                0x00000000       0x40 build/LAN9253_D51_SPI_Beckhoff_mode/production/_ext/1865131932/plib_cmcc.o
 .text.CMCC_InvalidateAll
                0x00000000       0x34 build/LAN9253_D51_SPI_Beckhoff_mode/production/_ext/1865131932/plib_cmcc.o
 .debug_info    0x00000000      0x57e build/LAN9253_D51_SPI_Beckhoff_mode/production/_ext/1865131932/plib_cmcc.o
 .debug_abbrev  0x00000000       0x93 build/LAN9253_D51_SPI_Beckhoff_mode/production/_ext/1865131932/plib_cmcc.o
 .debug_loc     0x00000000      0x198 build/LAN9253_D51_SPI_Beckhoff_mode/production/_ext/1865131932/plib_cmcc.o
 .debug_aranges
                0x00000000       0x48 build/LAN9253_D51_SPI_Beckhoff_mode/production/_ext/1865131932/plib_cmcc.o
 .debug_ranges  0x00000000       0x38 build/LAN9253_D51_SPI_Beckhoff_mode/production/_ext/1865131932/plib_cmcc.o
 .debug_line    0x00000000      0x1e6 build/LAN9253_D51_SPI_Beckhoff_mode/production/_ext/1865131932/plib_cmcc.o
 .debug_str     0x00000000        0x0 build/LAN9253_D51_SPI_Beckhoff_mode/production/_ext/1865131932/plib_cmcc.o
 .comment       0x00000000       0x3d build/LAN9253_D51_SPI_Beckhoff_mode/production/_ext/1865131932/plib_cmcc.o
 .debug_frame   0x00000000       0xd0 build/LAN9253_D51_SPI_Beckhoff_mode/production/_ext/1865131932/plib_cmcc.o
 .ARM.attributes
                0x00000000       0x39 build/LAN9253_D51_SPI_Beckhoff_mode/production/_ext/1865131932/plib_cmcc.o
 .text          0x00000000        0x0 build/LAN9253_D51_SPI_Beckhoff_mode/production/_ext/1865161661/plib_dmac.o
 .data          0x00000000        0x0 build/LAN9253_D51_SPI_Beckhoff_mode/production/_ext/1865161661/plib_dmac.o
 .bss           0x00000000        0x0 build/LAN9253_D51_SPI_Beckhoff_mode/production/_ext/1865161661/plib_dmac.o
 .text.DMAC_ChannelIsBusy
                0x00000000       0x4c build/LAN9253_D51_SPI_Beckhoff_mode/production/_ext/1865161661/plib_dmac.o
 .text.DMAC_ChannelTransferStatusGet
                0x00000000       0x50 build/LAN9253_D51_SPI_Beckhoff_mode/production/_ext/1865161661/plib_dmac.o
 .text.DMAC_ChannelDisable
                0x00000000       0x60 build/LAN9253_D51_SPI_Beckhoff_mode/production/_ext/1865161661/plib_dmac.o
 .text.DMAC_ChannelGetTransferredCount
                0x00000000       0x44 build/LAN9253_D51_SPI_Beckhoff_mode/production/_ext/1865161661/plib_dmac.o
 .text.DMAC_ChannelSuspend
                0x00000000       0x44 build/LAN9253_D51_SPI_Beckhoff_mode/production/_ext/1865161661/plib_dmac.o
 .text.DMAC_ChannelResume
                0x00000000       0x44 build/LAN9253_D51_SPI_Beckhoff_mode/production/_ext/1865161661/plib_dmac.o
 .text.DMAC_CRCDisable
                0x00000000       0x18 build/LAN9253_D51_SPI_Beckhoff_mode/production/_ext/1865161661/plib_dmac.o
 .text.DMAC_ChannelCRCSetup
                0x00000000       0x60 build/LAN9253_D51_SPI_Beckhoff_mode/production/_ext/1865161661/plib_dmac.o
 .text.DMAC_CRCRead
                0x00000000       0x18 build/LAN9253_D51_SPI_Beckhoff_mode/production/_ext/1865161661/plib_dmac.o
 .text.DMAC_CRCCalculate
                0x00000000      0x104 build/LAN9253_D51_SPI_Beckhoff_mode/production/_ext/1865161661/plib_dmac.o
 .text          0x00000000        0x0 build/LAN9253_D51_SPI_Beckhoff_mode/production/_ext/60167341/plib_eic.o
 .data          0x00000000        0x0 build/LAN9253_D51_SPI_Beckhoff_mode/production/_ext/60167341/plib_eic.o
 .bss           0x00000000        0x0 build/LAN9253_D51_SPI_Beckhoff_mode/production/_ext/60167341/plib_eic.o
 .text.EIC_InterruptEnable
                0x00000000       0x28 build/LAN9253_D51_SPI_Beckhoff_mode/production/_ext/60167341/plib_eic.o
 .text.EIC_InterruptDisable
                0x00000000       0x28 build/LAN9253_D51_SPI_Beckhoff_mode/production/_ext/60167341/plib_eic.o
 .text          0x00000000        0x0 build/LAN9253_D51_SPI_Beckhoff_mode/production/_ext/1986646378/plib_evsys.o
 .data          0x00000000        0x0 build/LAN9253_D51_SPI_Beckhoff_mode/production/_ext/1986646378/plib_evsys.o
 .bss           0x00000000        0x0 build/LAN9253_D51_SPI_Beckhoff_mode/production/_ext/1986646378/plib_evsys.o
 .text          0x00000000        0x0 build/LAN9253_D51_SPI_Beckhoff_mode/production/_ext/1865468468/plib_nvic.o
 .data          0x00000000        0x0 build/LAN9253_D51_SPI_Beckhoff_mode/production/_ext/1865468468/plib_nvic.o
 .bss           0x00000000        0x0 build/LAN9253_D51_SPI_Beckhoff_mode/production/_ext/1865468468/plib_nvic.o
 .text          0x00000000        0x0 build/LAN9253_D51_SPI_Beckhoff_mode/production/_ext/1593096446/plib_nvmctrl.o
 .data          0x00000000        0x0 build/LAN9253_D51_SPI_Beckhoff_mode/production/_ext/1593096446/plib_nvmctrl.o
 .bss           0x00000000        0x0 build/LAN9253_D51_SPI_Beckhoff_mode/production/_ext/1593096446/plib_nvmctrl.o
 .bss.nvm_status
                0x00000000        0x2 build/LAN9253_D51_SPI_Beckhoff_mode/production/_ext/1593096446/plib_nvmctrl.o
 .bss.smart_eep_status
                0x00000000        0x4 build/LAN9253_D51_SPI_Beckhoff_mode/production/_ext/1593096446/plib_nvmctrl.o
 .text.NVMCTRL_Read
                0x00000000       0x22 build/LAN9253_D51_SPI_Beckhoff_mode/production/_ext/1593096446/plib_nvmctrl.o
 .text.NVMCTRL_SetWriteMode
                0x00000000       0x34 build/LAN9253_D51_SPI_Beckhoff_mode/production/_ext/1593096446/plib_nvmctrl.o
 .text.NVMCTRL_QuadWordWrite
                0x00000000       0x84 build/LAN9253_D51_SPI_Beckhoff_mode/production/_ext/1593096446/plib_nvmctrl.o
 .text.NVMCTRL_DoubleWordWrite
                0x00000000       0x84 build/LAN9253_D51_SPI_Beckhoff_mode/production/_ext/1593096446/plib_nvmctrl.o
 .text.NVMCTRL_ErrorGet
                0x00000000       0x40 build/LAN9253_D51_SPI_Beckhoff_mode/production/_ext/1593096446/plib_nvmctrl.o
 .text.NVMCTRL_StatusGet
                0x00000000       0x24 build/LAN9253_D51_SPI_Beckhoff_mode/production/_ext/1593096446/plib_nvmctrl.o
 .text.NVMCTRL_RegionLock
                0x00000000       0x28 build/LAN9253_D51_SPI_Beckhoff_mode/production/_ext/1593096446/plib_nvmctrl.o
 .text.NVMCTRL_RegionUnlock
                0x00000000       0x28 build/LAN9253_D51_SPI_Beckhoff_mode/production/_ext/1593096446/plib_nvmctrl.o
 .text.NVMCTRL_RegionLockStatusGet
                0x00000000       0x18 build/LAN9253_D51_SPI_Beckhoff_mode/production/_ext/1593096446/plib_nvmctrl.o
 .text.NVMCTRL_SmartEEPROM_IsBusy
                0x00000000       0x24 build/LAN9253_D51_SPI_Beckhoff_mode/production/_ext/1593096446/plib_nvmctrl.o
 .text.NVMCTRL_SmartEEPROMStatusGet
                0x00000000       0x24 build/LAN9253_D51_SPI_Beckhoff_mode/production/_ext/1593096446/plib_nvmctrl.o
 .text.NVMCTRL_SmartEEPROM_IsActiveSectorFull
                0x00000000       0x28 build/LAN9253_D51_SPI_Beckhoff_mode/production/_ext/1593096446/plib_nvmctrl.o
 .text.NVMCTRL_SmartEEPROMSectorReallocate
                0x00000000       0x1c build/LAN9253_D51_SPI_Beckhoff_mode/production/_ext/1593096446/plib_nvmctrl.o
 .text.NVMCTRL_SmartEEPROMFlushPageBuffer
                0x00000000       0x24 build/LAN9253_D51_SPI_Beckhoff_mode/production/_ext/1593096446/plib_nvmctrl.o
 .text          0x00000000        0x0 build/LAN9253_D51_SPI_Beckhoff_mode/production/_ext/1865521619/plib_port.o
 .data          0x00000000        0x0 build/LAN9253_D51_SPI_Beckhoff_mode/production/_ext/1865521619/plib_port.o
 .bss           0x00000000        0x0 build/LAN9253_D51_SPI_Beckhoff_mode/production/_ext/1865521619/plib_port.o
 .text.PORT_GroupRead
                0x00000000       0x18 build/LAN9253_D51_SPI_Beckhoff_mode/production/_ext/1865521619/plib_port.o
 .text.PORT_GroupWrite
                0x00000000       0x2e build/LAN9253_D51_SPI_Beckhoff_mode/production/_ext/1865521619/plib_port.o
 .text.PORT_GroupLatchRead
                0x00000000       0x18 build/LAN9253_D51_SPI_Beckhoff_mode/production/_ext/1865521619/plib_port.o
 .text.PORT_GroupToggle
                0x00000000       0x1c build/LAN9253_D51_SPI_Beckhoff_mode/production/_ext/1865521619/plib_port.o
 .text.PORT_GroupInputEnable
                0x00000000       0x1c build/LAN9253_D51_SPI_Beckhoff_mode/production/_ext/1865521619/plib_port.o
 .text          0x00000000        0x0 build/LAN9253_D51_SPI_Beckhoff_mode/production/_ext/1865555181/plib_qspi_spi.o
 .data          0x00000000        0x0 build/LAN9253_D51_SPI_Beckhoff_mode/production/_ext/1865555181/plib_qspi_spi.o
 .bss           0x00000000        0x0 build/LAN9253_D51_SPI_Beckhoff_mode/production/_ext/1865555181/plib_qspi_spi.o
 .text.QSPI_Initialize
                0x00000000       0x3c build/LAN9253_D51_SPI_Beckhoff_mode/production/_ext/1865555181/plib_qspi_spi.o
 .text.QSPI_Write
                0x00000000       0x20 build/LAN9253_D51_SPI_Beckhoff_mode/production/_ext/1865555181/plib_qspi_spi.o
 .text.QSPI_Read
                0x00000000       0x20 build/LAN9253_D51_SPI_Beckhoff_mode/production/_ext/1865555181/plib_qspi_spi.o
 .text          0x00000000        0x0 build/LAN9253_D51_SPI_Beckhoff_mode/production/_ext/1865555181/plib_qspi.o
 .data          0x00000000        0x0 build/LAN9253_D51_SPI_Beckhoff_mode/production/_ext/1865555181/plib_qspi.o
 .bss           0x00000000        0x0 build/LAN9253_D51_SPI_Beckhoff_mode/production/_ext/1865555181/plib_qspi.o
 .debug_line    0x00000000        0x0 build/LAN9253_D51_SPI_Beckhoff_mode/production/_ext/1865555181/plib_qspi.o
 .debug_str     0x00000000        0x0 build/LAN9253_D51_SPI_Beckhoff_mode/production/_ext/1865555181/plib_qspi.o
 .comment       0x00000000       0x3d build/LAN9253_D51_SPI_Beckhoff_mode/production/_ext/1865555181/plib_qspi.o
 .ARM.attributes
                0x00000000       0x39 build/LAN9253_D51_SPI_Beckhoff_mode/production/_ext/1865555181/plib_qspi.o
 .text          0x00000000        0x0 build/LAN9253_D51_SPI_Beckhoff_mode/production/_ext/1827571544/plib_systick.o
 .data          0x00000000        0x0 build/LAN9253_D51_SPI_Beckhoff_mode/production/_ext/1827571544/plib_systick.o
 .bss           0x00000000        0x0 build/LAN9253_D51_SPI_Beckhoff_mode/production/_ext/1827571544/plib_systick.o
 .text.SYSTICK_TimerRestart
                0x00000000       0x30 build/LAN9253_D51_SPI_Beckhoff_mode/production/_ext/1827571544/plib_systick.o
 .text.SYSTICK_TimerStop
                0x00000000       0x20 build/LAN9253_D51_SPI_Beckhoff_mode/production/_ext/1827571544/plib_systick.o
 .text.SYSTICK_TimerPeriodSet
                0x00000000       0x20 build/LAN9253_D51_SPI_Beckhoff_mode/production/_ext/1827571544/plib_systick.o
 .text.SYSTICK_TimerPeriodGet
                0x00000000       0x18 build/LAN9253_D51_SPI_Beckhoff_mode/production/_ext/1827571544/plib_systick.o
 .text.SYSTICK_TimerCounterGet
                0x00000000       0x18 build/LAN9253_D51_SPI_Beckhoff_mode/production/_ext/1827571544/plib_systick.o
 .text.SYSTICK_TimerFrequencyGet
                0x00000000       0x14 build/LAN9253_D51_SPI_Beckhoff_mode/production/_ext/1827571544/plib_systick.o
 .text.SYSTICK_DelayMs
                0x00000000       0x58 build/LAN9253_D51_SPI_Beckhoff_mode/production/_ext/1827571544/plib_systick.o
 .text          0x00000000        0x0 build/LAN9253_D51_SPI_Beckhoff_mode/production/_ext/163028504/xc32_monitor.o
 .data          0x00000000        0x0 build/LAN9253_D51_SPI_Beckhoff_mode/production/_ext/163028504/xc32_monitor.o
 .bss           0x00000000        0x0 build/LAN9253_D51_SPI_Beckhoff_mode/production/_ext/163028504/xc32_monitor.o
 .text._mon_getc
                0x00000000       0x16 build/LAN9253_D51_SPI_Beckhoff_mode/production/_ext/163028504/xc32_monitor.o
 .text._mon_putc
                0x00000000       0x16 build/LAN9253_D51_SPI_Beckhoff_mode/production/_ext/163028504/xc32_monitor.o
 .debug_info    0x00000000      0x28d build/LAN9253_D51_SPI_Beckhoff_mode/production/_ext/163028504/xc32_monitor.o
 .debug_abbrev  0x00000000       0x66 build/LAN9253_D51_SPI_Beckhoff_mode/production/_ext/163028504/xc32_monitor.o
 .debug_loc     0x00000000       0xb8 build/LAN9253_D51_SPI_Beckhoff_mode/production/_ext/163028504/xc32_monitor.o
 .debug_aranges
                0x00000000       0x28 build/LAN9253_D51_SPI_Beckhoff_mode/production/_ext/163028504/xc32_monitor.o
 .debug_ranges  0x00000000       0x18 build/LAN9253_D51_SPI_Beckhoff_mode/production/_ext/163028504/xc32_monitor.o
 .debug_line    0x00000000       0x6c build/LAN9253_D51_SPI_Beckhoff_mode/production/_ext/163028504/xc32_monitor.o
 .debug_str     0x00000000        0x0 build/LAN9253_D51_SPI_Beckhoff_mode/production/_ext/163028504/xc32_monitor.o
 .comment       0x00000000       0x3d build/LAN9253_D51_SPI_Beckhoff_mode/production/_ext/163028504/xc32_monitor.o
 .debug_frame   0x00000000       0x60 build/LAN9253_D51_SPI_Beckhoff_mode/production/_ext/163028504/xc32_monitor.o
 .ARM.attributes
                0x00000000       0x39 build/LAN9253_D51_SPI_Beckhoff_mode/production/_ext/163028504/xc32_monitor.o
 .text          0x00000000        0x0 build/LAN9253_D51_SPI_Beckhoff_mode/production/_ext/1014039709/sys_cache.o
 .data          0x00000000        0x0 build/LAN9253_D51_SPI_Beckhoff_mode/production/_ext/1014039709/sys_cache.o
 .bss           0x00000000        0x0 build/LAN9253_D51_SPI_Beckhoff_mode/production/_ext/1014039709/sys_cache.o
 .text.SYS_CACHE_EnableCaches
                0x00000000        0xe build/LAN9253_D51_SPI_Beckhoff_mode/production/_ext/1014039709/sys_cache.o
 .text.SYS_CACHE_DisableCaches
                0x00000000        0xe build/LAN9253_D51_SPI_Beckhoff_mode/production/_ext/1014039709/sys_cache.o
 .text.SYS_CACHE_EnableICache
                0x00000000        0xe build/LAN9253_D51_SPI_Beckhoff_mode/production/_ext/1014039709/sys_cache.o
 .text.SYS_CACHE_DisableICache
                0x00000000        0xe build/LAN9253_D51_SPI_Beckhoff_mode/production/_ext/1014039709/sys_cache.o
 .text.SYS_CACHE_InvalidateICache
                0x00000000        0xe build/LAN9253_D51_SPI_Beckhoff_mode/production/_ext/1014039709/sys_cache.o
 .text.SYS_CACHE_EnableDCache
                0x00000000        0xe build/LAN9253_D51_SPI_Beckhoff_mode/production/_ext/1014039709/sys_cache.o
 .text.SYS_CACHE_DisableDCache
                0x00000000        0xe build/LAN9253_D51_SPI_Beckhoff_mode/production/_ext/1014039709/sys_cache.o
 .text.SYS_CACHE_InvalidateDCache
                0x00000000        0xe build/LAN9253_D51_SPI_Beckhoff_mode/production/_ext/1014039709/sys_cache.o
 .text.SYS_CACHE_CleanDCache
                0x00000000        0xe build/LAN9253_D51_SPI_Beckhoff_mode/production/_ext/1014039709/sys_cache.o
 .text.SYS_CACHE_CleanInvalidateDCache
                0x00000000        0xe build/LAN9253_D51_SPI_Beckhoff_mode/production/_ext/1014039709/sys_cache.o
 .text.SYS_CACHE_InvalidateDCache_by_Addr
                0x00000000       0x16 build/LAN9253_D51_SPI_Beckhoff_mode/production/_ext/1014039709/sys_cache.o
 .text.SYS_CACHE_CleanDCache_by_Addr
                0x00000000       0x16 build/LAN9253_D51_SPI_Beckhoff_mode/production/_ext/1014039709/sys_cache.o
 .text.SYS_CACHE_CleanInvalidateDCache_by_Addr
                0x00000000       0x16 build/LAN9253_D51_SPI_Beckhoff_mode/production/_ext/1014039709/sys_cache.o
 .debug_info    0x00000000      0x5ff build/LAN9253_D51_SPI_Beckhoff_mode/production/_ext/1014039709/sys_cache.o
 .debug_abbrev  0x00000000       0x90 build/LAN9253_D51_SPI_Beckhoff_mode/production/_ext/1014039709/sys_cache.o
 .debug_loc     0x00000000      0x3bc build/LAN9253_D51_SPI_Beckhoff_mode/production/_ext/1014039709/sys_cache.o
 .debug_aranges
                0x00000000       0x80 build/LAN9253_D51_SPI_Beckhoff_mode/production/_ext/1014039709/sys_cache.o
 .debug_ranges  0x00000000       0x70 build/LAN9253_D51_SPI_Beckhoff_mode/production/_ext/1014039709/sys_cache.o
 .debug_line    0x00000000      0x201 build/LAN9253_D51_SPI_Beckhoff_mode/production/_ext/1014039709/sys_cache.o
 .debug_str     0x00000000        0x0 build/LAN9253_D51_SPI_Beckhoff_mode/production/_ext/1014039709/sys_cache.o
 .comment       0x00000000       0x3d build/LAN9253_D51_SPI_Beckhoff_mode/production/_ext/1014039709/sys_cache.o
 .debug_frame   0x00000000      0x1c8 build/LAN9253_D51_SPI_Beckhoff_mode/production/_ext/1014039709/sys_cache.o
 .ARM.attributes
                0x00000000       0x39 build/LAN9253_D51_SPI_Beckhoff_mode/production/_ext/1014039709/sys_cache.o
 .text          0x00000000        0x0 build/LAN9253_D51_SPI_Beckhoff_mode/production/_ext/14461671/sys_dma.o
 .data          0x00000000        0x0 build/LAN9253_D51_SPI_Beckhoff_mode/production/_ext/14461671/sys_dma.o
 .bss           0x00000000        0x0 build/LAN9253_D51_SPI_Beckhoff_mode/production/_ext/14461671/sys_dma.o
 .text          0x00000000        0x0 build/LAN9253_D51_SPI_Beckhoff_mode/production/_ext/1881668453/sys_int.o
 .data          0x00000000        0x0 build/LAN9253_D51_SPI_Beckhoff_mode/production/_ext/1881668453/sys_int.o
 .bss           0x00000000        0x0 build/LAN9253_D51_SPI_Beckhoff_mode/production/_ext/1881668453/sys_int.o
 .text.SYS_INT_Enable
                0x00000000       0x14 build/LAN9253_D51_SPI_Beckhoff_mode/production/_ext/1881668453/sys_int.o
 .text          0x00000000        0x0 build/LAN9253_D51_SPI_Beckhoff_mode/production/_ext/1171490990/exceptions.o
 .data          0x00000000        0x0 build/LAN9253_D51_SPI_Beckhoff_mode/production/_ext/1171490990/exceptions.o
 .bss           0x00000000        0x0 build/LAN9253_D51_SPI_Beckhoff_mode/production/_ext/1171490990/exceptions.o
 .text          0x00000000        0x0 build/LAN9253_D51_SPI_Beckhoff_mode/production/_ext/1171490990/initialization.o
 .data          0x00000000        0x0 build/LAN9253_D51_SPI_Beckhoff_mode/production/_ext/1171490990/initialization.o
 .bss           0x00000000        0x0 build/LAN9253_D51_SPI_Beckhoff_mode/production/_ext/1171490990/initialization.o
 .text          0x00000000        0x0 build/LAN9253_D51_SPI_Beckhoff_mode/production/_ext/1171490990/interrupts.o
 .data          0x00000000        0x0 build/LAN9253_D51_SPI_Beckhoff_mode/production/_ext/1171490990/interrupts.o
 .bss           0x00000000        0x0 build/LAN9253_D51_SPI_Beckhoff_mode/production/_ext/1171490990/interrupts.o
 .text          0x00000000        0x0 build/LAN9253_D51_SPI_Beckhoff_mode/production/_ext/1171490990/libc_syscalls.o
 .data          0x00000000        0x0 build/LAN9253_D51_SPI_Beckhoff_mode/production/_ext/1171490990/libc_syscalls.o
 .bss           0x00000000        0x0 build/LAN9253_D51_SPI_Beckhoff_mode/production/_ext/1171490990/libc_syscalls.o
 .text._exit    0x00000000        0xa build/LAN9253_D51_SPI_Beckhoff_mode/production/_ext/1171490990/libc_syscalls.o
 .debug_info    0x00000000      0xea6 build/LAN9253_D51_SPI_Beckhoff_mode/production/_ext/1171490990/libc_syscalls.o
 .debug_abbrev  0x00000000      0x1a8 build/LAN9253_D51_SPI_Beckhoff_mode/production/_ext/1171490990/libc_syscalls.o
 .debug_loc     0x00000000       0x38 build/LAN9253_D51_SPI_Beckhoff_mode/production/_ext/1171490990/libc_syscalls.o
 .debug_aranges
                0x00000000       0x20 build/LAN9253_D51_SPI_Beckhoff_mode/production/_ext/1171490990/libc_syscalls.o
 .debug_ranges  0x00000000       0x10 build/LAN9253_D51_SPI_Beckhoff_mode/production/_ext/1171490990/libc_syscalls.o
 .debug_line    0x00000000      0x1e8 build/LAN9253_D51_SPI_Beckhoff_mode/production/_ext/1171490990/libc_syscalls.o
 .debug_str     0x00000000        0xe build/LAN9253_D51_SPI_Beckhoff_mode/production/_ext/1171490990/libc_syscalls.o
 .comment       0x00000000       0x3d build/LAN9253_D51_SPI_Beckhoff_mode/production/_ext/1171490990/libc_syscalls.o
 .debug_frame   0x00000000       0x2c build/LAN9253_D51_SPI_Beckhoff_mode/production/_ext/1171490990/libc_syscalls.o
 .ARM.attributes
                0x00000000       0x39 build/LAN9253_D51_SPI_Beckhoff_mode/production/_ext/1171490990/libc_syscalls.o
 .text          0x00000000        0x0 build/LAN9253_D51_SPI_Beckhoff_mode/production/_ext/1171490990/startup_xc32.o
 .data          0x00000000        0x0 build/LAN9253_D51_SPI_Beckhoff_mode/production/_ext/1171490990/startup_xc32.o
 .bss           0x00000000        0x0 build/LAN9253_D51_SPI_Beckhoff_mode/production/_ext/1171490990/startup_xc32.o
 .text          0x00000000        0x0 build/LAN9253_D51_SPI_Beckhoff_mode/production/_ext/1171490990/tasks.o
 .data          0x00000000        0x0 build/LAN9253_D51_SPI_Beckhoff_mode/production/_ext/1171490990/tasks.o
 .bss           0x00000000        0x0 build/LAN9253_D51_SPI_Beckhoff_mode/production/_ext/1171490990/tasks.o
 .text          0x00000000        0x0 build/LAN9253_D51_SPI_Beckhoff_mode/production/_ext/1671622979/Drivers.o
 .data          0x00000000        0x0 build/LAN9253_D51_SPI_Beckhoff_mode/production/_ext/1671622979/Drivers.o
 .bss           0x00000000        0x0 build/LAN9253_D51_SPI_Beckhoff_mode/production/_ext/1671622979/Drivers.o
 .text.__NVIC_EnableIRQ
                0x00000000       0x3c build/LAN9253_D51_SPI_Beckhoff_mode/production/_ext/1671622979/Drivers.o
 .text.__NVIC_DisableIRQ
                0x00000000       0x44 build/LAN9253_D51_SPI_Beckhoff_mode/production/_ext/1671622979/Drivers.o
 .text.EtherCAT_TransmissionFlagClear
                0x00000000       0x18 build/LAN9253_D51_SPI_Beckhoff_mode/production/_ext/1671622979/Drivers.o
 .text.EtherCAT_QSPITransmissionBusy
                0x00000000       0x24 build/LAN9253_D51_SPI_Beckhoff_mode/production/_ext/1671622979/Drivers.o
 .text.ESC_BYTE_TEST_Register_Read
                0x00000000       0x44 build/LAN9253_D51_SPI_Beckhoff_mode/production/_ext/1671622979/Drivers.o
 .text.ReBuild_SPI_SetCfg_data
                0x00000000       0xf0 build/LAN9253_D51_SPI_Beckhoff_mode/production/_ext/1671622979/Drivers.o
 .text.HandleSetupPhase
                0x00000000       0xd0 build/LAN9253_D51_SPI_Beckhoff_mode/production/_ext/1671622979/Drivers.o
 .text.HandleDummyPhase
                0x00000000       0x7c build/LAN9253_D51_SPI_Beckhoff_mode/production/_ext/1671622979/Drivers.o
 .text.DmaBuffsizeCalculate
                0x00000000       0x5e build/LAN9253_D51_SPI_Beckhoff_mode/production/_ext/1671622979/Drivers.o
 .text.HandleDmaData
                0x00000000       0xd6 build/LAN9253_D51_SPI_Beckhoff_mode/production/_ext/1671622979/Drivers.o
 .text.HandleDataPhase
                0x00000000      0x16c build/LAN9253_D51_SPI_Beckhoff_mode/production/_ext/1671622979/Drivers.o
 .text.HandleDataAlignment
                0x00000000       0xe8 build/LAN9253_D51_SPI_Beckhoff_mode/production/_ext/1671622979/Drivers.o
 .text.SPI_SetConfiguration
                0x00000000       0x64 build/LAN9253_D51_SPI_Beckhoff_mode/production/_ext/1671622979/Drivers.o
 .text.SPI_DisableQuadMode
                0x00000000       0x26 build/LAN9253_D51_SPI_Beckhoff_mode/production/_ext/1671622979/Drivers.o
 .text.PDI_GetTimer
                0x00000000       0x10 build/LAN9253_D51_SPI_Beckhoff_mode/production/_ext/1671622979/Drivers.o
 .text.PDI_ClearTimer
                0x00000000        0xe build/LAN9253_D51_SPI_Beckhoff_mode/production/_ext/1671622979/Drivers.o
 .text.stop_timer
                0x00000000       0x10 build/LAN9253_D51_SPI_Beckhoff_mode/production/_ext/1671622979/Drivers.o
 .text.start_timer
                0x00000000       0x10 build/LAN9253_D51_SPI_Beckhoff_mode/production/_ext/1671622979/Drivers.o
 .text.BeckhoffSPI_Write
                0x00000000      0x12c build/LAN9253_D51_SPI_Beckhoff_mode/production/_ext/1671622979/Drivers.o
 .text.BeckhoffSPI_Read
                0x00000000      0x164 build/LAN9253_D51_SPI_Beckhoff_mode/production/_ext/1671622979/Drivers.o
 .text          0x00000000        0x0 build/LAN9253_D51_SPI_Beckhoff_mode/production/_ext/108147519/ESC_Utils.o
 .data          0x00000000        0x0 build/LAN9253_D51_SPI_Beckhoff_mode/production/_ext/108147519/ESC_Utils.o
 .bss           0x00000000        0x0 build/LAN9253_D51_SPI_Beckhoff_mode/production/_ext/108147519/ESC_Utils.o
 .text.RoundUpMultipleOf
                0x00000000       0x96 build/LAN9253_D51_SPI_Beckhoff_mode/production/_ext/108147519/ESC_Utils.o
 .text.GetDummyBytesRequired
                0x00000000       0xc6 build/LAN9253_D51_SPI_Beckhoff_mode/production/_ext/108147519/ESC_Utils.o
 .text          0x00000000        0x0 build/LAN9253_D51_SPI_Beckhoff_mode/production/_ext/108147519/LAN925x.o
 .data          0x00000000        0x0 build/LAN9253_D51_SPI_Beckhoff_mode/production/_ext/108147519/LAN925x.o
 .bss           0x00000000        0x0 build/LAN9253_D51_SPI_Beckhoff_mode/production/_ext/108147519/LAN925x.o
 .data.gau8DummyCntArr
                0x00000000       0x27 build/LAN9253_D51_SPI_Beckhoff_mode/production/_ext/108147519/LAN925x.o
 .text.HW_Release
                0x00000000        0xe build/LAN9253_D51_SPI_Beckhoff_mode/production/_ext/108147519/LAN925x.o
 .text.HW_EscWriteMailbox
                0x00000000       0x24 build/LAN9253_D51_SPI_Beckhoff_mode/production/_ext/108147519/LAN925x.o
 .text.HW_EscReadMailbox
                0x00000000       0x24 build/LAN9253_D51_SPI_Beckhoff_mode/production/_ext/108147519/LAN925x.o
 .text.HW_SetLed
                0x00000000       0x1c build/LAN9253_D51_SPI_Beckhoff_mode/production/_ext/108147519/LAN925x.o
 COMMON         0x00000000        0x2 build/LAN9253_D51_SPI_Beckhoff_mode/production/_ext/108147519/LAN925x.o
 .text          0x00000000        0x0 build/LAN9253_D51_SPI_Beckhoff_mode/production/_ext/108134065/bootmode.o
 .data          0x00000000        0x0 build/LAN9253_D51_SPI_Beckhoff_mode/production/_ext/108134065/bootmode.o
 .bss           0x00000000        0x0 build/LAN9253_D51_SPI_Beckhoff_mode/production/_ext/108134065/bootmode.o
 .text.BL_StartDownload
                0x00000000       0x14 build/LAN9253_D51_SPI_Beckhoff_mode/production/_ext/108134065/bootmode.o
 .text.BL_Data  0x00000000       0x1a build/LAN9253_D51_SPI_Beckhoff_mode/production/_ext/108134065/bootmode.o
 .text          0x00000000        0x0 build/LAN9253_D51_SPI_Beckhoff_mode/production/_ext/108134065/coeappl.o
 .data          0x00000000        0x0 build/LAN9253_D51_SPI_Beckhoff_mode/production/_ext/108134065/coeappl.o
 .bss           0x00000000        0x0 build/LAN9253_D51_SPI_Beckhoff_mode/production/_ext/108134065/coeappl.o
 .text          0x00000000        0x0 build/LAN9253_D51_SPI_Beckhoff_mode/production/_ext/108134065/ecatappl.o
 .data          0x00000000        0x0 build/LAN9253_D51_SPI_Beckhoff_mode/production/_ext/108134065/ecatappl.o
 .bss           0x00000000        0x0 build/LAN9253_D51_SPI_Beckhoff_mode/production/_ext/108134065/ecatappl.o
 .text          0x00000000        0x0 build/LAN9253_D51_SPI_Beckhoff_mode/production/_ext/108134065/ecatcoe.o
 .data          0x00000000        0x0 build/LAN9253_D51_SPI_Beckhoff_mode/production/_ext/108134065/ecatcoe.o
 .bss           0x00000000        0x0 build/LAN9253_D51_SPI_Beckhoff_mode/production/_ext/108134065/ecatcoe.o
 .text          0x00000000        0x0 build/LAN9253_D51_SPI_Beckhoff_mode/production/_ext/108134065/ecatfoe.o
 .data          0x00000000        0x0 build/LAN9253_D51_SPI_Beckhoff_mode/production/_ext/108134065/ecatfoe.o
 .bss           0x00000000        0x0 build/LAN9253_D51_SPI_Beckhoff_mode/production/_ext/108134065/ecatfoe.o
 .text          0x00000000        0x0 build/LAN9253_D51_SPI_Beckhoff_mode/production/_ext/108134065/ecatslv.o
 .data          0x00000000        0x0 build/LAN9253_D51_SPI_Beckhoff_mode/production/_ext/108134065/ecatslv.o
 .bss           0x00000000        0x0 build/LAN9253_D51_SPI_Beckhoff_mode/production/_ext/108134065/ecatslv.o
 .text.ECAT_StateChange
                0x00000000      0x188 build/LAN9253_D51_SPI_Beckhoff_mode/production/_ext/108134065/ecatslv.o
 .text          0x00000000        0x0 build/LAN9253_D51_SPI_Beckhoff_mode/production/_ext/108134065/emcy.o
 .data          0x00000000        0x0 build/LAN9253_D51_SPI_Beckhoff_mode/production/_ext/108134065/emcy.o
 .bss           0x00000000        0x0 build/LAN9253_D51_SPI_Beckhoff_mode/production/_ext/108134065/emcy.o
 .text          0x00000000        0x0 build/LAN9253_D51_SPI_Beckhoff_mode/production/_ext/108134065/foeappl.o
 .data          0x00000000        0x0 build/LAN9253_D51_SPI_Beckhoff_mode/production/_ext/108134065/foeappl.o
 .bss           0x00000000        0x0 build/LAN9253_D51_SPI_Beckhoff_mode/production/_ext/108134065/foeappl.o
 .text          0x00000000        0x0 build/LAN9253_D51_SPI_Beckhoff_mode/production/_ext/108134065/mailbox.o
 .data          0x00000000        0x0 build/LAN9253_D51_SPI_Beckhoff_mode/production/_ext/108134065/mailbox.o
 .bss           0x00000000        0x0 build/LAN9253_D51_SPI_Beckhoff_mode/production/_ext/108134065/mailbox.o
 .text          0x00000000        0x0 build/LAN9253_D51_SPI_Beckhoff_mode/production/_ext/108134065/objdef.o
 .data          0x00000000        0x0 build/LAN9253_D51_SPI_Beckhoff_mode/production/_ext/108134065/objdef.o
 .bss           0x00000000        0x0 build/LAN9253_D51_SPI_Beckhoff_mode/production/_ext/108134065/objdef.o
 .text          0x00000000        0x0 build/LAN9253_D51_SPI_Beckhoff_mode/production/_ext/108134065/sample_app.o
 .data          0x00000000        0x0 build/LAN9253_D51_SPI_Beckhoff_mode/production/_ext/108134065/sample_app.o
 .bss           0x00000000        0x0 build/LAN9253_D51_SPI_Beckhoff_mode/production/_ext/108134065/sample_app.o
 .text.HW_EepromReload
                0x00000000       0x10 build/LAN9253_D51_SPI_Beckhoff_mode/production/_ext/108134065/sample_app.o
 .text          0x00000000        0x0 build/LAN9253_D51_SPI_Beckhoff_mode/production/_ext/108134065/sdoserv.o
 .data          0x00000000        0x0 build/LAN9253_D51_SPI_Beckhoff_mode/production/_ext/108134065/sdoserv.o
 .bss           0x00000000        0x0 build/LAN9253_D51_SPI_Beckhoff_mode/production/_ext/108134065/sdoserv.o
 .text          0x00000000        0x0 build/LAN9253_D51_SPI_Beckhoff_mode/production/_ext/1360937237/main.o
 .data          0x00000000        0x0 build/LAN9253_D51_SPI_Beckhoff_mode/production/_ext/1360937237/main.o
 .bss           0x00000000        0x0 build/LAN9253_D51_SPI_Beckhoff_mode/production/_ext/1360937237/main.o
 .text          0x00000000        0x0 build/LAN9253_D51_SPI_Beckhoff_mode/production/_ext/1360937237/app.o
 .data          0x00000000        0x0 build/LAN9253_D51_SPI_Beckhoff_mode/production/_ext/1360937237/app.o
 .bss           0x00000000        0x0 build/LAN9253_D51_SPI_Beckhoff_mode/production/_ext/1360937237/app.o
 .rodata.gAppBankBOffsetAddr
                0x00000000        0x4 build/LAN9253_D51_SPI_Beckhoff_mode/production/_ext/1360937237/app.o
 .rodata.gApplicationStartAddr
                0x00000000        0x4 build/LAN9253_D51_SPI_Beckhoff_mode/production/_ext/1360937237/app.o
 .text          0x00000000        0x0 build/LAN9253_D51_SPI_Beckhoff_mode/production/_ext/1360937237/Developer_Test.o
 .data          0x00000000        0x0 build/LAN9253_D51_SPI_Beckhoff_mode/production/_ext/1360937237/Developer_Test.o
 .bss           0x00000000        0x0 build/LAN9253_D51_SPI_Beckhoff_mode/production/_ext/1360937237/Developer_Test.o
 .debug_info    0x00000000     0x18c5 build/LAN9253_D51_SPI_Beckhoff_mode/production/_ext/1360937237/Developer_Test.o
 .debug_abbrev  0x00000000      0x1b3 build/LAN9253_D51_SPI_Beckhoff_mode/production/_ext/1360937237/Developer_Test.o
 .debug_aranges
                0x00000000       0x18 build/LAN9253_D51_SPI_Beckhoff_mode/production/_ext/1360937237/Developer_Test.o
 .debug_line    0x00000000      0x329 build/LAN9253_D51_SPI_Beckhoff_mode/production/_ext/1360937237/Developer_Test.o
 .debug_str     0x00000000        0xe build/LAN9253_D51_SPI_Beckhoff_mode/production/_ext/1360937237/Developer_Test.o
 .comment       0x00000000       0x3d build/LAN9253_D51_SPI_Beckhoff_mode/production/_ext/1360937237/Developer_Test.o
 .ARM.attributes
                0x00000000       0x39 build/LAN9253_D51_SPI_Beckhoff_mode/production/_ext/1360937237/Developer_Test.o
 .text          0x00000000        0x0 c:/program files (x86)/microchip/xc32/v2.30/bin/bin/../../lib/gcc/pic32c/6.2.1/../../../../pic32c/lib/v7e-m/fpv4-sp/hard\libpic32c.a(data_init.o)
 .data          0x00000000        0x0 c:/program files (x86)/microchip/xc32/v2.30/bin/bin/../../lib/gcc/pic32c/6.2.1/../../../../pic32c/lib/v7e-m/fpv4-sp/hard\libpic32c.a(data_init.o)
 .bss           0x00000000        0x0 c:/program files (x86)/microchip/xc32/v2.30/bin/bin/../../lib/gcc/pic32c/6.2.1/../../../../pic32c/lib/v7e-m/fpv4-sp/hard\libpic32c.a(data_init.o)
 .text          0x00000000        0x0 c:/program files (x86)/microchip/xc32/v2.30/bin/bin/../../lib/gcc/pic32c/6.2.1/../../../../pic32c/lib/v7e-m/fpv4-sp/hard\libc.a(lib_a-init.o)
 .data          0x00000000        0x0 c:/program files (x86)/microchip/xc32/v2.30/bin/bin/../../lib/gcc/pic32c/6.2.1/../../../../pic32c/lib/v7e-m/fpv4-sp/hard\libc.a(lib_a-init.o)
 .bss           0x00000000        0x0 c:/program files (x86)/microchip/xc32/v2.30/bin/bin/../../lib/gcc/pic32c/6.2.1/../../../../pic32c/lib/v7e-m/fpv4-sp/hard\libc.a(lib_a-init.o)
 .text          0x00000000        0x0 c:/program files (x86)/microchip/xc32/v2.30/bin/bin/../../lib/gcc/pic32c/6.2.1/../../../../pic32c/lib/v7e-m/fpv4-sp/hard\libc.a(lib_a-malloc.o)
 .data          0x00000000        0x0 c:/program files (x86)/microchip/xc32/v2.30/bin/bin/../../lib/gcc/pic32c/6.2.1/../../../../pic32c/lib/v7e-m/fpv4-sp/hard\libc.a(lib_a-malloc.o)
 .bss           0x00000000        0x0 c:/program files (x86)/microchip/xc32/v2.30/bin/bin/../../lib/gcc/pic32c/6.2.1/../../../../pic32c/lib/v7e-m/fpv4-sp/hard\libc.a(lib_a-malloc.o)
 .text          0x00000000        0x0 c:/program files (x86)/microchip/xc32/v2.30/bin/bin/../../lib/gcc/pic32c/6.2.1/../../../../pic32c/lib/v7e-m/fpv4-sp/hard\libc.a(lib_a-mallocr.o)
 .data          0x00000000        0x0 c:/program files (x86)/microchip/xc32/v2.30/bin/bin/../../lib/gcc/pic32c/6.2.1/../../../../pic32c/lib/v7e-m/fpv4-sp/hard\libc.a(lib_a-mallocr.o)
 .bss           0x00000000        0x0 c:/program files (x86)/microchip/xc32/v2.30/bin/bin/../../lib/gcc/pic32c/6.2.1/../../../../pic32c/lib/v7e-m/fpv4-sp/hard\libc.a(lib_a-mallocr.o)
 .text          0x00000000        0x0 c:/program files (x86)/microchip/xc32/v2.30/bin/bin/../../lib/gcc/pic32c/6.2.1/../../../../pic32c/lib/v7e-m/fpv4-sp/hard\libc.a(lib_a-memcpy-stub.o)
 .data          0x00000000        0x0 c:/program files (x86)/microchip/xc32/v2.30/bin/bin/../../lib/gcc/pic32c/6.2.1/../../../../pic32c/lib/v7e-m/fpv4-sp/hard\libc.a(lib_a-memcpy-stub.o)
 .bss           0x00000000        0x0 c:/program files (x86)/microchip/xc32/v2.30/bin/bin/../../lib/gcc/pic32c/6.2.1/../../../../pic32c/lib/v7e-m/fpv4-sp/hard\libc.a(lib_a-memcpy-stub.o)
 .text          0x00000000        0x0 c:/program files (x86)/microchip/xc32/v2.30/bin/bin/../../lib/gcc/pic32c/6.2.1/../../../../pic32c/lib/v7e-m/fpv4-sp/hard\libc.a(lib_a-memset.o)
 .data          0x00000000        0x0 c:/program files (x86)/microchip/xc32/v2.30/bin/bin/../../lib/gcc/pic32c/6.2.1/../../../../pic32c/lib/v7e-m/fpv4-sp/hard\libc.a(lib_a-memset.o)
 .bss           0x00000000        0x0 c:/program files (x86)/microchip/xc32/v2.30/bin/bin/../../lib/gcc/pic32c/6.2.1/../../../../pic32c/lib/v7e-m/fpv4-sp/hard\libc.a(lib_a-memset.o)
 .text          0x00000000        0x0 c:/program files (x86)/microchip/xc32/v2.30/bin/bin/../../lib/gcc/pic32c/6.2.1/../../../../pic32c/lib/v7e-m/fpv4-sp/hard\libc.a(lib_a-mlock.o)
 .data          0x00000000        0x0 c:/program files (x86)/microchip/xc32/v2.30/bin/bin/../../lib/gcc/pic32c/6.2.1/../../../../pic32c/lib/v7e-m/fpv4-sp/hard\libc.a(lib_a-mlock.o)
 .bss           0x00000000        0x0 c:/program files (x86)/microchip/xc32/v2.30/bin/bin/../../lib/gcc/pic32c/6.2.1/../../../../pic32c/lib/v7e-m/fpv4-sp/hard\libc.a(lib_a-mlock.o)
 .text          0x00000000        0x0 c:/program files (x86)/microchip/xc32/v2.30/bin/bin/../../lib/gcc/pic32c/6.2.1/../../../../pic32c/lib/v7e-m/fpv4-sp/hard\libc.a(lib_a-sbrkr.o)
 .data          0x00000000        0x0 c:/program files (x86)/microchip/xc32/v2.30/bin/bin/../../lib/gcc/pic32c/6.2.1/../../../../pic32c/lib/v7e-m/fpv4-sp/hard\libc.a(lib_a-sbrkr.o)
 .bss           0x00000000        0x0 c:/program files (x86)/microchip/xc32/v2.30/bin/bin/../../lib/gcc/pic32c/6.2.1/../../../../pic32c/lib/v7e-m/fpv4-sp/hard\libc.a(lib_a-sbrkr.o)
 .data          0x00000000        0x0 c:/program files (x86)/microchip/xc32/v2.30/bin/bin/../../lib/gcc/pic32c/6.2.1/../../../../pic32c/lib/v7e-m/fpv4-sp/hard\libc.a(lib_a-strlen.o)
 .bss           0x00000000        0x0 c:/program files (x86)/microchip/xc32/v2.30/bin/bin/../../lib/gcc/pic32c/6.2.1/../../../../pic32c/lib/v7e-m/fpv4-sp/hard\libc.a(lib_a-strlen.o)
 .text          0x00000000        0x0 c:/program files (x86)/microchip/xc32/v2.30/bin/bin/../../lib/gcc/pic32c/6.2.1/../../../../pic32c/lib/v7e-m/fpv4-sp/hard\libc.a(lib_a-freer.o)
 .data          0x00000000        0x0 c:/program files (x86)/microchip/xc32/v2.30/bin/bin/../../lib/gcc/pic32c/6.2.1/../../../../pic32c/lib/v7e-m/fpv4-sp/hard\libc.a(lib_a-freer.o)
 .bss           0x00000000        0x0 c:/program files (x86)/microchip/xc32/v2.30/bin/bin/../../lib/gcc/pic32c/6.2.1/../../../../pic32c/lib/v7e-m/fpv4-sp/hard\libc.a(lib_a-freer.o)
 .text          0x00000000        0x0 c:/program files (x86)/microchip/xc32/v2.30/bin/bin/../../lib/gcc/pic32c/6.2.1/../../../../pic32c/lib/v7e-m/fpv4-sp/hard\libc.a(lib_a-impure.o)
 .data          0x00000000        0x0 c:/program files (x86)/microchip/xc32/v2.30/bin/bin/../../lib/gcc/pic32c/6.2.1/../../../../pic32c/lib/v7e-m/fpv4-sp/hard\libc.a(lib_a-impure.o)
 .bss           0x00000000        0x0 c:/program files (x86)/microchip/xc32/v2.30/bin/bin/../../lib/gcc/pic32c/6.2.1/../../../../pic32c/lib/v7e-m/fpv4-sp/hard\libc.a(lib_a-impure.o)
 .rodata._global_impure_ptr
                0x00000000        0x4 c:/program files (x86)/microchip/xc32/v2.30/bin/bin/../../lib/gcc/pic32c/6.2.1/../../../../pic32c/lib/v7e-m/fpv4-sp/hard\libc.a(lib_a-impure.o)
 .text          0x00000000        0x0 c:/program files (x86)/microchip/xc32/v2.30/bin/bin/../../lib/gcc/pic32c/6.2.1/../../../../pic32c/lib/v7e-m/fpv4-sp/hard\libc.a(lib_a-reent.o)
 .data          0x00000000        0x0 c:/program files (x86)/microchip/xc32/v2.30/bin/bin/../../lib/gcc/pic32c/6.2.1/../../../../pic32c/lib/v7e-m/fpv4-sp/hard\libc.a(lib_a-reent.o)
 .bss           0x00000000        0x0 c:/program files (x86)/microchip/xc32/v2.30/bin/bin/../../lib/gcc/pic32c/6.2.1/../../../../pic32c/lib/v7e-m/fpv4-sp/hard\libc.a(lib_a-reent.o)
 .text.cleanup_glue
                0x00000000       0x1a c:/program files (x86)/microchip/xc32/v2.30/bin/bin/../../lib/gcc/pic32c/6.2.1/../../../../pic32c/lib/v7e-m/fpv4-sp/hard\libc.a(lib_a-reent.o)
 .text._reclaim_reent
                0x00000000       0x84 c:/program files (x86)/microchip/xc32/v2.30/bin/bin/../../lib/gcc/pic32c/6.2.1/../../../../pic32c/lib/v7e-m/fpv4-sp/hard\libc.a(lib_a-reent.o)
 .text          0x00000000        0x0 c:/program files (x86)/microchip/xc32/v2.30/bin/bin/../../lib/gcc/pic32c/6.2.1/../../../../pic32c/lib/v7e-m/fpv4-sp/hard\libpic32c.a(sbrk.o)
 .data          0x00000000        0x0 c:/program files (x86)/microchip/xc32/v2.30/bin/bin/../../lib/gcc/pic32c/6.2.1/../../../../pic32c/lib/v7e-m/fpv4-sp/hard\libpic32c.a(sbrk.o)
 .text          0x00000000        0x0 c:/program files (x86)/microchip/xc32/v2.30/bin/bin/../../lib/gcc/pic32c/6.2.1/v7e-m/fpv4-sp/hard/crtend.o
 .data          0x00000000        0x0 c:/program files (x86)/microchip/xc32/v2.30/bin/bin/../../lib/gcc/pic32c/6.2.1/v7e-m/fpv4-sp/hard/crtend.o
 .bss           0x00000000        0x0 c:/program files (x86)/microchip/xc32/v2.30/bin/bin/../../lib/gcc/pic32c/6.2.1/v7e-m/fpv4-sp/hard/crtend.o
 .eh_frame      0x00000000        0x4 c:/program files (x86)/microchip/xc32/v2.30/bin/bin/../../lib/gcc/pic32c/6.2.1/v7e-m/fpv4-sp/hard/crtend.o
 .comment       0x00000000       0x3d c:/program files (x86)/microchip/xc32/v2.30/bin/bin/../../lib/gcc/pic32c/6.2.1/v7e-m/fpv4-sp/hard/crtend.o
 .ARM.attributes
                0x00000000       0x34 c:/program files (x86)/microchip/xc32/v2.30/bin/bin/../../lib/gcc/pic32c/6.2.1/v7e-m/fpv4-sp/hard/crtend.o
 .text          0x00000000        0x0 c:/program files (x86)/microchip/xc32/v2.30/bin/bin/../../lib/gcc/pic32c/6.2.1/v7e-m/fpv4-sp/hard/crtn.o
 .data          0x00000000        0x0 c:/program files (x86)/microchip/xc32/v2.30/bin/bin/../../lib/gcc/pic32c/6.2.1/v7e-m/fpv4-sp/hard/crtn.o
 .bss           0x00000000        0x0 c:/program files (x86)/microchip/xc32/v2.30/bin/bin/../../lib/gcc/pic32c/6.2.1/v7e-m/fpv4-sp/hard/crtn.o

Memory Configuration

Name             Origin             Length             Attributes
rom              0x00000000         0x00080000         xrl
ram              0x20000000         0x00030000         xw !r
config_00804000  0x00804000         0x00000004
config_00804004  0x00804004         0x00000004
config_00804008  0x00804008         0x00000004
*default*        0x00000000         0xffffffff

Linker script and memory map

LOAD c:/program files (x86)/microchip/xc32/v2.30/bin/bin/../../lib/gcc/pic32c/6.2.1/v7e-m/fpv4-sp/hard/crti.o
LOAD c:/program files (x86)/microchip/xc32/v2.30/bin/bin/../../lib/gcc/pic32c/6.2.1/v7e-m/fpv4-sp/hard/crtbegin.o
LOAD build/LAN9253_D51_SPI_Beckhoff_mode/production/_ext/2070931557/drv_spi.o
LOAD build/LAN9253_D51_SPI_Beckhoff_mode/production/_ext/1984496892/plib_clock.o
LOAD build/LAN9253_D51_SPI_Beckhoff_mode/production/_ext/1865131932/plib_cmcc.o
LOAD build/LAN9253_D51_SPI_Beckhoff_mode/production/_ext/1865161661/plib_dmac.o
LOAD build/LAN9253_D51_SPI_Beckhoff_mode/production/_ext/60167341/plib_eic.o
LOAD build/LAN9253_D51_SPI_Beckhoff_mode/production/_ext/1986646378/plib_evsys.o
LOAD build/LAN9253_D51_SPI_Beckhoff_mode/production/_ext/1865468468/plib_nvic.o
LOAD build/LAN9253_D51_SPI_Beckhoff_mode/production/_ext/1593096446/plib_nvmctrl.o
LOAD build/LAN9253_D51_SPI_Beckhoff_mode/production/_ext/1865521619/plib_port.o
LOAD build/LAN9253_D51_SPI_Beckhoff_mode/production/_ext/1865555181/plib_qspi_spi.o
LOAD build/LAN9253_D51_SPI_Beckhoff_mode/production/_ext/1865555181/plib_qspi.o
LOAD build/LAN9253_D51_SPI_Beckhoff_mode/production/_ext/1827571544/plib_systick.o
LOAD build/LAN9253_D51_SPI_Beckhoff_mode/production/_ext/163028504/xc32_monitor.o
LOAD build/LAN9253_D51_SPI_Beckhoff_mode/production/_ext/1014039709/sys_cache.o
LOAD build/LAN9253_D51_SPI_Beckhoff_mode/production/_ext/14461671/sys_dma.o
LOAD build/LAN9253_D51_SPI_Beckhoff_mode/production/_ext/1881668453/sys_int.o
LOAD build/LAN9253_D51_SPI_Beckhoff_mode/production/_ext/1171490990/exceptions.o
LOAD build/LAN9253_D51_SPI_Beckhoff_mode/production/_ext/1171490990/initialization.o
LOAD build/LAN9253_D51_SPI_Beckhoff_mode/production/_ext/1171490990/interrupts.o
LOAD build/LAN9253_D51_SPI_Beckhoff_mode/production/_ext/1171490990/libc_syscalls.o
LOAD build/LAN9253_D51_SPI_Beckhoff_mode/production/_ext/1171490990/startup_xc32.o
LOAD build/LAN9253_D51_SPI_Beckhoff_mode/production/_ext/1171490990/tasks.o
LOAD build/LAN9253_D51_SPI_Beckhoff_mode/production/_ext/1671622979/Drivers.o
LOAD build/LAN9253_D51_SPI_Beckhoff_mode/production/_ext/108147519/ESC_Utils.o
LOAD build/LAN9253_D51_SPI_Beckhoff_mode/production/_ext/108147519/LAN925x.o
LOAD build/LAN9253_D51_SPI_Beckhoff_mode/production/_ext/108134065/bootmode.o
LOAD build/LAN9253_D51_SPI_Beckhoff_mode/production/_ext/108134065/coeappl.o
LOAD build/LAN9253_D51_SPI_Beckhoff_mode/production/_ext/108134065/ecatappl.o
LOAD build/LAN9253_D51_SPI_Beckhoff_mode/production/_ext/108134065/ecatcoe.o
LOAD build/LAN9253_D51_SPI_Beckhoff_mode/production/_ext/108134065/ecatfoe.o
LOAD build/LAN9253_D51_SPI_Beckhoff_mode/production/_ext/108134065/ecatslv.o
LOAD build/LAN9253_D51_SPI_Beckhoff_mode/production/_ext/108134065/emcy.o
LOAD build/LAN9253_D51_SPI_Beckhoff_mode/production/_ext/108134065/foeappl.o
LOAD build/LAN9253_D51_SPI_Beckhoff_mode/production/_ext/108134065/mailbox.o
LOAD build/LAN9253_D51_SPI_Beckhoff_mode/production/_ext/108134065/objdef.o
LOAD build/LAN9253_D51_SPI_Beckhoff_mode/production/_ext/108134065/sample_app.o
LOAD build/LAN9253_D51_SPI_Beckhoff_mode/production/_ext/108134065/sdoserv.o
LOAD build/LAN9253_D51_SPI_Beckhoff_mode/production/_ext/1360937237/main.o
LOAD build/LAN9253_D51_SPI_Beckhoff_mode/production/_ext/1360937237/app.o
LOAD build/LAN9253_D51_SPI_Beckhoff_mode/production/_ext/1360937237/Developer_Test.o
                0x00000001                __MPLAB_BUILD = 0x1
                0x00000200                _min_heap_size = 0x200
START GROUP
LOAD c:/program files (x86)/microchip/xc32/v2.30/bin/bin/../../lib/gcc/pic32c/6.2.1/../../../../pic32c/lib/v7e-m/fpv4-sp/hard\libpic32c.a
LOAD c:/program files (x86)/microchip/xc32/v2.30/bin/bin/../../lib/gcc/pic32c/6.2.1/v7e-m/fpv4-sp/hard\libgcc.a
LOAD c:/program files (x86)/microchip/xc32/v2.30/bin/bin/../../lib/gcc/pic32c/6.2.1/../../../../pic32c/lib/v7e-m/fpv4-sp/hard\libc.a
LOAD c:/program files (x86)/microchip/xc32/v2.30/bin/bin/../../lib/gcc/pic32c/6.2.1/../../../../pic32c/lib/v7e-m/fpv4-sp/hard\libm.a
END GROUP
LOAD c:/program files (x86)/microchip/xc32/v2.30/bin/bin/../../lib/gcc/pic32c/6.2.1/v7e-m/fpv4-sp/hard/crtend.o
LOAD c:/program files (x86)/microchip/xc32/v2.30/bin/bin/../../lib/gcc/pic32c/6.2.1/v7e-m/fpv4-sp/hard/crtn.o
                0x00080000                __rom_end = (ORIGIN (rom) + LENGTH (rom))
                0x20030000                __ram_end = (ORIGIN (ram) + LENGTH (ram))

.config_00804000
 *(.config_00804000)

.config_00804004
 *(.config_00804004)

.config_00804008
 *(.config_00804008)

.vectors        0x00000000      0x260
                0x00000000                . = ALIGN (0x4)
                0x00000000                _sfixed = .
 *(.vectors .vectors.* .vectors_default .vectors_default.*)
 .vectors       0x00000000      0x260 build/LAN9253_D51_SPI_Beckhoff_mode/production/_ext/1171490990/interrupts.o
                0x00000000                exception_table
 *(.isr_vector)
 *(.reset*)
 *(.after_vectors)

.text           0x00000260       0x20
                0x00000260                . = ALIGN (0x4)
 *(.glue_7t)
 .glue_7t       0x00000260        0x0 linker stubs
 *(.glue_7)
 .glue_7        0x00000260        0x0 linker stubs
 *(.gnu.linkonce.r.*)
 *(.ARM.extab* .gnu.linkonce.armextab.*)
                0x00000260                . = ALIGN (0x4)
 *(.init)
 .init          0x00000260        0x4 c:/program files (x86)/microchip/xc32/v2.30/bin/bin/../../lib/gcc/pic32c/6.2.1/v7e-m/fpv4-sp/hard/crti.o
                0x00000260                _init
 .init          0x00000264        0x8 c:/program files (x86)/microchip/xc32/v2.30/bin/bin/../../lib/gcc/pic32c/6.2.1/v7e-m/fpv4-sp/hard/crtn.o
                0x0000026c                . = ALIGN (0x4)
                0x0000026c                __preinit_array_start = .
 *(.preinit_array)
                0x0000026c                __preinit_array_end = .
                0x0000026c                . = ALIGN (0x4)
                0x0000026c                __init_array_start = .
 *(SORT(.init_array.*))
 *(.init_array)
 .init_array    0x0000026c        0x4 c:/program files (x86)/microchip/xc32/v2.30/bin/bin/../../lib/gcc/pic32c/6.2.1/v7e-m/fpv4-sp/hard/crtbegin.o
                0x00000270                __init_array_end = .
                0x00000270                . = ALIGN (0x4)
 *crtbegin.o(.ctors)
 *(EXCLUDE_FILE(*crtend.o) .ctors)
 *(SORT(.ctors.*))
 *crtend.o(.ctors)
                0x00000270                . = ALIGN (0x4)
 *(.fini)
 .fini          0x00000270        0x4 c:/program files (x86)/microchip/xc32/v2.30/bin/bin/../../lib/gcc/pic32c/6.2.1/v7e-m/fpv4-sp/hard/crti.o
                0x00000270                _fini
 .fini          0x00000274        0x8 c:/program files (x86)/microchip/xc32/v2.30/bin/bin/../../lib/gcc/pic32c/6.2.1/v7e-m/fpv4-sp/hard/crtn.o
                0x0000027c                . = ALIGN (0x4)
                0x0000027c                __fini_array_start = .
 *(.fini_array)
 .fini_array    0x0000027c        0x4 c:/program files (x86)/microchip/xc32/v2.30/bin/bin/../../lib/gcc/pic32c/6.2.1/v7e-m/fpv4-sp/hard/crtbegin.o
 *(SORT(.fini_array.*))
                0x00000280                __fini_array_end = .
 *crtbegin.o(.dtors)
 *(EXCLUDE_FILE(*crtend.o) .dtors)
 *(SORT(.dtors.*))
 *crtend.o(.dtors)
                0x00000280                . = ALIGN (0x4)
                0x00000280                _efixed = .
                [!provide]                PROVIDE (__exidx_start, .)

.ARM.exidx
 *(.ARM.exidx* .gnu.linkonce.armexidx.*)
                [!provide]                PROVIDE (__exidx_end, .)
                0x00000280                . = ALIGN (0x4)
                0x00000280                _etext = .

.bss            0x20000000     0x2c30
                0x20000000                . = ALIGN (0x4)
                0x20000000                __bss_start__ = .
                0x20000000                _sbss = .
                0x20000000                _szero = .
 *(COMMON)
 COMMON         0x20000000       0x1c build/LAN9253_D51_SPI_Beckhoff_mode/production/_ext/2070931557/drv_spi.o
                0x20000000                transferTxHandle
                0x20000004                transferRxHandle
                0x20000008                setup
 COMMON         0x2000001c       0x20 build/LAN9253_D51_SPI_Beckhoff_mode/production/_ext/1865161661/plib_dmac.o
                0x2000001c                dmacChannelObj
 COMMON         0x2000003c       0xc0 build/LAN9253_D51_SPI_Beckhoff_mode/production/_ext/60167341/plib_eic.o
                0x2000003c                eicCallbackObject
 COMMON         0x200000fc       0x28 build/LAN9253_D51_SPI_Beckhoff_mode/production/_ext/1865555181/plib_qspi_spi.o
                0x200000fc                qspiObj
 COMMON         0x20000124        0xc build/LAN9253_D51_SPI_Beckhoff_mode/production/_ext/1827571544/plib_systick.o
                0x20000124                systick
 COMMON         0x20000130        0x8 build/LAN9253_D51_SPI_Beckhoff_mode/production/_ext/1171490990/initialization.o
                0x20000130                handle
                0x20000134                sysObj
 COMMON         0x20000138      0x800 build/LAN9253_D51_SPI_Beckhoff_mode/production/_ext/1671622979/Drivers.o
                0x20000138                gau8DmaBuff
 COMMON         0x20000938        0x8 build/LAN9253_D51_SPI_Beckhoff_mode/production/_ext/108134065/coeappl.o
                0x20000938                u32LastDc32Value
                0x2000093c                u32CheckForDcOverrunCnt
 COMMON         0x20000940       0xc4 build/LAN9253_D51_SPI_Beckhoff_mode/production/_ext/108134065/ecatappl.o
                0x20000940                bMinCycleTimeMeasurementStarted
                0x20000944                u32CycleTimeStartValue
                0x20000948                bRunApplication
                0x2000094c                u32SystemTimeReadFailure
                0x20000950                bEcatWaitForInputUpdate
                0x20000954                u32MinCycleTimeValue
                0x20000958                aPdOutputData
                0x2000099c                pAPPL_FoeError
                0x200009a0                pAPPL_FoeReadData
                0x200009a4                pAPPL_MainLoop
                0x200009a8                bEtherCATErrorLed
                0x200009ac                u32MinCycleTimeStartValue
                0x200009b0                aPdInputData
                0x200009f4                bEtherCATRunLed
                0x200009f8                pAPPL_FoeWriteData
                0x200009fc                pAPPL_FoeRead
                0x20000a00                pAPPL_FoeWrite
 COMMON         0x20000a04        0x4 build/LAN9253_D51_SPI_Beckhoff_mode/production/_ext/108134065/ecatcoe.o
                0x20000a04                pCoeSendStored
 COMMON         0x20000a08       0x16 build/LAN9253_D51_SPI_Beckhoff_mode/production/_ext/108134065/ecatfoe.o
                0x20000a08                u32FileOffset
                0x20000a0c                u16FileAccessState
                0x20000a10                u32PacketNo
                0x20000a14                pFoeSendStored
                0x20000a18                u32LastFileOffset
                0x20000a1c                u16FoeMaxSendBlockSize
 *fill*         0x20000a1e        0x2 
 COMMON         0x20000a20       0x52 build/LAN9253_D51_SPI_Beckhoff_mode/production/_ext/108134065/ecatslv.o
                0x20000a20                b3BufferMode
                0x20000a22                nEcatStateTrans
                0x20000a24                EcatWdCounter
                0x20000a26                bApplEsmPending
                0x20000a27                nAlStatus
                0x20000a28                nPdOutputSize
                0x20000a2a                u16LocalErrorCode
                0x20000a2c                Sync0WdCounter
                0x20000a2e                bLocalErrorFlag
                0x20000a30                LatchInputSync0Counter
                0x20000a32                i16WaitForPllRunningCnt
                0x20000a34                nEscAddrOutputData
                0x20000a36                Sync0WdValue
                0x20000a38                u8EcatRunLed
                0x20000a3a                i16WaitForPllRunningTimeout
                0x20000a3c                Sync1WdValue
                0x20000a3e                u16ALEventMask
                0x20000a40                bDcRunning
                0x20000a44                u32dummy
                0x20000a48                SyncManInfo
                0x20000a50                b32BitDc
                0x20000a52                LatchInputSync0Value
                0x20000a54                bEcatWaitForAlControlRes
                0x20000a56                nPdInputSize
                0x20000a58                u16SmSync0Value
                0x20000a5a                nMaxEscAddress
                0x20000a5c                bEcatFirstOutputsReceived
                0x20000a5d                bSmSyncSequenceValid
                0x20000a5e                EsmTimeoutCounter
                0x20000a60                bBootMode
                0x20000a61                bDcSyncActive
                0x20000a62                bEcatOutputUpdateRunning
                0x20000a64                Sync1WdCounter
                0x20000a66                EcatWdValue
                0x20000a68                bEcatInputUpdateRunning
                0x20000a69                bEscIntEnabled
                0x20000a6a                bWdTrigger
                0x20000a6c                u16SmSync0Counter
                0x20000a6e                nMaxSyncMan
                0x20000a6f                u8EcatErrorLed
                0x20000a70                nEscAddrInputData
 *fill*         0x20000a72        0x2 
 COMMON         0x20000a74       0x28 build/LAN9253_D51_SPI_Beckhoff_mode/production/_ext/108134065/emcy.o
                0x20000a74                sSendEmcyQueue
                0x20000a84                asEmcy
                0x20000a8c                sEmptyEmcyQueue
 COMMON         0x20000a9c       0x94 build/LAN9253_D51_SPI_Beckhoff_mode/production/_ext/108134065/mailbox.o
                0x20000a9c                u8MbxReadCounter
                0x20000aa0                sMbxSendQueue
                0x20000ad4                sMbxReceiveQueue
                0x20000b08                bNoMbxMemoryAvailable
                0x20000b09                bSendMbxIsFull
                0x20000b0a                bMbxRunning
                0x20000b0c                u16EscAddrReceiveMbx
                0x20000b10                psStoreMbx
                0x20000b14                u16SendMbxSize
                0x20000b18                psReadMbx
                0x20000b1c                bReceiveMbxIsLocked
                0x20000b1e                u16EscAddrSendMbx
                0x20000b20                psWriteMbx
                0x20000b24                u8MbxWriteCounter
                0x20000b25                u8MailboxSendReqStored
                0x20000b26                u16ReceiveMbxSize
                0x20000b28                bMbxRepeatToggle
                0x20000b2c                psRepeatMbx
 COMMON         0x20000b30       0x8e build/LAN9253_D51_SPI_Beckhoff_mode/production/_ext/108134065/objdef.o
                0x20000b30                sSyncManInPar
                0x20000b74                sSyncManOutPar
                0x20000bb8                bSyncSetByUser
                0x20000bbc                sCycleDiag
 *fill*         0x20000bbe        0x2 
 COMMON         0x20000bc0     0x2016 build/LAN9253_D51_SPI_Beckhoff_mode/production/_ext/108134065/sample_app.o
                0x20000bc0                aFileData
                0x20002bc0                aFileName
 *fill*         0x20002bd6        0x2 
 COMMON         0x20002bd8       0x4d build/LAN9253_D51_SPI_Beckhoff_mode/production/_ext/108134065/sdoserv.o
                0x20002bd8                nSdoInfoIndex
                0x20002bdc                pStoreData
                0x20002be0                nSdoSegBytesToHandle
                0x20002be4                bSdoSegAccess
                0x20002be5                bSdoSegFollows
                0x20002be8                nSdoSegCompleteSize
                0x20002bec                pSdoPendFunc
                0x20002bf0                u8PendingSdo
                0x20002bf1                bStoreCompleteAccess
                0x20002bf2                bSdoSegLastToggle
                0x20002bf3                nSdoSegService
                0x20002bf4                pSdoInfoObjEntry
                0x20002bf8                nSdoInfoFragmentsLeft
                0x20002bfc                pSdoResStored
                0x20002c00                u32StoreDataSize
                0x20002c04                pSdoSegData
                0x20002c08                nSdoSegIndex
                0x20002c0c                aSdoInfoHeader
                0x20002c1c                pSdoSegObjEntry
                0x20002c20                nSdoSegSubindex
                0x20002c22                u16StoreIndex
                0x20002c24                u8StoreSubindex
 *fill*         0x20002c25        0x3 
 COMMON         0x20002c28        0x1 build/LAN9253_D51_SPI_Beckhoff_mode/production/_ext/1360937237/app.o
                0x20002c28                appData
 *fill*         0x20002c29        0x3 
 COMMON         0x20002c2c        0x4 c:/program files (x86)/microchip/xc32/v2.30/bin/bin/../../lib/gcc/pic32c/6.2.1/../../../../pic32c/lib/v7e-m/fpv4-sp/hard\libc.a(lib_a-reent.o)
                0x20002c2c                errno
                0x20002c30                . = ALIGN (0x4)
                0x20002c30                __bss_end__ = .
                0x20002c30                _ebss = .
                0x20002c30                _ezero = .
                0x20002c30                . = ALIGN (0x4)
                0x20002c30                _end = .
                0x2002ffff                _ram_end_ = ((ORIGIN (ram) + LENGTH (ram)) - 0x1)
OUTPUT(dist/LAN9253_D51_SPI_Beckhoff_mode/production/ESF_EVB_LAN9253.production.elf elf32-littlearm)
LOAD stack
LOAD data_init

.ARM.attributes
                0x00000000       0x30
 .ARM.attributes
                0x00000000       0x22 c:/program files (x86)/microchip/xc32/v2.30/bin/bin/../../lib/gcc/pic32c/6.2.1/v7e-m/fpv4-sp/hard/crti.o
 .ARM.attributes
                0x00000022       0x34 c:/program files (x86)/microchip/xc32/v2.30/bin/bin/../../lib/gcc/pic32c/6.2.1/v7e-m/fpv4-sp/hard/crtbegin.o
 .ARM.attributes
                0x00000056       0x39 build/LAN9253_D51_SPI_Beckhoff_mode/production/_ext/2070931557/drv_spi.o
 .ARM.attributes
                0x0000008f       0x39 build/LAN9253_D51_SPI_Beckhoff_mode/production/_ext/1984496892/plib_clock.o
 .ARM.attributes
                0x000000c8       0x39 build/LAN9253_D51_SPI_Beckhoff_mode/production/_ext/1865161661/plib_dmac.o
 .ARM.attributes
                0x00000101       0x39 build/LAN9253_D51_SPI_Beckhoff_mode/production/_ext/60167341/plib_eic.o
 .ARM.attributes
                0x0000013a       0x39 build/LAN9253_D51_SPI_Beckhoff_mode/production/_ext/1986646378/plib_evsys.o
 .ARM.attributes
                0x00000173       0x39 build/LAN9253_D51_SPI_Beckhoff_mode/production/_ext/1865468468/plib_nvic.o
 .ARM.attributes
                0x000001ac       0x39 build/LAN9253_D51_SPI_Beckhoff_mode/production/_ext/1593096446/plib_nvmctrl.o
 .ARM.attributes
                0x000001e5       0x39 build/LAN9253_D51_SPI_Beckhoff_mode/production/_ext/1865521619/plib_port.o
 .ARM.attributes
                0x0000021e       0x39 build/LAN9253_D51_SPI_Beckhoff_mode/production/_ext/1865555181/plib_qspi_spi.o
 .ARM.attributes
                0x00000257       0x39 build/LAN9253_D51_SPI_Beckhoff_mode/production/_ext/1827571544/plib_systick.o
 .ARM.attributes
                0x00000290       0x39 build/LAN9253_D51_SPI_Beckhoff_mode/production/_ext/14461671/sys_dma.o
 .ARM.attributes
                0x000002c9       0x39 build/LAN9253_D51_SPI_Beckhoff_mode/production/_ext/1881668453/sys_int.o
 .ARM.attributes
                0x00000302       0x39 build/LAN9253_D51_SPI_Beckhoff_mode/production/_ext/1171490990/exceptions.o
 .ARM.attributes
                0x0000033b       0x39 build/LAN9253_D51_SPI_Beckhoff_mode/production/_ext/1171490990/initialization.o
 .ARM.attributes
                0x00000374       0x39 build/LAN9253_D51_SPI_Beckhoff_mode/production/_ext/1171490990/interrupts.o
 .ARM.attributes
                0x000003ad       0x39 build/LAN9253_D51_SPI_Beckhoff_mode/production/_ext/1171490990/startup_xc32.o
 .ARM.attributes
                0x000003e6       0x39 build/LAN9253_D51_SPI_Beckhoff_mode/production/_ext/1171490990/tasks.o
 .ARM.attributes
                0x0000041f       0x39 build/LAN9253_D51_SPI_Beckhoff_mode/production/_ext/1671622979/Drivers.o
 .ARM.attributes
                0x00000458       0x39 build/LAN9253_D51_SPI_Beckhoff_mode/production/_ext/108147519/ESC_Utils.o
 .ARM.attributes
                0x00000491       0x39 build/LAN9253_D51_SPI_Beckhoff_mode/production/_ext/108147519/LAN925x.o
 .ARM.attributes
                0x000004ca       0x39 build/LAN9253_D51_SPI_Beckhoff_mode/production/_ext/108134065/bootmode.o
 .ARM.attributes
                0x00000503       0x39 build/LAN9253_D51_SPI_Beckhoff_mode/production/_ext/108134065/coeappl.o
 .ARM.attributes
                0x0000053c       0x39 build/LAN9253_D51_SPI_Beckhoff_mode/production/_ext/108134065/ecatappl.o
 .ARM.attributes
                0x00000575       0x39 build/LAN9253_D51_SPI_Beckhoff_mode/production/_ext/108134065/ecatcoe.o
 .ARM.attributes
                0x000005ae       0x39 build/LAN9253_D51_SPI_Beckhoff_mode/production/_ext/108134065/ecatfoe.o
 .ARM.attributes
                0x000005e7       0x39 build/LAN9253_D51_SPI_Beckhoff_mode/production/_ext/108134065/ecatslv.o
 .ARM.attributes
                0x00000620       0x39 build/LAN9253_D51_SPI_Beckhoff_mode/production/_ext/108134065/emcy.o
 .ARM.attributes
                0x00000659       0x39 build/LAN9253_D51_SPI_Beckhoff_mode/production/_ext/108134065/foeappl.o
 .ARM.attributes
                0x00000692       0x39 build/LAN9253_D51_SPI_Beckhoff_mode/production/_ext/108134065/mailbox.o
 .ARM.attributes
                0x000006cb       0x39 build/LAN9253_D51_SPI_Beckhoff_mode/production/_ext/108134065/objdef.o
 .ARM.attributes
                0x00000704       0x39 build/LAN9253_D51_SPI_Beckhoff_mode/production/_ext/108134065/sample_app.o
 .ARM.attributes
                0x0000073d       0x39 build/LAN9253_D51_SPI_Beckhoff_mode/production/_ext/108134065/sdoserv.o
 .ARM.attributes
                0x00000776       0x39 build/LAN9253_D51_SPI_Beckhoff_mode/production/_ext/1360937237/main.o
 .ARM.attributes
                0x000007af       0x39 build/LAN9253_D51_SPI_Beckhoff_mode/production/_ext/1360937237/app.o
 .ARM.attributes
                0x000007e8       0x34 c:/program files (x86)/microchip/xc32/v2.30/bin/bin/../../lib/gcc/pic32c/6.2.1/../../../../pic32c/lib/v7e-m/fpv4-sp/hard\libpic32c.a(data_init.o)
 .ARM.attributes
                0x0000081c       0x34 c:/program files (x86)/microchip/xc32/v2.30/bin/bin/../../lib/gcc/pic32c/6.2.1/../../../../pic32c/lib/v7e-m/fpv4-sp/hard\libc.a(lib_a-init.o)
 .ARM.attributes
                0x00000850       0x34 c:/program files (x86)/microchip/xc32/v2.30/bin/bin/../../lib/gcc/pic32c/6.2.1/../../../../pic32c/lib/v7e-m/fpv4-sp/hard\libc.a(lib_a-malloc.o)
 .ARM.attributes
                0x00000884       0x34 c:/program files (x86)/microchip/xc32/v2.30/bin/bin/../../lib/gcc/pic32c/6.2.1/../../../../pic32c/lib/v7e-m/fpv4-sp/hard\libc.a(lib_a-mallocr.o)
 .ARM.attributes
                0x000008b8       0x34 c:/program files (x86)/microchip/xc32/v2.30/bin/bin/../../lib/gcc/pic32c/6.2.1/../../../../pic32c/lib/v7e-m/fpv4-sp/hard\libc.a(lib_a-memcpy-stub.o)
 .ARM.attributes
                0x000008ec       0x34 c:/program files (x86)/microchip/xc32/v2.30/bin/bin/../../lib/gcc/pic32c/6.2.1/../../../../pic32c/lib/v7e-m/fpv4-sp/hard\libc.a(lib_a-memset.o)
 .ARM.attributes
                0x00000920       0x34 c:/program files (x86)/microchip/xc32/v2.30/bin/bin/../../lib/gcc/pic32c/6.2.1/../../../../pic32c/lib/v7e-m/fpv4-sp/hard\libc.a(lib_a-mlock.o)
 .ARM.attributes
                0x00000954       0x34 c:/program files (x86)/microchip/xc32/v2.30/bin/bin/../../lib/gcc/pic32c/6.2.1/../../../../pic32c/lib/v7e-m/fpv4-sp/hard\libc.a(lib_a-sbrkr.o)
 .ARM.attributes
                0x00000988       0x1b c:/program files (x86)/microchip/xc32/v2.30/bin/bin/../../lib/gcc/pic32c/6.2.1/../../../../pic32c/lib/v7e-m/fpv4-sp/hard\libc.a(lib_a-strlen.o)
 .ARM.attributes
                0x000009a3       0x34 c:/program files (x86)/microchip/xc32/v2.30/bin/bin/../../lib/gcc/pic32c/6.2.1/../../../../pic32c/lib/v7e-m/fpv4-sp/hard\libc.a(lib_a-freer.o)
 .ARM.attributes
                0x000009d7       0x34 c:/program files (x86)/microchip/xc32/v2.30/bin/bin/../../lib/gcc/pic32c/6.2.1/../../../../pic32c/lib/v7e-m/fpv4-sp/hard\libc.a(lib_a-impure.o)
 .ARM.attributes
                0x00000a0b       0x34 c:/program files (x86)/microchip/xc32/v2.30/bin/bin/../../lib/gcc/pic32c/6.2.1/../../../../pic32c/lib/v7e-m/fpv4-sp/hard\libc.a(lib_a-reent.o)
 .ARM.attributes
                0x00000a3f       0x34 c:/program files (x86)/microchip/xc32/v2.30/bin/bin/../../lib/gcc/pic32c/6.2.1/../../../../pic32c/lib/v7e-m/fpv4-sp/hard\libpic32c.a(sbrk.o)
 .ARM.attributes
                0x00000a73       0x22 c:/program files (x86)/microchip/xc32/v2.30/bin/bin/../../lib/gcc/pic32c/6.2.1/v7e-m/fpv4-sp/hard/crtn.o

.comment        0x00000000       0x3c
 .comment       0x00000000       0x3c c:/program files (x86)/microchip/xc32/v2.30/bin/bin/../../lib/gcc/pic32c/6.2.1/v7e-m/fpv4-sp/hard/crtbegin.o
                                 0x3d (size before relaxing)
 .comment       0x0000003c       0x3d build/LAN9253_D51_SPI_Beckhoff_mode/production/_ext/2070931557/drv_spi.o
 .comment       0x0000003c       0x3d build/LAN9253_D51_SPI_Beckhoff_mode/production/_ext/1984496892/plib_clock.o
 .comment       0x0000003c       0x3d build/LAN9253_D51_SPI_Beckhoff_mode/production/_ext/1865161661/plib_dmac.o
 .comment       0x0000003c       0x3d build/LAN9253_D51_SPI_Beckhoff_mode/production/_ext/60167341/plib_eic.o
 .comment       0x0000003c       0x3d build/LAN9253_D51_SPI_Beckhoff_mode/production/_ext/1986646378/plib_evsys.o
 .comment       0x0000003c       0x3d build/LAN9253_D51_SPI_Beckhoff_mode/production/_ext/1865468468/plib_nvic.o
 .comment       0x0000003c       0x3d build/LAN9253_D51_SPI_Beckhoff_mode/production/_ext/1593096446/plib_nvmctrl.o
 .comment       0x0000003c       0x3d build/LAN9253_D51_SPI_Beckhoff_mode/production/_ext/1865521619/plib_port.o
 .comment       0x0000003c       0x3d build/LAN9253_D51_SPI_Beckhoff_mode/production/_ext/1865555181/plib_qspi_spi.o
 .comment       0x0000003c       0x3d build/LAN9253_D51_SPI_Beckhoff_mode/production/_ext/1827571544/plib_systick.o
 .comment       0x0000003c       0x3d build/LAN9253_D51_SPI_Beckhoff_mode/production/_ext/14461671/sys_dma.o
 .comment       0x0000003c       0x3d build/LAN9253_D51_SPI_Beckhoff_mode/production/_ext/1881668453/sys_int.o
 .comment       0x0000003c       0x3d build/LAN9253_D51_SPI_Beckhoff_mode/production/_ext/1171490990/exceptions.o
 .comment       0x0000003c       0x3d build/LAN9253_D51_SPI_Beckhoff_mode/production/_ext/1171490990/initialization.o
 .comment       0x0000003c       0x3d build/LAN9253_D51_SPI_Beckhoff_mode/production/_ext/1171490990/interrupts.o
 .comment       0x0000003c       0x3d build/LAN9253_D51_SPI_Beckhoff_mode/production/_ext/1171490990/startup_xc32.o
 .comment       0x0000003c       0x3d build/LAN9253_D51_SPI_Beckhoff_mode/production/_ext/1171490990/tasks.o
 .comment       0x0000003c       0x3d build/LAN9253_D51_SPI_Beckhoff_mode/production/_ext/1671622979/Drivers.o
 .comment       0x0000003c       0x3d build/LAN9253_D51_SPI_Beckhoff_mode/production/_ext/108147519/ESC_Utils.o
 .comment       0x0000003c       0x3d build/LAN9253_D51_SPI_Beckhoff_mode/production/_ext/108147519/LAN925x.o
 .comment       0x0000003c       0x3d build/LAN9253_D51_SPI_Beckhoff_mode/production/_ext/108134065/bootmode.o
 .comment       0x0000003c       0x3d build/LAN9253_D51_SPI_Beckhoff_mode/production/_ext/108134065/coeappl.o
 .comment       0x0000003c       0x3d build/LAN9253_D51_SPI_Beckhoff_mode/production/_ext/108134065/ecatappl.o
 .comment       0x0000003c       0x3d build/LAN9253_D51_SPI_Beckhoff_mode/production/_ext/108134065/ecatcoe.o
 .comment       0x0000003c       0x3d build/LAN9253_D51_SPI_Beckhoff_mode/production/_ext/108134065/ecatfoe.o
 .comment       0x0000003c       0x3d build/LAN9253_D51_SPI_Beckhoff_mode/production/_ext/108134065/ecatslv.o
 .comment       0x0000003c       0x3d build/LAN9253_D51_SPI_Beckhoff_mode/production/_ext/108134065/emcy.o
 .comment       0x0000003c       0x3d build/LAN9253_D51_SPI_Beckhoff_mode/production/_ext/108134065/foeappl.o
 .comment       0x0000003c       0x3d build/LAN9253_D51_SPI_Beckhoff_mode/production/_ext/108134065/mailbox.o
 .comment       0x0000003c       0x3d build/LAN9253_D51_SPI_Beckhoff_mode/production/_ext/108134065/objdef.o
 .comment       0x0000003c       0x3d build/LAN9253_D51_SPI_Beckhoff_mode/production/_ext/108134065/sample_app.o
 .comment       0x0000003c       0x3d build/LAN9253_D51_SPI_Beckhoff_mode/production/_ext/108134065/sdoserv.o
 .comment       0x0000003c       0x3d build/LAN9253_D51_SPI_Beckhoff_mode/production/_ext/1360937237/main.o
 .comment       0x0000003c       0x3d build/LAN9253_D51_SPI_Beckhoff_mode/production/_ext/1360937237/app.o
 .comment       0x0000003c       0x3d c:/program files (x86)/microchip/xc32/v2.30/bin/bin/../../lib/gcc/pic32c/6.2.1/../../../../pic32c/lib/v7e-m/fpv4-sp/hard\libpic32c.a(data_init.o)
 .comment       0x0000003c       0x3d c:/program files (x86)/microchip/xc32/v2.30/bin/bin/../../lib/gcc/pic32c/6.2.1/../../../../pic32c/lib/v7e-m/fpv4-sp/hard\libc.a(lib_a-init.o)
 .comment       0x0000003c       0x3d c:/program files (x86)/microchip/xc32/v2.30/bin/bin/../../lib/gcc/pic32c/6.2.1/../../../../pic32c/lib/v7e-m/fpv4-sp/hard\libc.a(lib_a-malloc.o)
 .comment       0x0000003c       0x3d c:/program files (x86)/microchip/xc32/v2.30/bin/bin/../../lib/gcc/pic32c/6.2.1/../../../../pic32c/lib/v7e-m/fpv4-sp/hard\libc.a(lib_a-mallocr.o)
 .comment       0x0000003c       0x3d c:/program files (x86)/microchip/xc32/v2.30/bin/bin/../../lib/gcc/pic32c/6.2.1/../../../../pic32c/lib/v7e-m/fpv4-sp/hard\libc.a(lib_a-memcpy-stub.o)
 .comment       0x0000003c       0x3d c:/program files (x86)/microchip/xc32/v2.30/bin/bin/../../lib/gcc/pic32c/6.2.1/../../../../pic32c/lib/v7e-m/fpv4-sp/hard\libc.a(lib_a-memset.o)
 .comment       0x0000003c       0x3d c:/program files (x86)/microchip/xc32/v2.30/bin/bin/../../lib/gcc/pic32c/6.2.1/../../../../pic32c/lib/v7e-m/fpv4-sp/hard\libc.a(lib_a-mlock.o)
 .comment       0x0000003c       0x3d c:/program files (x86)/microchip/xc32/v2.30/bin/bin/../../lib/gcc/pic32c/6.2.1/../../../../pic32c/lib/v7e-m/fpv4-sp/hard\libc.a(lib_a-sbrkr.o)
 .comment       0x0000003c       0x3d c:/program files (x86)/microchip/xc32/v2.30/bin/bin/../../lib/gcc/pic32c/6.2.1/../../../../pic32c/lib/v7e-m/fpv4-sp/hard\libc.a(lib_a-freer.o)
 .comment       0x0000003c       0x3d c:/program files (x86)/microchip/xc32/v2.30/bin/bin/../../lib/gcc/pic32c/6.2.1/../../../../pic32c/lib/v7e-m/fpv4-sp/hard\libc.a(lib_a-impure.o)
 .comment       0x0000003c       0x3d c:/program files (x86)/microchip/xc32/v2.30/bin/bin/../../lib/gcc/pic32c/6.2.1/../../../../pic32c/lib/v7e-m/fpv4-sp/hard\libc.a(lib_a-reent.o)
 .comment       0x0000003c       0x3d c:/program files (x86)/microchip/xc32/v2.30/bin/bin/../../lib/gcc/pic32c/6.2.1/../../../../pic32c/lib/v7e-m/fpv4-sp/hard\libpic32c.a(sbrk.o)

.debug_info     0x00000000    0x50cbe
 .debug_info    0x00000000     0x4c50 build/LAN9253_D51_SPI_Beckhoff_mode/production/_ext/2070931557/drv_spi.o
 .debug_info    0x00004c50      0xb61 build/LAN9253_D51_SPI_Beckhoff_mode/production/_ext/1984496892/plib_clock.o
 .debug_info    0x000057b1     0x2bf9 build/LAN9253_D51_SPI_Beckhoff_mode/production/_ext/1865161661/plib_dmac.o
 .debug_info    0x000083aa      0x7cf build/LAN9253_D51_SPI_Beckhoff_mode/production/_ext/60167341/plib_eic.o
 .debug_info    0x00008b79      0x34a build/LAN9253_D51_SPI_Beckhoff_mode/production/_ext/1986646378/plib_evsys.o
 .debug_info    0x00008ec3     0x10dd build/LAN9253_D51_SPI_Beckhoff_mode/production/_ext/1865468468/plib_nvic.o
 .debug_info    0x00009fa0     0x16aa build/LAN9253_D51_SPI_Beckhoff_mode/production/_ext/1593096446/plib_nvmctrl.o
 .debug_info    0x0000b64a      0x806 build/LAN9253_D51_SPI_Beckhoff_mode/production/_ext/1865521619/plib_port.o
 .debug_info    0x0000be50     0x21ca build/LAN9253_D51_SPI_Beckhoff_mode/production/_ext/1865555181/plib_qspi_spi.o
 .debug_info    0x0000e01a      0x6a5 build/LAN9253_D51_SPI_Beckhoff_mode/production/_ext/1827571544/plib_systick.o
 .debug_info    0x0000e6bf     0x145e build/LAN9253_D51_SPI_Beckhoff_mode/production/_ext/14461671/sys_dma.o
 .debug_info    0x0000fb1d     0x10e3 build/LAN9253_D51_SPI_Beckhoff_mode/production/_ext/1881668453/sys_int.o
 .debug_info    0x00010c00     0x19c3 build/LAN9253_D51_SPI_Beckhoff_mode/production/_ext/1171490990/exceptions.o
 .debug_info    0x000125c3     0x3227 build/LAN9253_D51_SPI_Beckhoff_mode/production/_ext/1171490990/initialization.o
 .debug_info    0x000157ea     0x2c9f build/LAN9253_D51_SPI_Beckhoff_mode/production/_ext/1171490990/interrupts.o
 .debug_info    0x00018489     0x1dcc build/LAN9253_D51_SPI_Beckhoff_mode/production/_ext/1171490990/startup_xc32.o
 .debug_info    0x0001a255     0x18f3 build/LAN9253_D51_SPI_Beckhoff_mode/production/_ext/1171490990/tasks.o
 .debug_info    0x0001bb48     0x3f03 build/LAN9253_D51_SPI_Beckhoff_mode/production/_ext/1671622979/Drivers.o
 .debug_info    0x0001fa4b     0x1b2a build/LAN9253_D51_SPI_Beckhoff_mode/production/_ext/108147519/ESC_Utils.o
 .debug_info    0x00021575     0x27e1 build/LAN9253_D51_SPI_Beckhoff_mode/production/_ext/108147519/LAN925x.o
 .debug_info    0x00023d56     0x123c build/LAN9253_D51_SPI_Beckhoff_mode/production/_ext/108134065/bootmode.o
 .debug_info    0x00024f92     0x33cd build/LAN9253_D51_SPI_Beckhoff_mode/production/_ext/108134065/coeappl.o
 .debug_info    0x0002835f     0x2cb4 build/LAN9253_D51_SPI_Beckhoff_mode/production/_ext/108134065/ecatappl.o
 .debug_info    0x0002b013     0x1654 build/LAN9253_D51_SPI_Beckhoff_mode/production/_ext/108134065/ecatcoe.o
 .debug_info    0x0002c667     0x23c4 build/LAN9253_D51_SPI_Beckhoff_mode/production/_ext/108134065/ecatfoe.o
 .debug_info    0x0002ea2b     0x32c0 build/LAN9253_D51_SPI_Beckhoff_mode/production/_ext/108134065/ecatslv.o
 .debug_info    0x00031ceb     0x244c build/LAN9253_D51_SPI_Beckhoff_mode/production/_ext/108134065/emcy.o
 .debug_info    0x00034137     0x2822 build/LAN9253_D51_SPI_Beckhoff_mode/production/_ext/108134065/foeappl.o
 .debug_info    0x00036959     0x2b09 build/LAN9253_D51_SPI_Beckhoff_mode/production/_ext/108134065/mailbox.o
 .debug_info    0x00039462     0x3117 build/LAN9253_D51_SPI_Beckhoff_mode/production/_ext/108134065/objdef.o
 .debug_info    0x0003c579     0x313e build/LAN9253_D51_SPI_Beckhoff_mode/production/_ext/108134065/sample_app.o
 .debug_info    0x0003f6b7     0x341c build/LAN9253_D51_SPI_Beckhoff_mode/production/_ext/108134065/sdoserv.o
 .debug_info    0x00042ad3     0x18e2 build/LAN9253_D51_SPI_Beckhoff_mode/production/_ext/1360937237/main.o
 .debug_info    0x000443b5     0x2ac1 build/LAN9253_D51_SPI_Beckhoff_mode/production/_ext/1360937237/app.o
 .debug_info    0x00046e76      0x2a2 c:/program files (x86)/microchip/xc32/v2.30/bin/bin/../../lib/gcc/pic32c/6.2.1/../../../../pic32c/lib/v7e-m/fpv4-sp/hard\libpic32c.a(data_init.o)
 .debug_info    0x00047118      0x41a c:/program files (x86)/microchip/xc32/v2.30/bin/bin/../../lib/gcc/pic32c/6.2.1/../../../../pic32c/lib/v7e-m/fpv4-sp/hard\libc.a(lib_a-init.o)
 .debug_info    0x00047532      0xe58 c:/program files (x86)/microchip/xc32/v2.30/bin/bin/../../lib/gcc/pic32c/6.2.1/../../../../pic32c/lib/v7e-m/fpv4-sp/hard\libc.a(lib_a-malloc.o)
 .debug_info    0x0004838a     0x14ca c:/program files (x86)/microchip/xc32/v2.30/bin/bin/../../lib/gcc/pic32c/6.2.1/../../../../pic32c/lib/v7e-m/fpv4-sp/hard\libc.a(lib_a-mallocr.o)
 .debug_info    0x00049854      0xe2e c:/program files (x86)/microchip/xc32/v2.30/bin/bin/../../lib/gcc/pic32c/6.2.1/../../../../pic32c/lib/v7e-m/fpv4-sp/hard\libc.a(lib_a-memcpy-stub.o)
 .debug_info    0x0004a682     0x156f c:/program files (x86)/microchip/xc32/v2.30/bin/bin/../../lib/gcc/pic32c/6.2.1/../../../../pic32c/lib/v7e-m/fpv4-sp/hard\libc.a(lib_a-memset.o)
 .debug_info    0x0004bbf1      0xdf2 c:/program files (x86)/microchip/xc32/v2.30/bin/bin/../../lib/gcc/pic32c/6.2.1/../../../../pic32c/lib/v7e-m/fpv4-sp/hard\libc.a(lib_a-mlock.o)
 .debug_info    0x0004c9e3      0xea5 c:/program files (x86)/microchip/xc32/v2.30/bin/bin/../../lib/gcc/pic32c/6.2.1/../../../../pic32c/lib/v7e-m/fpv4-sp/hard\libc.a(lib_a-sbrkr.o)
 .debug_info    0x0004d888      0x125 c:/program files (x86)/microchip/xc32/v2.30/bin/bin/../../lib/gcc/pic32c/6.2.1/../../../../pic32c/lib/v7e-m/fpv4-sp/hard\libc.a(lib_a-strlen.o)
 .debug_info    0x0004d9ad     0x137d c:/program files (x86)/microchip/xc32/v2.30/bin/bin/../../lib/gcc/pic32c/6.2.1/../../../../pic32c/lib/v7e-m/fpv4-sp/hard\libc.a(lib_a-freer.o)
 .debug_info    0x0004ed2a      0xdb5 c:/program files (x86)/microchip/xc32/v2.30/bin/bin/../../lib/gcc/pic32c/6.2.1/../../../../pic32c/lib/v7e-m/fpv4-sp/hard\libc.a(lib_a-impure.o)
 .debug_info    0x0004fadf      0xf59 c:/program files (x86)/microchip/xc32/v2.30/bin/bin/../../lib/gcc/pic32c/6.2.1/../../../../pic32c/lib/v7e-m/fpv4-sp/hard\libc.a(lib_a-reent.o)
 .debug_info    0x00050a38      0x286 c:/program files (x86)/microchip/xc32/v2.30/bin/bin/../../lib/gcc/pic32c/6.2.1/../../../../pic32c/lib/v7e-m/fpv4-sp/hard\libpic32c.a(sbrk.o)

.debug_abbrev   0x00000000     0x6245
 .debug_abbrev  0x00000000      0x454 build/LAN9253_D51_SPI_Beckhoff_mode/production/_ext/2070931557/drv_spi.o
 .debug_abbrev  0x00000454       0xfd build/LAN9253_D51_SPI_Beckhoff_mode/production/_ext/1984496892/plib_clock.o
 .debug_abbrev  0x00000551      0x345 build/LAN9253_D51_SPI_Beckhoff_mode/production/_ext/1865161661/plib_dmac.o
 .debug_abbrev  0x00000896      0x15d build/LAN9253_D51_SPI_Beckhoff_mode/production/_ext/60167341/plib_eic.o
 .debug_abbrev  0x000009f3       0x5e build/LAN9253_D51_SPI_Beckhoff_mode/production/_ext/1986646378/plib_evsys.o
 .debug_abbrev  0x00000a51      0x14d build/LAN9253_D51_SPI_Beckhoff_mode/production/_ext/1865468468/plib_nvic.o
 .debug_abbrev  0x00000b9e      0x25d build/LAN9253_D51_SPI_Beckhoff_mode/production/_ext/1593096446/plib_nvmctrl.o
 .debug_abbrev  0x00000dfb      0x151 build/LAN9253_D51_SPI_Beckhoff_mode/production/_ext/1865521619/plib_port.o
 .debug_abbrev  0x00000f4c      0x29a build/LAN9253_D51_SPI_Beckhoff_mode/production/_ext/1865555181/plib_qspi_spi.o
 .debug_abbrev  0x000011e6      0x15c build/LAN9253_D51_SPI_Beckhoff_mode/production/_ext/1827571544/plib_systick.o
 .debug_abbrev  0x00001342      0x1e7 build/LAN9253_D51_SPI_Beckhoff_mode/production/_ext/14461671/sys_dma.o
 .debug_abbrev  0x00001529      0x206 build/LAN9253_D51_SPI_Beckhoff_mode/production/_ext/1881668453/sys_int.o
 .debug_abbrev  0x0000172f      0x1d1 build/LAN9253_D51_SPI_Beckhoff_mode/production/_ext/1171490990/exceptions.o
 .debug_abbrev  0x00001900      0x23a build/LAN9253_D51_SPI_Beckhoff_mode/production/_ext/1171490990/initialization.o
 .debug_abbrev  0x00001b3a      0x1d1 build/LAN9253_D51_SPI_Beckhoff_mode/production/_ext/1171490990/interrupts.o
 .debug_abbrev  0x00001d0b      0x2a9 build/LAN9253_D51_SPI_Beckhoff_mode/production/_ext/1171490990/startup_xc32.o
 .debug_abbrev  0x00001fb4      0x1d1 build/LAN9253_D51_SPI_Beckhoff_mode/production/_ext/1171490990/tasks.o
 .debug_abbrev  0x00002185      0x439 build/LAN9253_D51_SPI_Beckhoff_mode/production/_ext/1671622979/Drivers.o
 .debug_abbrev  0x000025be      0x232 build/LAN9253_D51_SPI_Beckhoff_mode/production/_ext/108147519/ESC_Utils.o
 .debug_abbrev  0x000027f0      0x2c3 build/LAN9253_D51_SPI_Beckhoff_mode/production/_ext/108147519/LAN925x.o
 .debug_abbrev  0x00002ab3      0x1f9 build/LAN9253_D51_SPI_Beckhoff_mode/production/_ext/108134065/bootmode.o
 .debug_abbrev  0x00002cac      0x2ea build/LAN9253_D51_SPI_Beckhoff_mode/production/_ext/108134065/coeappl.o
 .debug_abbrev  0x00002f96      0x29c build/LAN9253_D51_SPI_Beckhoff_mode/production/_ext/108134065/ecatappl.o
 .debug_abbrev  0x00003232      0x1ee build/LAN9253_D51_SPI_Beckhoff_mode/production/_ext/108134065/ecatcoe.o
 .debug_abbrev  0x00003420      0x283 build/LAN9253_D51_SPI_Beckhoff_mode/production/_ext/108134065/ecatfoe.o
 .debug_abbrev  0x000036a3      0x2ee build/LAN9253_D51_SPI_Beckhoff_mode/production/_ext/108134065/ecatslv.o
 .debug_abbrev  0x00003991      0x2c7 build/LAN9253_D51_SPI_Beckhoff_mode/production/_ext/108134065/emcy.o
 .debug_abbrev  0x00003c58      0x292 build/LAN9253_D51_SPI_Beckhoff_mode/production/_ext/108134065/foeappl.o
 .debug_abbrev  0x00003eea      0x2ba build/LAN9253_D51_SPI_Beckhoff_mode/production/_ext/108134065/mailbox.o
 .debug_abbrev  0x000041a4      0x2ec build/LAN9253_D51_SPI_Beckhoff_mode/production/_ext/108134065/objdef.o
 .debug_abbrev  0x00004490      0x368 build/LAN9253_D51_SPI_Beckhoff_mode/production/_ext/108134065/sample_app.o
 .debug_abbrev  0x000047f8      0x309 build/LAN9253_D51_SPI_Beckhoff_mode/production/_ext/108134065/sdoserv.o
 .debug_abbrev  0x00004b01      0x1d3 build/LAN9253_D51_SPI_Beckhoff_mode/production/_ext/1360937237/main.o
 .debug_abbrev  0x00004cd4      0x2ab build/LAN9253_D51_SPI_Beckhoff_mode/production/_ext/1360937237/app.o
 .debug_abbrev  0x00004f7f       0x2a c:/program files (x86)/microchip/xc32/v2.30/bin/bin/../../lib/gcc/pic32c/6.2.1/../../../../pic32c/lib/v7e-m/fpv4-sp/hard\libpic32c.a(data_init.o)
 .debug_abbrev  0x00004fa9       0xa3 c:/program files (x86)/microchip/xc32/v2.30/bin/bin/../../lib/gcc/pic32c/6.2.1/../../../../pic32c/lib/v7e-m/fpv4-sp/hard\libc.a(lib_a-init.o)
 .debug_abbrev  0x0000504c      0x1f8 c:/program files (x86)/microchip/xc32/v2.30/bin/bin/../../lib/gcc/pic32c/6.2.1/../../../../pic32c/lib/v7e-m/fpv4-sp/hard\libc.a(lib_a-malloc.o)
 .debug_abbrev  0x00005244      0x29b c:/program files (x86)/microchip/xc32/v2.30/bin/bin/../../lib/gcc/pic32c/6.2.1/../../../../pic32c/lib/v7e-m/fpv4-sp/hard\libc.a(lib_a-mallocr.o)
 .debug_abbrev  0x000054df      0x1c1 c:/program files (x86)/microchip/xc32/v2.30/bin/bin/../../lib/gcc/pic32c/6.2.1/../../../../pic32c/lib/v7e-m/fpv4-sp/hard\libc.a(lib_a-memcpy-stub.o)
 .debug_abbrev  0x000056a0      0x1b5 c:/program files (x86)/microchip/xc32/v2.30/bin/bin/../../lib/gcc/pic32c/6.2.1/../../../../pic32c/lib/v7e-m/fpv4-sp/hard\libc.a(lib_a-memset.o)
 .debug_abbrev  0x00005855      0x1aa c:/program files (x86)/microchip/xc32/v2.30/bin/bin/../../lib/gcc/pic32c/6.2.1/../../../../pic32c/lib/v7e-m/fpv4-sp/hard\libc.a(lib_a-mlock.o)
 .debug_abbrev  0x000059ff      0x1ed c:/program files (x86)/microchip/xc32/v2.30/bin/bin/../../lib/gcc/pic32c/6.2.1/../../../../pic32c/lib/v7e-m/fpv4-sp/hard\libc.a(lib_a-sbrkr.o)
 .debug_abbrev  0x00005bec       0x14 c:/program files (x86)/microchip/xc32/v2.30/bin/bin/../../lib/gcc/pic32c/6.2.1/../../../../pic32c/lib/v7e-m/fpv4-sp/hard\libc.a(lib_a-strlen.o)
 .debug_abbrev  0x00005c00      0x24d c:/program files (x86)/microchip/xc32/v2.30/bin/bin/../../lib/gcc/pic32c/6.2.1/../../../../pic32c/lib/v7e-m/fpv4-sp/hard\libc.a(lib_a-freer.o)
 .debug_abbrev  0x00005e4d      0x176 c:/program files (x86)/microchip/xc32/v2.30/bin/bin/../../lib/gcc/pic32c/6.2.1/../../../../pic32c/lib/v7e-m/fpv4-sp/hard\libc.a(lib_a-impure.o)
 .debug_abbrev  0x00005fc3      0x258 c:/program files (x86)/microchip/xc32/v2.30/bin/bin/../../lib/gcc/pic32c/6.2.1/../../../../pic32c/lib/v7e-m/fpv4-sp/hard\libc.a(lib_a-reent.o)
 .debug_abbrev  0x0000621b       0x2a c:/program files (x86)/microchip/xc32/v2.30/bin/bin/../../lib/gcc/pic32c/6.2.1/../../../../pic32c/lib/v7e-m/fpv4-sp/hard\libpic32c.a(sbrk.o)

.debug_loc      0x00000000     0x7450
 .debug_loc     0x00000000      0xca8 build/LAN9253_D51_SPI_Beckhoff_mode/production/_ext/2070931557/drv_spi.o
 .debug_loc     0x00000ca8      0x208 build/LAN9253_D51_SPI_Beckhoff_mode/production/_ext/1984496892/plib_clock.o
 .debug_loc     0x00000eb0      0x5c4 build/LAN9253_D51_SPI_Beckhoff_mode/production/_ext/1865161661/plib_dmac.o
 .debug_loc     0x00001474      0x1dc build/LAN9253_D51_SPI_Beckhoff_mode/production/_ext/60167341/plib_eic.o
 .debug_loc     0x00001650       0x44 build/LAN9253_D51_SPI_Beckhoff_mode/production/_ext/1986646378/plib_evsys.o
 .debug_loc     0x00001694      0x140 build/LAN9253_D51_SPI_Beckhoff_mode/production/_ext/1865468468/plib_nvic.o
 .debug_loc     0x000017d4      0x5c0 build/LAN9253_D51_SPI_Beckhoff_mode/production/_ext/1593096446/plib_nvmctrl.o
 .debug_loc     0x00001d94      0x324 build/LAN9253_D51_SPI_Beckhoff_mode/production/_ext/1865521619/plib_port.o
 .debug_loc     0x000020b8      0x28c build/LAN9253_D51_SPI_Beckhoff_mode/production/_ext/1865555181/plib_qspi_spi.o
 .debug_loc     0x00002344      0x31c build/LAN9253_D51_SPI_Beckhoff_mode/production/_ext/1827571544/plib_systick.o
 .debug_loc     0x00002660       0xa0 build/LAN9253_D51_SPI_Beckhoff_mode/production/_ext/14461671/sys_dma.o
 .debug_loc     0x00002700      0x2b0 build/LAN9253_D51_SPI_Beckhoff_mode/production/_ext/1881668453/sys_int.o
 .debug_loc     0x000029b0      0x108 build/LAN9253_D51_SPI_Beckhoff_mode/production/_ext/1171490990/exceptions.o
 .debug_loc     0x00002ab8       0x50 build/LAN9253_D51_SPI_Beckhoff_mode/production/_ext/1171490990/initialization.o
 .debug_loc     0x00002b08      0x11c build/LAN9253_D51_SPI_Beckhoff_mode/production/_ext/1171490990/startup_xc32.o
 .debug_loc     0x00002c24       0x2c build/LAN9253_D51_SPI_Beckhoff_mode/production/_ext/1171490990/tasks.o
 .debug_loc     0x00002c50      0xb64 build/LAN9253_D51_SPI_Beckhoff_mode/production/_ext/1671622979/Drivers.o
 .debug_loc     0x000037b4      0x130 build/LAN9253_D51_SPI_Beckhoff_mode/production/_ext/108147519/ESC_Utils.o
 .debug_loc     0x000038e4      0x4b0 build/LAN9253_D51_SPI_Beckhoff_mode/production/_ext/108147519/LAN925x.o
 .debug_loc     0x00003d94      0x158 build/LAN9253_D51_SPI_Beckhoff_mode/production/_ext/108134065/bootmode.o
 .debug_loc     0x00003eec      0x370 build/LAN9253_D51_SPI_Beckhoff_mode/production/_ext/108134065/coeappl.o
 .debug_loc     0x0000425c      0x2e0 build/LAN9253_D51_SPI_Beckhoff_mode/production/_ext/108134065/ecatappl.o
 .debug_loc     0x0000453c       0xe4 build/LAN9253_D51_SPI_Beckhoff_mode/production/_ext/108134065/ecatcoe.o
 .debug_loc     0x00004620       0xe4 build/LAN9253_D51_SPI_Beckhoff_mode/production/_ext/108134065/ecatfoe.o
 .debug_loc     0x00004704      0x682 build/LAN9253_D51_SPI_Beckhoff_mode/production/_ext/108134065/ecatslv.o
 .debug_loc     0x00004d86      0x2f4 build/LAN9253_D51_SPI_Beckhoff_mode/production/_ext/108134065/emcy.o
 .debug_loc     0x0000507a      0x1e0 build/LAN9253_D51_SPI_Beckhoff_mode/production/_ext/108134065/foeappl.o
 .debug_loc     0x0000525a      0x428 build/LAN9253_D51_SPI_Beckhoff_mode/production/_ext/108134065/mailbox.o
 .debug_loc     0x00005682      0x40e build/LAN9253_D51_SPI_Beckhoff_mode/production/_ext/108134065/objdef.o
 .debug_loc     0x00005a90      0x5d4 build/LAN9253_D51_SPI_Beckhoff_mode/production/_ext/108134065/sample_app.o
 .debug_loc     0x00006064      0x210 build/LAN9253_D51_SPI_Beckhoff_mode/production/_ext/108134065/sdoserv.o
 .debug_loc     0x00006274       0x2c build/LAN9253_D51_SPI_Beckhoff_mode/production/_ext/1360937237/main.o
 .debug_loc     0x000062a0      0x148 build/LAN9253_D51_SPI_Beckhoff_mode/production/_ext/1360937237/app.o
 .debug_loc     0x000063e8       0x74 c:/program files (x86)/microchip/xc32/v2.30/bin/bin/../../lib/gcc/pic32c/6.2.1/../../../../pic32c/lib/v7e-m/fpv4-sp/hard\libc.a(lib_a-init.o)
 .debug_loc     0x0000645c       0x58 c:/program files (x86)/microchip/xc32/v2.30/bin/bin/../../lib/gcc/pic32c/6.2.1/../../../../pic32c/lib/v7e-m/fpv4-sp/hard\libc.a(lib_a-malloc.o)
 .debug_loc     0x000064b4      0x875 c:/program files (x86)/microchip/xc32/v2.30/bin/bin/../../lib/gcc/pic32c/6.2.1/../../../../pic32c/lib/v7e-m/fpv4-sp/hard\libc.a(lib_a-mallocr.o)
 .debug_loc     0x00006d29       0xb2 c:/program files (x86)/microchip/xc32/v2.30/bin/bin/../../lib/gcc/pic32c/6.2.1/../../../../pic32c/lib/v7e-m/fpv4-sp/hard\libc.a(lib_a-memcpy-stub.o)
 .debug_loc     0x00006ddb       0x4c c:/program files (x86)/microchip/xc32/v2.30/bin/bin/../../lib/gcc/pic32c/6.2.1/../../../../pic32c/lib/v7e-m/fpv4-sp/hard\libc.a(lib_a-memset.o)
 .debug_loc     0x00006e27       0x6d c:/program files (x86)/microchip/xc32/v2.30/bin/bin/../../lib/gcc/pic32c/6.2.1/../../../../pic32c/lib/v7e-m/fpv4-sp/hard\libc.a(lib_a-sbrkr.o)
 .debug_loc     0x00006e94      0x42d c:/program files (x86)/microchip/xc32/v2.30/bin/bin/../../lib/gcc/pic32c/6.2.1/../../../../pic32c/lib/v7e-m/fpv4-sp/hard\libc.a(lib_a-freer.o)
 .debug_loc     0x000072c1      0x18f c:/program files (x86)/microchip/xc32/v2.30/bin/bin/../../lib/gcc/pic32c/6.2.1/../../../../pic32c/lib/v7e-m/fpv4-sp/hard\libc.a(lib_a-reent.o)

.debug_aranges  0x00000000      0xf48
 .debug_aranges
                0x00000000      0x150 build/LAN9253_D51_SPI_Beckhoff_mode/production/_ext/2070931557/drv_spi.o
 .debug_aranges
                0x00000150       0x58 build/LAN9253_D51_SPI_Beckhoff_mode/production/_ext/1984496892/plib_clock.o
 .debug_aranges
                0x000001a8       0xa8 build/LAN9253_D51_SPI_Beckhoff_mode/production/_ext/1865161661/plib_dmac.o
 .debug_aranges
                0x00000250       0x50 build/LAN9253_D51_SPI_Beckhoff_mode/production/_ext/60167341/plib_eic.o
 .debug_aranges
                0x000002a0       0x20 build/LAN9253_D51_SPI_Beckhoff_mode/production/_ext/1986646378/plib_evsys.o
 .debug_aranges
                0x000002c0       0x38 build/LAN9253_D51_SPI_Beckhoff_mode/production/_ext/1865468468/plib_nvic.o
 .debug_aranges
                0x000002f8       0xb0 build/LAN9253_D51_SPI_Beckhoff_mode/production/_ext/1593096446/plib_nvmctrl.o
 .debug_aranges
                0x000003a8       0x60 build/LAN9253_D51_SPI_Beckhoff_mode/production/_ext/1865521619/plib_port.o
 .debug_aranges
                0x00000408       0x58 build/LAN9253_D51_SPI_Beckhoff_mode/production/_ext/1865555181/plib_qspi_spi.o
 .debug_aranges
                0x00000460       0x70 build/LAN9253_D51_SPI_Beckhoff_mode/production/_ext/1827571544/plib_systick.o
 .debug_aranges
                0x000004d0       0x28 build/LAN9253_D51_SPI_Beckhoff_mode/production/_ext/14461671/sys_dma.o
 .debug_aranges
                0x000004f8       0x58 build/LAN9253_D51_SPI_Beckhoff_mode/production/_ext/1881668453/sys_int.o
 .debug_aranges
                0x00000550       0x48 build/LAN9253_D51_SPI_Beckhoff_mode/production/_ext/1171490990/exceptions.o
 .debug_aranges
                0x00000598       0x20 build/LAN9253_D51_SPI_Beckhoff_mode/production/_ext/1171490990/initialization.o
 .debug_aranges
                0x000005b8       0x20 build/LAN9253_D51_SPI_Beckhoff_mode/production/_ext/1171490990/interrupts.o
 .debug_aranges
                0x000005d8       0x38 build/LAN9253_D51_SPI_Beckhoff_mode/production/_ext/1171490990/startup_xc32.o
 .debug_aranges
                0x00000610       0x20 build/LAN9253_D51_SPI_Beckhoff_mode/production/_ext/1171490990/tasks.o
 .debug_aranges
                0x00000630      0x150 build/LAN9253_D51_SPI_Beckhoff_mode/production/_ext/1671622979/Drivers.o
 .debug_aranges
                0x00000780       0x40 build/LAN9253_D51_SPI_Beckhoff_mode/production/_ext/108147519/ESC_Utils.o
 .debug_aranges
                0x000007c0       0x90 build/LAN9253_D51_SPI_Beckhoff_mode/production/_ext/108147519/LAN925x.o
 .debug_aranges
                0x00000850       0x38 build/LAN9253_D51_SPI_Beckhoff_mode/production/_ext/108134065/bootmode.o
 .debug_aranges
                0x00000888       0x70 build/LAN9253_D51_SPI_Beckhoff_mode/production/_ext/108134065/coeappl.o
 .debug_aranges
                0x000008f8       0x70 build/LAN9253_D51_SPI_Beckhoff_mode/production/_ext/108134065/ecatappl.o
 .debug_aranges
                0x00000968       0x30 build/LAN9253_D51_SPI_Beckhoff_mode/production/_ext/108134065/ecatcoe.o
 .debug_aranges
                0x00000998       0x30 build/LAN9253_D51_SPI_Beckhoff_mode/production/_ext/108134065/ecatfoe.o
 .debug_aranges
                0x000009c8       0xc8 build/LAN9253_D51_SPI_Beckhoff_mode/production/_ext/108134065/ecatslv.o
 .debug_aranges
                0x00000a90       0x60 build/LAN9253_D51_SPI_Beckhoff_mode/production/_ext/108134065/emcy.o
 .debug_aranges
                0x00000af0       0x48 build/LAN9253_D51_SPI_Beckhoff_mode/production/_ext/108134065/foeappl.o
 .debug_aranges
                0x00000b38       0x80 build/LAN9253_D51_SPI_Beckhoff_mode/production/_ext/108134065/mailbox.o
 .debug_aranges
                0x00000bb8       0x78 build/LAN9253_D51_SPI_Beckhoff_mode/production/_ext/108134065/objdef.o
 .debug_aranges
                0x00000c30       0xb8 build/LAN9253_D51_SPI_Beckhoff_mode/production/_ext/108134065/sample_app.o
 .debug_aranges
                0x00000ce8       0x50 build/LAN9253_D51_SPI_Beckhoff_mode/production/_ext/108134065/sdoserv.o
 .debug_aranges
                0x00000d38       0x20 build/LAN9253_D51_SPI_Beckhoff_mode/production/_ext/1360937237/main.o
 .debug_aranges
                0x00000d58       0x40 build/LAN9253_D51_SPI_Beckhoff_mode/production/_ext/1360937237/app.o
 .debug_aranges
                0x00000d98       0x20 c:/program files (x86)/microchip/xc32/v2.30/bin/bin/../../lib/gcc/pic32c/6.2.1/../../../../pic32c/lib/v7e-m/fpv4-sp/hard\libpic32c.a(data_init.o)
 .debug_aranges
                0x00000db8       0x20 c:/program files (x86)/microchip/xc32/v2.30/bin/bin/../../lib/gcc/pic32c/6.2.1/../../../../pic32c/lib/v7e-m/fpv4-sp/hard\libc.a(lib_a-init.o)
 .debug_aranges
                0x00000dd8       0x28 c:/program files (x86)/microchip/xc32/v2.30/bin/bin/../../lib/gcc/pic32c/6.2.1/../../../../pic32c/lib/v7e-m/fpv4-sp/hard\libc.a(lib_a-malloc.o)
 .debug_aranges
                0x00000e00       0x20 c:/program files (x86)/microchip/xc32/v2.30/bin/bin/../../lib/gcc/pic32c/6.2.1/../../../../pic32c/lib/v7e-m/fpv4-sp/hard\libc.a(lib_a-mallocr.o)
 .debug_aranges
                0x00000e20       0x20 c:/program files (x86)/microchip/xc32/v2.30/bin/bin/../../lib/gcc/pic32c/6.2.1/../../../../pic32c/lib/v7e-m/fpv4-sp/hard\libc.a(lib_a-memcpy-stub.o)
 .debug_aranges
                0x00000e40       0x20 c:/program files (x86)/microchip/xc32/v2.30/bin/bin/../../lib/gcc/pic32c/6.2.1/../../../../pic32c/lib/v7e-m/fpv4-sp/hard\libc.a(lib_a-memset.o)
 .debug_aranges
                0x00000e60       0x20 c:/program files (x86)/microchip/xc32/v2.30/bin/bin/../../lib/gcc/pic32c/6.2.1/../../../../pic32c/lib/v7e-m/fpv4-sp/hard\libc.a(lib_a-mlock.o)
 .debug_aranges
                0x00000e80       0x20 c:/program files (x86)/microchip/xc32/v2.30/bin/bin/../../lib/gcc/pic32c/6.2.1/../../../../pic32c/lib/v7e-m/fpv4-sp/hard\libc.a(lib_a-sbrkr.o)
 .debug_aranges
                0x00000ea0       0x20 c:/program files (x86)/microchip/xc32/v2.30/bin/bin/../../lib/gcc/pic32c/6.2.1/../../../../pic32c/lib/v7e-m/fpv4-sp/hard\libc.a(lib_a-strlen.o)
 .debug_aranges
                0x00000ec0       0x28 c:/program files (x86)/microchip/xc32/v2.30/bin/bin/../../lib/gcc/pic32c/6.2.1/../../../../pic32c/lib/v7e-m/fpv4-sp/hard\libc.a(lib_a-freer.o)
 .debug_aranges
                0x00000ee8       0x18 c:/program files (x86)/microchip/xc32/v2.30/bin/bin/../../lib/gcc/pic32c/6.2.1/../../../../pic32c/lib/v7e-m/fpv4-sp/hard\libc.a(lib_a-impure.o)
 .debug_aranges
                0x00000f00       0x28 c:/program files (x86)/microchip/xc32/v2.30/bin/bin/../../lib/gcc/pic32c/6.2.1/../../../../pic32c/lib/v7e-m/fpv4-sp/hard\libc.a(lib_a-reent.o)
 .debug_aranges
                0x00000f28       0x20 c:/program files (x86)/microchip/xc32/v2.30/bin/bin/../../lib/gcc/pic32c/6.2.1/../../../../pic32c/lib/v7e-m/fpv4-sp/hard\libpic32c.a(sbrk.o)

.debug_ranges   0x00000000      0xd58
 .debug_ranges  0x00000000      0x140 build/LAN9253_D51_SPI_Beckhoff_mode/production/_ext/2070931557/drv_spi.o
 .debug_ranges  0x00000140       0x48 build/LAN9253_D51_SPI_Beckhoff_mode/production/_ext/1984496892/plib_clock.o
 .debug_ranges  0x00000188       0x98 build/LAN9253_D51_SPI_Beckhoff_mode/production/_ext/1865161661/plib_dmac.o
 .debug_ranges  0x00000220       0x40 build/LAN9253_D51_SPI_Beckhoff_mode/production/_ext/60167341/plib_eic.o
 .debug_ranges  0x00000260       0x10 build/LAN9253_D51_SPI_Beckhoff_mode/production/_ext/1986646378/plib_evsys.o
 .debug_ranges  0x00000270       0x28 build/LAN9253_D51_SPI_Beckhoff_mode/production/_ext/1865468468/plib_nvic.o
 .debug_ranges  0x00000298       0xa0 build/LAN9253_D51_SPI_Beckhoff_mode/production/_ext/1593096446/plib_nvmctrl.o
 .debug_ranges  0x00000338       0x50 build/LAN9253_D51_SPI_Beckhoff_mode/production/_ext/1865521619/plib_port.o
 .debug_ranges  0x00000388       0x48 build/LAN9253_D51_SPI_Beckhoff_mode/production/_ext/1865555181/plib_qspi_spi.o
 .debug_ranges  0x000003d0       0x60 build/LAN9253_D51_SPI_Beckhoff_mode/production/_ext/1827571544/plib_systick.o
 .debug_ranges  0x00000430       0x18 build/LAN9253_D51_SPI_Beckhoff_mode/production/_ext/14461671/sys_dma.o
 .debug_ranges  0x00000448       0x48 build/LAN9253_D51_SPI_Beckhoff_mode/production/_ext/1881668453/sys_int.o
 .debug_ranges  0x00000490       0x38 build/LAN9253_D51_SPI_Beckhoff_mode/production/_ext/1171490990/exceptions.o
 .debug_ranges  0x000004c8       0x10 build/LAN9253_D51_SPI_Beckhoff_mode/production/_ext/1171490990/initialization.o
 .debug_ranges  0x000004d8       0x10 build/LAN9253_D51_SPI_Beckhoff_mode/production/_ext/1171490990/interrupts.o
 .debug_ranges  0x000004e8       0x28 build/LAN9253_D51_SPI_Beckhoff_mode/production/_ext/1171490990/startup_xc32.o
 .debug_ranges  0x00000510       0x10 build/LAN9253_D51_SPI_Beckhoff_mode/production/_ext/1171490990/tasks.o
 .debug_ranges  0x00000520      0x140 build/LAN9253_D51_SPI_Beckhoff_mode/production/_ext/1671622979/Drivers.o
 .debug_ranges  0x00000660       0x30 build/LAN9253_D51_SPI_Beckhoff_mode/production/_ext/108147519/ESC_Utils.o
 .debug_ranges  0x00000690       0x80 build/LAN9253_D51_SPI_Beckhoff_mode/production/_ext/108147519/LAN925x.o
 .debug_ranges  0x00000710       0x28 build/LAN9253_D51_SPI_Beckhoff_mode/production/_ext/108134065/bootmode.o
 .debug_ranges  0x00000738       0x78 build/LAN9253_D51_SPI_Beckhoff_mode/production/_ext/108134065/coeappl.o
 .debug_ranges  0x000007b0       0x78 build/LAN9253_D51_SPI_Beckhoff_mode/production/_ext/108134065/ecatappl.o
 .debug_ranges  0x00000828       0x20 build/LAN9253_D51_SPI_Beckhoff_mode/production/_ext/108134065/ecatcoe.o
 .debug_ranges  0x00000848       0x80 build/LAN9253_D51_SPI_Beckhoff_mode/production/_ext/108134065/ecatfoe.o
 .debug_ranges  0x000008c8       0xb8 build/LAN9253_D51_SPI_Beckhoff_mode/production/_ext/108134065/ecatslv.o
 .debug_ranges  0x00000980       0x50 build/LAN9253_D51_SPI_Beckhoff_mode/production/_ext/108134065/emcy.o
 .debug_ranges  0x000009d0       0x38 build/LAN9253_D51_SPI_Beckhoff_mode/production/_ext/108134065/foeappl.o
 .debug_ranges  0x00000a08       0x70 build/LAN9253_D51_SPI_Beckhoff_mode/production/_ext/108134065/mailbox.o
 .debug_ranges  0x00000a78       0x80 build/LAN9253_D51_SPI_Beckhoff_mode/production/_ext/108134065/objdef.o
 .debug_ranges  0x00000af8       0xa8 build/LAN9253_D51_SPI_Beckhoff_mode/production/_ext/108134065/sample_app.o
 .debug_ranges  0x00000ba0       0x68 build/LAN9253_D51_SPI_Beckhoff_mode/production/_ext/108134065/sdoserv.o
 .debug_ranges  0x00000c08       0x10 build/LAN9253_D51_SPI_Beckhoff_mode/production/_ext/1360937237/main.o
 .debug_ranges  0x00000c18       0x30 build/LAN9253_D51_SPI_Beckhoff_mode/production/_ext/1360937237/app.o
 .debug_ranges  0x00000c48       0x10 c:/program files (x86)/microchip/xc32/v2.30/bin/bin/../../lib/gcc/pic32c/6.2.1/../../../../pic32c/lib/v7e-m/fpv4-sp/hard\libpic32c.a(data_init.o)
 .debug_ranges  0x00000c58       0x10 c:/program files (x86)/microchip/xc32/v2.30/bin/bin/../../lib/gcc/pic32c/6.2.1/../../../../pic32c/lib/v7e-m/fpv4-sp/hard\libc.a(lib_a-init.o)
 .debug_ranges  0x00000c68       0x18 c:/program files (x86)/microchip/xc32/v2.30/bin/bin/../../lib/gcc/pic32c/6.2.1/../../../../pic32c/lib/v7e-m/fpv4-sp/hard\libc.a(lib_a-malloc.o)
 .debug_ranges  0x00000c80       0x28 c:/program files (x86)/microchip/xc32/v2.30/bin/bin/../../lib/gcc/pic32c/6.2.1/../../../../pic32c/lib/v7e-m/fpv4-sp/hard\libc.a(lib_a-mallocr.o)
 .debug_ranges  0x00000ca8       0x10 c:/program files (x86)/microchip/xc32/v2.30/bin/bin/../../lib/gcc/pic32c/6.2.1/../../../../pic32c/lib/v7e-m/fpv4-sp/hard\libc.a(lib_a-memcpy-stub.o)
 .debug_ranges  0x00000cb8       0x10 c:/program files (x86)/microchip/xc32/v2.30/bin/bin/../../lib/gcc/pic32c/6.2.1/../../../../pic32c/lib/v7e-m/fpv4-sp/hard\libc.a(lib_a-memset.o)
 .debug_ranges  0x00000cc8       0x10 c:/program files (x86)/microchip/xc32/v2.30/bin/bin/../../lib/gcc/pic32c/6.2.1/../../../../pic32c/lib/v7e-m/fpv4-sp/hard\libc.a(lib_a-mlock.o)
 .debug_ranges  0x00000cd8       0x10 c:/program files (x86)/microchip/xc32/v2.30/bin/bin/../../lib/gcc/pic32c/6.2.1/../../../../pic32c/lib/v7e-m/fpv4-sp/hard\libc.a(lib_a-sbrkr.o)
 .debug_ranges  0x00000ce8       0x18 c:/program files (x86)/microchip/xc32/v2.30/bin/bin/../../lib/gcc/pic32c/6.2.1/../../../../pic32c/lib/v7e-m/fpv4-sp/hard\libc.a(lib_a-freer.o)
 .debug_ranges  0x00000d00       0x48 c:/program files (x86)/microchip/xc32/v2.30/bin/bin/../../lib/gcc/pic32c/6.2.1/../../../../pic32c/lib/v7e-m/fpv4-sp/hard\libc.a(lib_a-reent.o)
 .debug_ranges  0x00000d48       0x10 c:/program files (x86)/microchip/xc32/v2.30/bin/bin/../../lib/gcc/pic32c/6.2.1/../../../../pic32c/lib/v7e-m/fpv4-sp/hard\libpic32c.a(sbrk.o)

.debug_line     0x00000000     0xa93c
 .debug_line    0x00000000      0xaf1 build/LAN9253_D51_SPI_Beckhoff_mode/production/_ext/2070931557/drv_spi.o
 .debug_line    0x00000af1      0x246 build/LAN9253_D51_SPI_Beckhoff_mode/production/_ext/1984496892/plib_clock.o
 .debug_line    0x00000d37      0x588 build/LAN9253_D51_SPI_Beckhoff_mode/production/_ext/1865161661/plib_dmac.o
 .debug_line    0x000012bf      0x20e build/LAN9253_D51_SPI_Beckhoff_mode/production/_ext/60167341/plib_eic.o
 .debug_line    0x000014cd      0x13b build/LAN9253_D51_SPI_Beckhoff_mode/production/_ext/1986646378/plib_evsys.o
 .debug_line    0x00001608      0x1da build/LAN9253_D51_SPI_Beckhoff_mode/production/_ext/1865468468/plib_nvic.o
 .debug_line    0x000017e2      0x379 build/LAN9253_D51_SPI_Beckhoff_mode/production/_ext/1593096446/plib_nvmctrl.o
 .debug_line    0x00001b5b      0x219 build/LAN9253_D51_SPI_Beckhoff_mode/production/_ext/1865521619/plib_port.o
 .debug_line    0x00001d74      0x4b0 build/LAN9253_D51_SPI_Beckhoff_mode/production/_ext/1865555181/plib_qspi_spi.o
 .debug_line    0x00002224      0x216 build/LAN9253_D51_SPI_Beckhoff_mode/production/_ext/1827571544/plib_systick.o
 .debug_line    0x0000243a      0x203 build/LAN9253_D51_SPI_Beckhoff_mode/production/_ext/14461671/sys_dma.o
 .debug_line    0x0000263d      0x291 build/LAN9253_D51_SPI_Beckhoff_mode/production/_ext/1881668453/sys_int.o
 .debug_line    0x000028ce      0x39e build/LAN9253_D51_SPI_Beckhoff_mode/production/_ext/1171490990/exceptions.o
 .debug_line    0x00002c6c      0x421 build/LAN9253_D51_SPI_Beckhoff_mode/production/_ext/1171490990/initialization.o
 .debug_line    0x0000308d      0x379 build/LAN9253_D51_SPI_Beckhoff_mode/production/_ext/1171490990/interrupts.o
 .debug_line    0x00003406      0x407 build/LAN9253_D51_SPI_Beckhoff_mode/production/_ext/1171490990/startup_xc32.o
 .debug_line    0x0000380d      0x348 build/LAN9253_D51_SPI_Beckhoff_mode/production/_ext/1171490990/tasks.o
 .debug_line    0x00003b55      0x8d4 build/LAN9253_D51_SPI_Beckhoff_mode/production/_ext/1671622979/Drivers.o
 .debug_line    0x00004429      0x402 build/LAN9253_D51_SPI_Beckhoff_mode/production/_ext/108147519/ESC_Utils.o
 .debug_line    0x0000482b      0x594 build/LAN9253_D51_SPI_Beckhoff_mode/production/_ext/108147519/LAN925x.o
 .debug_line    0x00004dbf      0x19b build/LAN9253_D51_SPI_Beckhoff_mode/production/_ext/108134065/bootmode.o
 .debug_line    0x00004f5a      0x50c build/LAN9253_D51_SPI_Beckhoff_mode/production/_ext/108134065/coeappl.o
 .debug_line    0x00005466      0x56e build/LAN9253_D51_SPI_Beckhoff_mode/production/_ext/108134065/ecatappl.o
 .debug_line    0x000059d4      0x1b0 build/LAN9253_D51_SPI_Beckhoff_mode/production/_ext/108134065/ecatcoe.o
 .debug_line    0x00005b84      0x42c build/LAN9253_D51_SPI_Beckhoff_mode/production/_ext/108134065/ecatfoe.o
 .debug_line    0x00005fb0      0x9b3 build/LAN9253_D51_SPI_Beckhoff_mode/production/_ext/108134065/ecatslv.o
 .debug_line    0x00006963      0x448 build/LAN9253_D51_SPI_Beckhoff_mode/production/_ext/108134065/emcy.o
 .debug_line    0x00006dab      0x414 build/LAN9253_D51_SPI_Beckhoff_mode/production/_ext/108134065/foeappl.o
 .debug_line    0x000071bf      0x596 build/LAN9253_D51_SPI_Beckhoff_mode/production/_ext/108134065/mailbox.o
 .debug_line    0x00007755      0x71c build/LAN9253_D51_SPI_Beckhoff_mode/production/_ext/108134065/objdef.o
 .debug_line    0x00007e71      0x5ac build/LAN9253_D51_SPI_Beckhoff_mode/production/_ext/108134065/sample_app.o
 .debug_line    0x0000841d      0x5fa build/LAN9253_D51_SPI_Beckhoff_mode/production/_ext/108134065/sdoserv.o
 .debug_line    0x00008a17      0x34b build/LAN9253_D51_SPI_Beckhoff_mode/production/_ext/1360937237/main.o
 .debug_line    0x00008d62      0x46c build/LAN9253_D51_SPI_Beckhoff_mode/production/_ext/1360937237/app.o
 .debug_line    0x000091ce       0xd8 c:/program files (x86)/microchip/xc32/v2.30/bin/bin/../../lib/gcc/pic32c/6.2.1/../../../../pic32c/lib/v7e-m/fpv4-sp/hard\libpic32c.a(data_init.o)
 .debug_line    0x000092a6      0x11d c:/program files (x86)/microchip/xc32/v2.30/bin/bin/../../lib/gcc/pic32c/6.2.1/../../../../pic32c/lib/v7e-m/fpv4-sp/hard\libc.a(lib_a-init.o)
 .debug_line    0x000093c3      0x21e c:/program files (x86)/microchip/xc32/v2.30/bin/bin/../../lib/gcc/pic32c/6.2.1/../../../../pic32c/lib/v7e-m/fpv4-sp/hard\libc.a(lib_a-malloc.o)
 .debug_line    0x000095e1      0x347 c:/program files (x86)/microchip/xc32/v2.30/bin/bin/../../lib/gcc/pic32c/6.2.1/../../../../pic32c/lib/v7e-m/fpv4-sp/hard\libc.a(lib_a-mallocr.o)
 .debug_line    0x00009928      0x218 c:/program files (x86)/microchip/xc32/v2.30/bin/bin/../../lib/gcc/pic32c/6.2.1/../../../../pic32c/lib/v7e-m/fpv4-sp/hard\libc.a(lib_a-memcpy-stub.o)
 .debug_line    0x00009b40      0x2ae c:/program files (x86)/microchip/xc32/v2.30/bin/bin/../../lib/gcc/pic32c/6.2.1/../../../../pic32c/lib/v7e-m/fpv4-sp/hard\libc.a(lib_a-memset.o)
 .debug_line    0x00009dee      0x18d c:/program files (x86)/microchip/xc32/v2.30/bin/bin/../../lib/gcc/pic32c/6.2.1/../../../../pic32c/lib/v7e-m/fpv4-sp/hard\libc.a(lib_a-mlock.o)
 .debug_line    0x00009f7b      0x212 c:/program files (x86)/microchip/xc32/v2.30/bin/bin/../../lib/gcc/pic32c/6.2.1/../../../../pic32c/lib/v7e-m/fpv4-sp/hard\libc.a(lib_a-sbrkr.o)
 .debug_line    0x0000a18d       0xb1 c:/program files (x86)/microchip/xc32/v2.30/bin/bin/../../lib/gcc/pic32c/6.2.1/../../../../pic32c/lib/v7e-m/fpv4-sp/hard\libc.a(lib_a-strlen.o)
 .debug_line    0x0000a23e      0x2a1 c:/program files (x86)/microchip/xc32/v2.30/bin/bin/../../lib/gcc/pic32c/6.2.1/../../../../pic32c/lib/v7e-m/fpv4-sp/hard\libc.a(lib_a-freer.o)
 .debug_line    0x0000a4df      0x17e c:/program files (x86)/microchip/xc32/v2.30/bin/bin/../../lib/gcc/pic32c/6.2.1/../../../../pic32c/lib/v7e-m/fpv4-sp/hard\libc.a(lib_a-impure.o)
 .debug_line    0x0000a65d      0x23d c:/program files (x86)/microchip/xc32/v2.30/bin/bin/../../lib/gcc/pic32c/6.2.1/../../../../pic32c/lib/v7e-m/fpv4-sp/hard\libc.a(lib_a-reent.o)
 .debug_line    0x0000a89a       0xa2 c:/program files (x86)/microchip/xc32/v2.30/bin/bin/../../lib/gcc/pic32c/6.2.1/../../../../pic32c/lib/v7e-m/fpv4-sp/hard\libpic32c.a(sbrk.o)

.debug_str      0x00000000      0xa15
 .debug_str     0x00000000      0x192 build/LAN9253_D51_SPI_Beckhoff_mode/production/_ext/2070931557/drv_spi.o
 .debug_str     0x00000192       0x1e build/LAN9253_D51_SPI_Beckhoff_mode/production/_ext/1984496892/plib_clock.o
 .debug_str     0x000001b0       0x5a build/LAN9253_D51_SPI_Beckhoff_mode/production/_ext/1865161661/plib_dmac.o
 .debug_str     0x0000020a        0x9 build/LAN9253_D51_SPI_Beckhoff_mode/production/_ext/60167341/plib_eic.o
 .debug_str     0x00000213        0x0 build/LAN9253_D51_SPI_Beckhoff_mode/production/_ext/1986646378/plib_evsys.o
 .debug_str     0x00000213        0xa build/LAN9253_D51_SPI_Beckhoff_mode/production/_ext/1865468468/plib_nvic.o
 .debug_str     0x0000021d       0x29 build/LAN9253_D51_SPI_Beckhoff_mode/production/_ext/1593096446/plib_nvmctrl.o
 .debug_str     0x00000246        0xb build/LAN9253_D51_SPI_Beckhoff_mode/production/_ext/1865521619/plib_port.o
 .debug_str     0x00000251       0x62 build/LAN9253_D51_SPI_Beckhoff_mode/production/_ext/1865555181/plib_qspi_spi.o
 .debug_str     0x000002b3        0x9 build/LAN9253_D51_SPI_Beckhoff_mode/production/_ext/1827571544/plib_systick.o
 .debug_str     0x000002bc        0xe build/LAN9253_D51_SPI_Beckhoff_mode/production/_ext/14461671/sys_dma.o
 .debug_str     0x000002ca       0x10 build/LAN9253_D51_SPI_Beckhoff_mode/production/_ext/1881668453/sys_int.o
 .debug_str     0x000002da        0xe build/LAN9253_D51_SPI_Beckhoff_mode/production/_ext/1171490990/exceptions.o
 .debug_str     0x000002e8       0x1b build/LAN9253_D51_SPI_Beckhoff_mode/production/_ext/1171490990/initialization.o
 .debug_str     0x00000303        0xe build/LAN9253_D51_SPI_Beckhoff_mode/production/_ext/1171490990/interrupts.o
 .debug_str     0x00000311        0xe build/LAN9253_D51_SPI_Beckhoff_mode/production/_ext/1171490990/startup_xc32.o
 .debug_str     0x0000031f        0xe build/LAN9253_D51_SPI_Beckhoff_mode/production/_ext/1171490990/tasks.o
 .debug_str     0x0000032d       0xbd build/LAN9253_D51_SPI_Beckhoff_mode/production/_ext/1671622979/Drivers.o
 .debug_str     0x000003ea        0xe build/LAN9253_D51_SPI_Beckhoff_mode/production/_ext/108147519/ESC_Utils.o
 .debug_str     0x000003f8       0x55 build/LAN9253_D51_SPI_Beckhoff_mode/production/_ext/108147519/LAN925x.o
 .debug_str     0x0000044d        0xe build/LAN9253_D51_SPI_Beckhoff_mode/production/_ext/108134065/bootmode.o
 .debug_str     0x0000045b       0x48 build/LAN9253_D51_SPI_Beckhoff_mode/production/_ext/108134065/coeappl.o
 .debug_str     0x000004a3       0x42 build/LAN9253_D51_SPI_Beckhoff_mode/production/_ext/108134065/ecatappl.o
 .debug_str     0x000004e5       0x35 build/LAN9253_D51_SPI_Beckhoff_mode/production/_ext/108134065/ecatcoe.o
 .debug_str     0x0000051a       0x24 build/LAN9253_D51_SPI_Beckhoff_mode/production/_ext/108134065/ecatfoe.o
 .debug_str     0x0000053e       0x6b build/LAN9253_D51_SPI_Beckhoff_mode/production/_ext/108134065/ecatslv.o
 .debug_str     0x000005a9       0x2d build/LAN9253_D51_SPI_Beckhoff_mode/production/_ext/108134065/emcy.o
 .debug_str     0x000005d6       0x31 build/LAN9253_D51_SPI_Beckhoff_mode/production/_ext/108134065/foeappl.o
 .debug_str     0x00000607       0x50 build/LAN9253_D51_SPI_Beckhoff_mode/production/_ext/108134065/mailbox.o
 .debug_str     0x00000657       0xa5 build/LAN9253_D51_SPI_Beckhoff_mode/production/_ext/108134065/objdef.o
 .debug_str     0x000006fc       0x5c build/LAN9253_D51_SPI_Beckhoff_mode/production/_ext/108134065/sample_app.o
 .debug_str     0x00000758       0xa8 build/LAN9253_D51_SPI_Beckhoff_mode/production/_ext/108134065/sdoserv.o
 .debug_str     0x00000800        0xe build/LAN9253_D51_SPI_Beckhoff_mode/production/_ext/1360937237/main.o
 .debug_str     0x0000080e       0x24 build/LAN9253_D51_SPI_Beckhoff_mode/production/_ext/1360937237/app.o
 .debug_str     0x00000832        0x0 c:/program files (x86)/microchip/xc32/v2.30/bin/bin/../../lib/gcc/pic32c/6.2.1/../../../../pic32c/lib/v7e-m/fpv4-sp/hard\libpic32c.a(data_init.o)
 .debug_str     0x00000832        0x0 c:/program files (x86)/microchip/xc32/v2.30/bin/bin/../../lib/gcc/pic32c/6.2.1/../../../../pic32c/lib/v7e-m/fpv4-sp/hard\libc.a(lib_a-init.o)
 .debug_str     0x00000832       0x18 c:/program files (x86)/microchip/xc32/v2.30/bin/bin/../../lib/gcc/pic32c/6.2.1/../../../../pic32c/lib/v7e-m/fpv4-sp/hard\libc.a(lib_a-malloc.o)
 .debug_str     0x0000084a       0x36 c:/program files (x86)/microchip/xc32/v2.30/bin/bin/../../lib/gcc/pic32c/6.2.1/../../../../pic32c/lib/v7e-m/fpv4-sp/hard\libc.a(lib_a-mallocr.o)
 .debug_str     0x00000880        0xe c:/program files (x86)/microchip/xc32/v2.30/bin/bin/../../lib/gcc/pic32c/6.2.1/../../../../pic32c/lib/v7e-m/fpv4-sp/hard\libc.a(lib_a-memcpy-stub.o)
 .debug_str     0x0000088e      0x119 c:/program files (x86)/microchip/xc32/v2.30/bin/bin/../../lib/gcc/pic32c/6.2.1/../../../../pic32c/lib/v7e-m/fpv4-sp/hard\libc.a(lib_a-memset.o)
 .debug_str     0x000009a7        0xe c:/program files (x86)/microchip/xc32/v2.30/bin/bin/../../lib/gcc/pic32c/6.2.1/../../../../pic32c/lib/v7e-m/fpv4-sp/hard\libc.a(lib_a-mlock.o)
 .debug_str     0x000009b5        0xe c:/program files (x86)/microchip/xc32/v2.30/bin/bin/../../lib/gcc/pic32c/6.2.1/../../../../pic32c/lib/v7e-m/fpv4-sp/hard\libc.a(lib_a-sbrkr.o)
 .debug_str     0x000009c3       0x36 c:/program files (x86)/microchip/xc32/v2.30/bin/bin/../../lib/gcc/pic32c/6.2.1/../../../../pic32c/lib/v7e-m/fpv4-sp/hard\libc.a(lib_a-freer.o)
 .debug_str     0x000009f9        0xe c:/program files (x86)/microchip/xc32/v2.30/bin/bin/../../lib/gcc/pic32c/6.2.1/../../../../pic32c/lib/v7e-m/fpv4-sp/hard\libc.a(lib_a-impure.o)
 .debug_str     0x00000a07        0xe c:/program files (x86)/microchip/xc32/v2.30/bin/bin/../../lib/gcc/pic32c/6.2.1/../../../../pic32c/lib/v7e-m/fpv4-sp/hard\libc.a(lib_a-reent.o)
 .debug_str     0x00000a15        0x0 c:/program files (x86)/microchip/xc32/v2.30/bin/bin/../../lib/gcc/pic32c/6.2.1/../../../../pic32c/lib/v7e-m/fpv4-sp/hard\libpic32c.a(sbrk.o)

.debug_frame    0x00000000     0x32c0
 .debug_frame   0x00000000      0x5c4 build/LAN9253_D51_SPI_Beckhoff_mode/production/_ext/2070931557/drv_spi.o
 .debug_frame   0x000005c4      0x10c build/LAN9253_D51_SPI_Beckhoff_mode/production/_ext/1984496892/plib_clock.o
 .debug_frame   0x000006d0      0x2ac build/LAN9253_D51_SPI_Beckhoff_mode/production/_ext/1865161661/plib_dmac.o
 .debug_frame   0x0000097c       0xfc build/LAN9253_D51_SPI_Beckhoff_mode/production/_ext/60167341/plib_eic.o
 .debug_frame   0x00000a78       0x30 build/LAN9253_D51_SPI_Beckhoff_mode/production/_ext/1986646378/plib_evsys.o
 .debug_frame   0x00000aa8       0xa4 build/LAN9253_D51_SPI_Beckhoff_mode/production/_ext/1865468468/plib_nvic.o
 .debug_frame   0x00000b4c      0x2ac build/LAN9253_D51_SPI_Beckhoff_mode/production/_ext/1593096446/plib_nvmctrl.o
 .debug_frame   0x00000df8      0x170 build/LAN9253_D51_SPI_Beckhoff_mode/production/_ext/1865521619/plib_port.o
 .debug_frame   0x00000f68      0x138 build/LAN9253_D51_SPI_Beckhoff_mode/production/_ext/1865555181/plib_qspi_spi.o
 .debug_frame   0x000010a0      0x184 build/LAN9253_D51_SPI_Beckhoff_mode/production/_ext/1827571544/plib_systick.o
 .debug_frame   0x00001224       0x58 build/LAN9253_D51_SPI_Beckhoff_mode/production/_ext/14461671/sys_dma.o
 .debug_frame   0x0000127c      0x140 build/LAN9253_D51_SPI_Beckhoff_mode/production/_ext/1881668453/sys_int.o
 .debug_frame   0x000013bc       0xa0 build/LAN9253_D51_SPI_Beckhoff_mode/production/_ext/1171490990/exceptions.o
 .debug_frame   0x0000145c       0x34 build/LAN9253_D51_SPI_Beckhoff_mode/production/_ext/1171490990/initialization.o
 .debug_frame   0x00001490       0x20 build/LAN9253_D51_SPI_Beckhoff_mode/production/_ext/1171490990/interrupts.o
 .debug_frame   0x000014b0       0x98 build/LAN9253_D51_SPI_Beckhoff_mode/production/_ext/1171490990/startup_xc32.o
 .debug_frame   0x00001548       0x2c build/LAN9253_D51_SPI_Beckhoff_mode/production/_ext/1171490990/tasks.o
 .debug_frame   0x00001574      0x560 build/LAN9253_D51_SPI_Beckhoff_mode/production/_ext/1671622979/Drivers.o
 .debug_frame   0x00001ad4       0xb4 build/LAN9253_D51_SPI_Beckhoff_mode/production/_ext/108147519/ESC_Utils.o
 .debug_frame   0x00001b88      0x22c build/LAN9253_D51_SPI_Beckhoff_mode/production/_ext/108147519/LAN925x.o
 .debug_frame   0x00001db4       0xa8 build/LAN9253_D51_SPI_Beckhoff_mode/production/_ext/108134065/bootmode.o
 .debug_frame   0x00001e5c      0x1a8 build/LAN9253_D51_SPI_Beckhoff_mode/production/_ext/108134065/coeappl.o
 .debug_frame   0x00002004      0x180 build/LAN9253_D51_SPI_Beckhoff_mode/production/_ext/108134065/ecatappl.o
 .debug_frame   0x00002184       0x78 build/LAN9253_D51_SPI_Beckhoff_mode/production/_ext/108134065/ecatcoe.o
 .debug_frame   0x000021fc       0x7c build/LAN9253_D51_SPI_Beckhoff_mode/production/_ext/108134065/ecatfoe.o
 .debug_frame   0x00002278      0x320 build/LAN9253_D51_SPI_Beckhoff_mode/production/_ext/108134065/ecatslv.o
 .debug_frame   0x00002598      0x160 build/LAN9253_D51_SPI_Beckhoff_mode/production/_ext/108134065/emcy.o
 .debug_frame   0x000026f8       0xec build/LAN9253_D51_SPI_Beckhoff_mode/production/_ext/108134065/foeappl.o
 .debug_frame   0x000027e4      0x1ec build/LAN9253_D51_SPI_Beckhoff_mode/production/_ext/108134065/mailbox.o
 .debug_frame   0x000029d0      0x1e8 build/LAN9253_D51_SPI_Beckhoff_mode/production/_ext/108134065/objdef.o
 .debug_frame   0x00002bb8      0x2c4 build/LAN9253_D51_SPI_Beckhoff_mode/production/_ext/108134065/sample_app.o
 .debug_frame   0x00002e7c      0x120 build/LAN9253_D51_SPI_Beckhoff_mode/production/_ext/108134065/sdoserv.o
 .debug_frame   0x00002f9c       0x2c build/LAN9253_D51_SPI_Beckhoff_mode/production/_ext/1360937237/main.o
 .debug_frame   0x00002fc8       0xb4 build/LAN9253_D51_SPI_Beckhoff_mode/production/_ext/1360937237/app.o
 .debug_frame   0x0000307c       0x2c c:/program files (x86)/microchip/xc32/v2.30/bin/bin/../../lib/gcc/pic32c/6.2.1/../../../../pic32c/lib/v7e-m/fpv4-sp/hard\libpic32c.a(data_init.o)
 .debug_frame   0x000030a8       0x2c c:/program files (x86)/microchip/xc32/v2.30/bin/bin/../../lib/gcc/pic32c/6.2.1/../../../../pic32c/lib/v7e-m/fpv4-sp/hard\libc.a(lib_a-init.o)
 .debug_frame   0x000030d4       0x30 c:/program files (x86)/microchip/xc32/v2.30/bin/bin/../../lib/gcc/pic32c/6.2.1/../../../../pic32c/lib/v7e-m/fpv4-sp/hard\libc.a(lib_a-malloc.o)
 .debug_frame   0x00003104       0x40 c:/program files (x86)/microchip/xc32/v2.30/bin/bin/../../lib/gcc/pic32c/6.2.1/../../../../pic32c/lib/v7e-m/fpv4-sp/hard\libc.a(lib_a-mallocr.o)
 .debug_frame   0x00003144       0x28 c:/program files (x86)/microchip/xc32/v2.30/bin/bin/../../lib/gcc/pic32c/6.2.1/../../../../pic32c/lib/v7e-m/fpv4-sp/hard\libc.a(lib_a-memcpy-stub.o)
 .debug_frame   0x0000316c       0x20 c:/program files (x86)/microchip/xc32/v2.30/bin/bin/../../lib/gcc/pic32c/6.2.1/../../../../pic32c/lib/v7e-m/fpv4-sp/hard\libc.a(lib_a-memset.o)
 .debug_frame   0x0000318c       0x30 c:/program files (x86)/microchip/xc32/v2.30/bin/bin/../../lib/gcc/pic32c/6.2.1/../../../../pic32c/lib/v7e-m/fpv4-sp/hard\libc.a(lib_a-mlock.o)
 .debug_frame   0x000031bc       0x2c c:/program files (x86)/microchip/xc32/v2.30/bin/bin/../../lib/gcc/pic32c/6.2.1/../../../../pic32c/lib/v7e-m/fpv4-sp/hard\libc.a(lib_a-sbrkr.o)
 .debug_frame   0x000031e8       0x5c c:/program files (x86)/microchip/xc32/v2.30/bin/bin/../../lib/gcc/pic32c/6.2.1/../../../../pic32c/lib/v7e-m/fpv4-sp/hard\libc.a(lib_a-freer.o)
 .debug_frame   0x00003244       0x5c c:/program files (x86)/microchip/xc32/v2.30/bin/bin/../../lib/gcc/pic32c/6.2.1/../../../../pic32c/lib/v7e-m/fpv4-sp/hard\libc.a(lib_a-reent.o)
 .debug_frame   0x000032a0       0x20 c:/program files (x86)/microchip/xc32/v2.30/bin/bin/../../lib/gcc/pic32c/6.2.1/../../../../pic32c/lib/v7e-m/fpv4-sp/hard\libpic32c.a(sbrk.o)

.stack          0x20003bf8      0x100
 .stack         0x20003bf8      0x100 stack

.data.impure_data%1
                0x20002c30      0x418
 .data.impure_data
                0x20002c30      0x418 c:/program files (x86)/microchip/xc32/v2.30/bin/bin/../../lib/gcc/pic32c/6.2.1/../../../../pic32c/lib/v7e-m/fpv4-sp/hard\libc.a(lib_a-impure.o)

.data.__malloc_av_%2
                0x20003048      0x408
 .data.__malloc_av_
                0x20003048      0x408 c:/program files (x86)/microchip/xc32/v2.30/bin/bin/../../lib/gcc/pic32c/6.2.1/../../../../pic32c/lib/v7e-m/fpv4-sp/hard\libc.a(lib_a-mallocr.o)
                0x20003048                __malloc_av_

.data.GenObjDic%3
                0x20003450      0x1e0
 .data.GenObjDic
                0x20003450      0x1e0 build/LAN9253_D51_SPI_Beckhoff_mode/production/_ext/108134065/coeappl.o
                0x20003450                GenObjDic

.data.ApplicationObjDic%4
                0x20003630      0x118
 .data.ApplicationObjDic
                0x20003630      0x118 build/LAN9253_D51_SPI_Beckhoff_mode/production/_ext/108134065/coeappl.o
                0x20003630                ApplicationObjDic

.bss.drvSPI0TransferObjPool%5
                0x20003748       0x90
 .bss.drvSPI0TransferObjPool
                0x20003748       0x90 build/LAN9253_D51_SPI_Beckhoff_mode/production/_ext/1171490990/initialization.o

.bss.gDrvSPIObj%6
                0x200037d8       0x6c
 .bss.gDrvSPIObj
                0x200037d8       0x6c build/LAN9253_D51_SPI_Beckhoff_mode/production/_ext/2070931557/drv_spi.o

.bss.drvSPI0ClientObjPool%7
                0x20003844       0x28
 .bss.drvSPI0ClientObjPool
                0x20003844       0x28 build/LAN9253_D51_SPI_Beckhoff_mode/production/_ext/1171490990/initialization.o

.bss.__malloc_current_mallinfo%8
                0x2000386c       0x28
 .bss.__malloc_current_mallinfo
                0x2000386c       0x28 c:/program files (x86)/microchip/xc32/v2.30/bin/bin/../../lib/gcc/pic32c/6.2.1/../../../../pic32c/lib/v7e-m/fpv4-sp/hard\libc.a(lib_a-mallocr.o)
                0x2000386c                __malloc_current_mallinfo

.bss.txDummyData%9
                0x200038a0       0x20
 .bss.txDummyData
                0x200038a0       0x20 build/LAN9253_D51_SPI_Beckhoff_mode/production/_ext/2070931557/drv_spi.o

.bss._write_back_section%10
                0x200038c0       0x20
 .bss._write_back_section
                0x200038c0       0x20 build/LAN9253_D51_SPI_Beckhoff_mode/production/_ext/1865161661/plib_dmac.o

.bss.descriptor_section%11
                0x200038e0       0x20
 .bss.descriptor_section
                0x200038e0       0x20 build/LAN9253_D51_SPI_Beckhoff_mode/production/_ext/1865161661/plib_dmac.o

.bss%12         0x20003900       0x1c
 .bss           0x20003900       0x1c c:/program files (x86)/microchip/xc32/v2.30/bin/bin/../../lib/gcc/pic32c/6.2.1/v7e-m/fpv4-sp/hard/crtbegin.o

.data.acDevicename%13
                0x2000391c       0x16
 .data.acDevicename
                0x2000391c       0x16 build/LAN9253_D51_SPI_Beckhoff_mode/production/_ext/108134065/coeappl.o
                0x2000391c                acDevicename

.data.sIdentity%14
                0x20003934       0x14
 .data.sIdentity
                0x20003934       0x14 build/LAN9253_D51_SPI_Beckhoff_mode/production/_ext/108134065/coeappl.o
                0x20003934                sIdentity

.data.aSubindexDesc%15
                0x20003948        0xd
 .data.aSubindexDesc
                0x20003948        0xd build/LAN9253_D51_SPI_Beckhoff_mode/production/_ext/108134065/objdef.o
                0x20003948                aSubindexDesc

.data.sErrorSettings%16
                0x20003894        0xc
 .data.sErrorSettings
                0x20003894        0xc build/LAN9253_D51_SPI_Beckhoff_mode/production/_ext/108134065/objdef.o
                0x20003894                sErrorSettings

.bss.u64Timestamp%17
                0x20003958        0x8
 .bss.u64Timestamp
                0x20003958        0x8 build/LAN9253_D51_SPI_Beckhoff_mode/production/_ext/108134065/coeappl.o
                0x20003958                u64Timestamp

.data.OutputsProcessDataMapping0x1601%18
                0x20003960        0x8
 .data.OutputsProcessDataMapping0x1601
                0x20003960        0x8 build/LAN9253_D51_SPI_Beckhoff_mode/production/_ext/108134065/sample_app.o
                0x20003960                OutputsProcessDataMapping0x1601

.data.InputsProcessDataMapping0x1A00%19
                0x20003968        0x8
 .data.InputsProcessDataMapping0x1A00
                0x20003968        0x8 build/LAN9253_D51_SPI_Beckhoff_mode/production/_ext/108134065/sample_app.o
                0x20003968                InputsProcessDataMapping0x1A00

.data.Inputs0x6000%20
                0x20003970        0x8
 .data.Inputs0x6000
                0x20003970        0x8 build/LAN9253_D51_SPI_Beckhoff_mode/production/_ext/108134065/sample_app.o
                0x20003970                Inputs0x6000

.data.Outputs0x7010%21
                0x20003978        0x8
 .data.Outputs0x7010
                0x20003978        0x8 build/LAN9253_D51_SPI_Beckhoff_mode/production/_ext/108134065/sample_app.o
                0x20003978                Outputs0x7010

.data.sSyncmanagertype%22
                0x20003980        0x6
 .data.sSyncmanagertype
                0x20003980        0x6 build/LAN9253_D51_SPI_Beckhoff_mode/production/_ext/108134065/coeappl.o
                0x20003980                sSyncmanagertype

.data.u32Devicetype%23
                0x20003988        0x4
 .data.u32Devicetype
                0x20003988        0x4 build/LAN9253_D51_SPI_Beckhoff_mode/production/_ext/108134065/coeappl.o
                0x20003988                u32Devicetype

.data.acHardwareversion%24
                0x2000398c        0x4
 .data.acHardwareversion
                0x2000398c        0x4 build/LAN9253_D51_SPI_Beckhoff_mode/production/_ext/108134065/coeappl.o
                0x2000398c                acHardwareversion

.data.acSoftwareversion%25
                0x20003990        0x4
 .data.acSoftwareversion
                0x20003990        0x4 build/LAN9253_D51_SPI_Beckhoff_mode/production/_ext/108134065/coeappl.o
                0x20003990                acSoftwareversion

.bss.ObjDicList%26
                0x20003994        0x4
 .bss.ObjDicList
                0x20003994        0x4 build/LAN9253_D51_SPI_Beckhoff_mode/production/_ext/108134065/coeappl.o
                0x20003994                ObjDicList

.bss.SMActivate%27
                0x20003998        0x4
 .bss.SMActivate
                0x20003998        0x4 build/LAN9253_D51_SPI_Beckhoff_mode/production/_ext/108134065/ecatslv.o
                0x20003998                SMActivate

.data.sRxPDOassign%28
                0x2000399c        0x4
 .data.sRxPDOassign
                0x2000399c        0x4 build/LAN9253_D51_SPI_Beckhoff_mode/production/_ext/108134065/sample_app.o
                0x2000399c                sRxPDOassign

.data.sTxPDOassign%29
                0x200039a0        0x4
 .data.sTxPDOassign
                0x200039a0        0x4 build/LAN9253_D51_SPI_Beckhoff_mode/production/_ext/108134065/sample_app.o
                0x200039a0                sTxPDOassign

.bss.gTriggerCounterValMeasure%30
                0x200039a4        0x4
 .bss.gTriggerCounterValMeasure
                0x200039a4        0x4 build/LAN9253_D51_SPI_Beckhoff_mode/production/_ext/108134065/sample_app.o
                0x200039a4                gTriggerCounterValMeasure

.data.gFOETestFrameSize%31
                0x200039a8        0x4
 .data.gFOETestFrameSize
                0x200039a8        0x4 build/LAN9253_D51_SPI_Beckhoff_mode/production/_ext/108134065/sample_app.o
                0x200039a8                gFOETestFrameSize

.bss.nFileWriteOffset%32
                0x200039ac        0x4
 .bss.nFileWriteOffset
                0x200039ac        0x4 build/LAN9253_D51_SPI_Beckhoff_mode/production/_ext/108134065/sample_app.o
                0x200039ac                nFileWriteOffset

.bss.nFileStartWriteAddress%33
                0x200039b0        0x4
 .bss.nFileStartWriteAddress
                0x200039b0        0x4 build/LAN9253_D51_SPI_Beckhoff_mode/production/_ext/108134065/sample_app.o
                0x200039b0                nFileStartWriteAddress

.bss.u32FileSize%34
                0x200039b4        0x4
 .bss.u32FileSize
                0x200039b4        0x4 build/LAN9253_D51_SPI_Beckhoff_mode/production/_ext/108134065/sample_app.o
                0x200039b4                u32FileSize

.bss.__malloc_max_sbrked_mem%35
                0x200039b8        0x4
 .bss.__malloc_max_sbrked_mem
                0x200039b8        0x4 c:/program files (x86)/microchip/xc32/v2.30/bin/bin/../../lib/gcc/pic32c/6.2.1/../../../../pic32c/lib/v7e-m/fpv4-sp/hard\libc.a(lib_a-mallocr.o)
                0x200039b8                __malloc_max_sbrked_mem

.bss.__malloc_max_total_mem%36
                0x200039bc        0x4
 .bss.__malloc_max_total_mem
                0x200039bc        0x4 c:/program files (x86)/microchip/xc32/v2.30/bin/bin/../../lib/gcc/pic32c/6.2.1/../../../../pic32c/lib/v7e-m/fpv4-sp/hard\libc.a(lib_a-mallocr.o)
                0x200039bc                __malloc_max_total_mem

.bss.__malloc_top_pad%37
                0x200039c0        0x4
 .bss.__malloc_top_pad
                0x200039c0        0x4 c:/program files (x86)/microchip/xc32/v2.30/bin/bin/../../lib/gcc/pic32c/6.2.1/../../../../pic32c/lib/v7e-m/fpv4-sp/hard\libc.a(lib_a-mallocr.o)
                0x200039c0                __malloc_top_pad

.data.__malloc_sbrk_base%38
                0x200039c4        0x4
 .data.__malloc_sbrk_base
                0x200039c4        0x4 c:/program files (x86)/microchip/xc32/v2.30/bin/bin/../../lib/gcc/pic32c/6.2.1/../../../../pic32c/lib/v7e-m/fpv4-sp/hard\libc.a(lib_a-mallocr.o)
                0x200039c4                __malloc_sbrk_base

.data.__malloc_trim_threshold%39
                0x200039c8        0x4
 .data.__malloc_trim_threshold
                0x200039c8        0x4 c:/program files (x86)/microchip/xc32/v2.30/bin/bin/../../lib/gcc/pic32c/6.2.1/../../../../pic32c/lib/v7e-m/fpv4-sp/hard\libc.a(lib_a-mallocr.o)
                0x200039c8                __malloc_trim_threshold

.data._impure_ptr%40
                0x200039cc        0x4
 .data._impure_ptr
                0x200039cc        0x4 c:/program files (x86)/microchip/xc32/v2.30/bin/bin/../../lib/gcc/pic32c/6.2.1/../../../../pic32c/lib/v7e-m/fpv4-sp/hard\libc.a(lib_a-impure.o)
                0x200039cc                _impure_ptr

.bss%41         0x200039d0        0x4
 .bss           0x200039d0        0x4 c:/program files (x86)/microchip/xc32/v2.30/bin/bin/../../lib/gcc/pic32c/6.2.1/../../../../pic32c/lib/v7e-m/fpv4-sp/hard\libpic32c.a(sbrk.o)

.bss.nvm_error%42
                0x20003932        0x2
 .bss.nvm_error
                0x20003932        0x2 build/LAN9253_D51_SPI_Beckhoff_mode/production/_ext/1593096446/plib_nvmctrl.o

.bss.u16ErrorRegister%43
                0x20003986        0x2
 .bss.u16ErrorRegister
                0x20003986        0x2 build/LAN9253_D51_SPI_Beckhoff_mode/production/_ext/108134065/coeappl.o
                0x20003986                u16ErrorRegister

.data.gis_Tx_DMAComplete%44
                0x20003955        0x1
 .data.gis_Tx_DMAComplete
                0x20003955        0x1 build/LAN9253_D51_SPI_Beckhoff_mode/production/_ext/2070931557/drv_spi.o
                0x20003955                gis_Tx_DMAComplete

.data.gis_Rx_DMAComplete%45
                0x20003956        0x1
 .data.gis_Rx_DMAComplete
                0x20003956        0x1 build/LAN9253_D51_SPI_Beckhoff_mode/production/_ext/2070931557/drv_spi.o
                0x20003956                gis_Rx_DMAComplete

.bss.isLastByteTransferInProgress.9843%46
                0x20003957        0x1
 .bss.isLastByteTransferInProgress.9843
                0x20003957        0x1 build/LAN9253_D51_SPI_Beckhoff_mode/production/_ext/1865555181/plib_qspi_spi.o

.bss.gchEtherCATQSPITransmission%47
                0x200039d4        0x1
 .bss.gchEtherCATQSPITransmission
                0x200039d4        0x1 build/LAN9253_D51_SPI_Beckhoff_mode/production/_ext/1671622979/Drivers.o
                0x200039d4                gchEtherCATQSPITransmission

.bss.gbALEvtOpEnabled%48
                0x200039d5        0x1
 .bss.gbALEvtOpEnabled
                0x200039d5        0x1 build/LAN9253_D51_SPI_Beckhoff_mode/production/_ext/108147519/LAN925x.o
                0x200039d5                gbALEvtOpEnabled

.bss.bInitFinished%49
                0x200039d6        0x1
 .bss.bInitFinished
                0x200039d6        0x1 build/LAN9253_D51_SPI_Beckhoff_mode/production/_ext/108134065/ecatappl.o
                0x200039d6                bInitFinished

.bss.EepromLoaded%50
                0x200039d7        0x1
 .bss.EepromLoaded
                0x200039d7        0x1 build/LAN9253_D51_SPI_Beckhoff_mode/production/_ext/108134065/ecatslv.o
                0x200039d7                EepromLoaded

.bss.gFirmwareDownload_Started%51
                0x200039d8        0x1
 .bss.gFirmwareDownload_Started
                0x200039d8        0x1 build/LAN9253_D51_SPI_Beckhoff_mode/production/_ext/108134065/sample_app.o
                0x200039d8                gFirmwareDownload_Started

.bss.gFirmwareDownload_Finished%52
                0x200039d9        0x1
 .bss.gFirmwareDownload_Finished
                0x200039d9        0x1 build/LAN9253_D51_SPI_Beckhoff_mode/production/_ext/108134065/sample_app.o
                0x200039d9                gFirmwareDownload_Finished

.bss.bSdoInWork%53
                0x200039da        0x1
 .bss.bSdoInWork
                0x200039da        0x1 build/LAN9253_D51_SPI_Beckhoff_mode/production/_ext/108134065/sdoserv.o
                0x200039da                bSdoInWork

.eh_frame%z1    0x00000000        0x0
 .eh_frame      0x00000000        0x0 c:/program files (x86)/microchip/xc32/v2.30/bin/bin/../../lib/gcc/pic32c/6.2.1/v7e-m/fpv4-sp/hard/crtbegin.o

.dinit%54       0x00000280      0xf20
 .dinit         0x00000280      0xf20 data_init

.text.StartInputHandler%55
                0x000011a0      0x7e4
 .text.StartInputHandler
                0x000011a0      0x7e4 build/LAN9253_D51_SPI_Beckhoff_mode/production/_ext/108134065/ecatslv.o
                0x000011a0                StartInputHandler

.text.AL_ControlInd%56
                0x00001984      0x790
 .text.AL_ControlInd
                0x00001984      0x790 build/LAN9253_D51_SPI_Beckhoff_mode/production/_ext/108134065/ecatslv.o
                0x00001984                AL_ControlInd

.text.OBJ_Write%57
                0x00002114      0x710
 .text.OBJ_Write
                0x00002114      0x710 build/LAN9253_D51_SPI_Beckhoff_mode/production/_ext/108134065/objdef.o
                0x00002114                OBJ_Write

.text.OBJ_Read%58
                0x00002824      0x67c
 .text.OBJ_Read
                0x00002824      0x67c build/LAN9253_D51_SPI_Beckhoff_mode/production/_ext/108134065/objdef.o
                0x00002824                OBJ_Read

.text.SDOS_SdoInd%59
                0x00002ea0      0x5e4
 .text.SDOS_SdoInd
                0x00002ea0      0x5e4 build/LAN9253_D51_SPI_Beckhoff_mode/production/_ext/108134065/sdoserv.o
                0x00002ea0                SDOS_SdoInd

.text.FOE_ServiceInd%60
                0x00003484      0x488
 .text.FOE_ServiceInd
                0x00003484      0x488 build/LAN9253_D51_SPI_Beckhoff_mode/production/_ext/108134065/ecatfoe.o
                0x00003484                FOE_ServiceInd

.text._malloc_r%61
                0x0000390c      0x438
 .text._malloc_r
                0x0000390c      0x438 c:/program files (x86)/microchip/xc32/v2.30/bin/bin/../../lib/gcc/pic32c/6.2.1/../../../../pic32c/lib/v7e-m/fpv4-sp/hard\libc.a(lib_a-mallocr.o)
                0x0000390c                _malloc_r

.text.SDOS_SdoInfoInd%62
                0x00003d44      0x434
 .text.SDOS_SdoInfoInd
                0x00003d44      0x434 build/LAN9253_D51_SPI_Beckhoff_mode/production/_ext/108134065/sdoserv.o
                0x00003d44                SDOS_SdoInfoInd

.text.SdoDownloadSegmentInd%63
                0x00004178      0x3b4
 .text.SdoDownloadSegmentInd
                0x00004178      0x3b4 build/LAN9253_D51_SPI_Beckhoff_mode/production/_ext/108134065/sdoserv.o

.text.CheckSmSettings%64
                0x0000452c      0x3a0
 .text.CheckSmSettings
                0x0000452c      0x3a0 build/LAN9253_D51_SPI_Beckhoff_mode/production/_ext/108134065/ecatslv.o
                0x0000452c                CheckSmSettings

.text.AL_ControlRes%65
                0x000048cc      0x2bc
 .text.AL_ControlRes
                0x000048cc      0x2bc build/LAN9253_D51_SPI_Beckhoff_mode/production/_ext/108134065/ecatslv.o
                0x000048cc                AL_ControlRes

.text.SdoUploadSegmentInd%66
                0x00004b88      0x260
 .text.SdoUploadSegmentInd
                0x00004b88      0x260 build/LAN9253_D51_SPI_Beckhoff_mode/production/_ext/108134065/sdoserv.o

.text._DRV_SPI_StartDMATransfer%67
                0x00004de8      0x20c
 .text._DRV_SPI_StartDMATransfer
                0x00004de8      0x20c build/LAN9253_D51_SPI_Beckhoff_mode/production/_ext/2070931557/drv_spi.o

.text.SendSmFailedEmergency%68
                0x00004ff4      0x1e0
 .text.SendSmFailedEmergency
                0x00004ff4      0x1e0 build/LAN9253_D51_SPI_Beckhoff_mode/production/_ext/108134065/ecatslv.o
                0x00004ff4                SendSmFailedEmergency

.text.SdoRes%69
                0x000051d4      0x1bc
 .text.SdoRes   0x000051d4      0x1bc build/LAN9253_D51_SPI_Beckhoff_mode/production/_ext/108134065/sdoserv.o
                0x000051d4                SdoRes

.text.CheckSyncTypeValue%70
                0x00005390      0x1b4
 .text.CheckSyncTypeValue
                0x00005390      0x1b4 build/LAN9253_D51_SPI_Beckhoff_mode/production/_ext/108134065/objdef.o
                0x00005390                CheckSyncTypeValue

.text.ECAT_Main%71
                0x00005544      0x1a8
 .text.ECAT_Main
                0x00005544      0x1a8 build/LAN9253_D51_SPI_Beckhoff_mode/production/_ext/108134065/ecatslv.o
                0x00005544                ECAT_Main

.text.QSPI_Handler%72
                0x000056ec      0x1a0
 .text.QSPI_Handler
                0x000056ec      0x1a0 build/LAN9253_D51_SPI_Beckhoff_mode/production/_ext/1865555181/plib_qspi_spi.o
                0x000056ec                QSPI_Handler

.text.DRV_SPI_Initialize%73
                0x0000588c      0x19c
 .text.DRV_SPI_Initialize
                0x0000588c      0x19c build/LAN9253_D51_SPI_Beckhoff_mode/production/_ext/2070931557/drv_spi.o
                0x0000588c                DRV_SPI_Initialize

.text.DRV_SPI_Open%74
                0x00005a28      0x19c
 .text.DRV_SPI_Open
                0x00005a28      0x19c build/LAN9253_D51_SPI_Beckhoff_mode/production/_ext/2070931557/drv_spi.o
                0x00005a28                DRV_SPI_Open

.text._DRV_SPI_RX_DMA_CallbackHandler%75
                0x00005bc4      0x190
 .text._DRV_SPI_RX_DMA_CallbackHandler
                0x00005bc4      0x190 build/LAN9253_D51_SPI_Beckhoff_mode/production/_ext/2070931557/drv_spi.o
                0x00005bc4                _DRV_SPI_RX_DMA_CallbackHandler

.text.DRV_SPI_WriteReadTransferAdd%76
                0x00005d54      0x17c
 .text.DRV_SPI_WriteReadTransferAdd
                0x00005d54      0x17c build/LAN9253_D51_SPI_Beckhoff_mode/production/_ext/2070931557/drv_spi.o
                0x00005d54                DRV_SPI_WriteReadTransferAdd

.text.QSPI_WriteRead%77
                0x00005ed0      0x17c
 .text.QSPI_WriteRead
                0x00005ed0      0x17c build/LAN9253_D51_SPI_Beckhoff_mode/production/_ext/1865555181/plib_qspi_spi.o
                0x00005ed0                QSPI_WriteRead

.text.OBJ_GetEntryOffset%78
                0x0000604c      0x178
 .text.OBJ_GetEntryOffset
                0x0000604c      0x178 build/LAN9253_D51_SPI_Beckhoff_mode/production/_ext/108134065/objdef.o
                0x0000604c                OBJ_GetEntryOffset

.text._free_r%79
                0x000061c4      0x178
 .text._free_r  0x000061c4      0x178 c:/program files (x86)/microchip/xc32/v2.30/bin/bin/../../lib/gcc/pic32c/6.2.1/../../../../pic32c/lib/v7e-m/fpv4-sp/hard\libc.a(lib_a-freer.o)
                0x000061c4                _free_r

.text.APPL_GenerateMapping%80
                0x0000633c      0x174
 .text.APPL_GenerateMapping
                0x0000633c      0x174 build/LAN9253_D51_SPI_Beckhoff_mode/production/_ext/108134065/sample_app.o
                0x0000633c                APPL_GenerateMapping

.text.ECAT_Init%81
                0x000064b0      0x170
 .text.ECAT_Init
                0x000064b0      0x170 build/LAN9253_D51_SPI_Beckhoff_mode/production/_ext/108134065/ecatslv.o
                0x000064b0                ECAT_Init

.text.SetALStatus%82
                0x00006620      0x164
 .text.SetALStatus
                0x00006620      0x164 build/LAN9253_D51_SPI_Beckhoff_mode/production/_ext/108134065/ecatslv.o
                0x00006620                SetALStatus

.text.MBX_CheckAndCopyMailbox%83
                0x00006784      0x164
 .text.MBX_CheckAndCopyMailbox
                0x00006784      0x164 build/LAN9253_D51_SPI_Beckhoff_mode/production/_ext/108134065/mailbox.o
                0x00006784                MBX_CheckAndCopyMailbox

.text.COE_ObjInit%84
                0x000068e8      0x160
 .text.COE_ObjInit
                0x000068e8      0x160 build/LAN9253_D51_SPI_Beckhoff_mode/production/_ext/108134065/coeappl.o
                0x000068e8                COE_ObjInit

.text.Sync0_Isr%85
                0x00006a48      0x15c
 .text.Sync0_Isr
                0x00006a48      0x15c build/LAN9253_D51_SPI_Beckhoff_mode/production/_ext/108134065/ecatappl.o
                0x00006a48                Sync0_Isr

.text.DMAC_ChannelTransfer%86
                0x00006ba4      0x154
 .text.DMAC_ChannelTransfer
                0x00006ba4      0x154 build/LAN9253_D51_SPI_Beckhoff_mode/production/_ext/1865161661/plib_dmac.o
                0x00006ba4                DMAC_ChannelTransfer

.text.MBX_StopMailboxHandler%87
                0x00006cf8      0x154
 .text.MBX_StopMailboxHandler
                0x00006cf8      0x154 build/LAN9253_D51_SPI_Beckhoff_mode/production/_ext/108134065/mailbox.o
                0x00006cf8                MBX_StopMailboxHandler

.text.PDI_Isr%88
                0x00006e4c      0x14c
 .text.PDI_Isr  0x00006e4c      0x14c build/LAN9253_D51_SPI_Beckhoff_mode/production/_ext/108134065/ecatappl.o
                0x00006e4c                PDI_Isr

.text.FoE_WriteData%89
                0x00006f98      0x148
 .text.FoE_WriteData
                0x00006f98      0x148 build/LAN9253_D51_SPI_Beckhoff_mode/production/_ext/108134065/sample_app.o
                0x00006f98                FoE_WriteData

.text._DRV_SPI_PlibCallbackHandler%90
                0x000070e0      0x13c
 .text._DRV_SPI_PlibCallbackHandler
                0x000070e0      0x13c build/LAN9253_D51_SPI_Beckhoff_mode/production/_ext/2070931557/drv_spi.o

.text.StopInputHandler%91
                0x0000721c      0x12c
 .text.StopInputHandler
                0x0000721c      0x12c build/LAN9253_D51_SPI_Beckhoff_mode/production/_ext/108134065/ecatslv.o
                0x0000721c                StopInputHandler

.text._DRV_SPI_DisableInterrupts%92
                0x00007348      0x124
 .text._DRV_SPI_DisableInterrupts
                0x00007348      0x124 build/LAN9253_D51_SPI_Beckhoff_mode/production/_ext/2070931557/drv_spi.o

.text.MBX_MailboxReadInd%93
                0x0000746c      0x124
 .text.MBX_MailboxReadInd
                0x0000746c      0x124 build/LAN9253_D51_SPI_Beckhoff_mode/production/_ext/108134065/mailbox.o
                0x0000746c                MBX_MailboxReadInd

.text.OBJ_GetObjectLength%94
                0x00007590      0x124
 .text.OBJ_GetObjectLength
                0x00007590      0x124 build/LAN9253_D51_SPI_Beckhoff_mode/production/_ext/108134065/objdef.o
                0x00007590                OBJ_GetObjectLength

.text.SDOS_SdoRes%95
                0x000076b4      0x124
 .text.SDOS_SdoRes
                0x000076b4      0x124 build/LAN9253_D51_SPI_Beckhoff_mode/production/_ext/108134065/sdoserv.o
                0x000076b4                SDOS_SdoRes

.text.DC_CheckWatchdog%96
                0x000077d8      0x120
 .text.DC_CheckWatchdog
                0x000077d8      0x120 build/LAN9253_D51_SPI_Beckhoff_mode/production/_ext/108134065/ecatslv.o
                0x000077d8                DC_CheckWatchdog

.text.OBJ_GetDesc%97
                0x000078f8      0x120
 .text.OBJ_GetDesc
                0x000078f8      0x120 build/LAN9253_D51_SPI_Beckhoff_mode/production/_ext/108134065/objdef.o
                0x000078f8                OBJ_GetDesc

.text._DRV_SPI_EnableInterrupts%98
                0x00007a18      0x116
 .text._DRV_SPI_EnableInterrupts
                0x00007a18      0x116 build/LAN9253_D51_SPI_Beckhoff_mode/production/_ext/2070931557/drv_spi.o

.text.MBX_StartMailboxHandler%99
                0x00007b30      0x114
 .text.MBX_StartMailboxHandler
                0x00007b30      0x114 build/LAN9253_D51_SPI_Beckhoff_mode/production/_ext/108134065/mailbox.o
                0x00007b30                MBX_StartMailboxHandler

.text.MBX_CopyToSendMailbox%100
                0x00007c44      0x10c
 .text.MBX_CopyToSendMailbox
                0x00007c44      0x10c build/LAN9253_D51_SPI_Beckhoff_mode/production/_ext/108134065/mailbox.o
                0x00007c44                MBX_CopyToSendMailbox

.rodata.aName0x1C32%101
                0x00007d50      0x100
 .rodata.aName0x1C32
                0x00007d50      0x100 build/LAN9253_D51_SPI_Beckhoff_mode/production/_ext/108134065/coeappl.o
                0x00007d50                aName0x1C32

.rodata.aName0x1C33%102
                0x00007e50      0x100
 .rodata.aName0x1C33
                0x00007e50      0x100 build/LAN9253_D51_SPI_Beckhoff_mode/production/_ext/108134065/coeappl.o
                0x00007e50                aName0x1C33

.text.MainInit%103
                0x00007f50      0x100
 .text.MainInit
                0x00007f50      0x100 build/LAN9253_D51_SPI_Beckhoff_mode/production/_ext/108134065/ecatappl.o
                0x00007f50                MainInit

.text.MBX_Init%104
                0x00008050      0x100
 .text.MBX_Init
                0x00008050      0x100 build/LAN9253_D51_SPI_Beckhoff_mode/production/_ext/108134065/mailbox.o
                0x00008050                MBX_Init

.text.OBJ_GetObjectList%105
                0x00008150       0xf8
 .text.OBJ_GetObjectList
                0x00008150       0xf8 build/LAN9253_D51_SPI_Beckhoff_mode/production/_ext/108134065/objdef.o
                0x00008150                OBJ_GetObjectList

.text.MBX_MailboxWriteInd%106
                0x00008248       0xf4
 .text.MBX_MailboxWriteInd
                0x00008248       0xf4 build/LAN9253_D51_SPI_Beckhoff_mode/production/_ext/108134065/mailbox.o
                0x00008248                MBX_MailboxWriteInd

.text.MainLoop%107
                0x0000833c       0xec
 .text.MainLoop
                0x0000833c       0xec build/LAN9253_D51_SPI_Beckhoff_mode/production/_ext/108134065/ecatappl.o
                0x0000833c                MainLoop

.text.COE_AddObjectToDic%108
                0x00008428       0xe8
 .text.COE_AddObjectToDic
                0x00008428       0xe8 build/LAN9253_D51_SPI_Beckhoff_mode/production/_ext/108134065/coeappl.o
                0x00008428                COE_AddObjectToDic

.text.COE_Main%109
                0x00008510       0xe8
 .text.COE_Main
                0x00008510       0xe8 build/LAN9253_D51_SPI_Beckhoff_mode/production/_ext/108134065/coeappl.o
                0x00008510                COE_Main

.text.EIC_Initialize%110
                0x000085f8       0xe4
 .text.EIC_Initialize
                0x000085f8       0xe4 build/LAN9253_D51_SPI_Beckhoff_mode/production/_ext/60167341/plib_eic.o
                0x000085f8                EIC_Initialize

.text.LAN925x_Init%111
                0x000086dc       0xe0
 .text.LAN925x_Init
                0x000086dc       0xe0 build/LAN9253_D51_SPI_Beckhoff_mode/production/_ext/108147519/LAN925x.o
                0x000086dc                LAN925x_Init

.text.MBX_MailboxSendReq%112
                0x000087bc       0xdc
 .text.MBX_MailboxSendReq
                0x000087bc       0xdc build/LAN9253_D51_SPI_Beckhoff_mode/production/_ext/108134065/mailbox.o
                0x000087bc                MBX_MailboxSendReq

.text._DRV_SPI_FreeTransferObjGet%113
                0x00008898       0xd4
 .text._DRV_SPI_FreeTransferObjGet
                0x00008898       0xd4 build/LAN9253_D51_SPI_Beckhoff_mode/production/_ext/2070931557/drv_spi.o

.text.HW_EscWrite%114
                0x0000896c       0xce
 .text.HW_EscWrite
                0x0000896c       0xce build/LAN9253_D51_SPI_Beckhoff_mode/production/_ext/108147519/LAN925x.o
                0x0000896c                HW_EscWrite

.text.DMAC_Initialize%115
                0x00008a3c       0xcc
 .text.DMAC_Initialize
                0x00008a3c       0xcc build/LAN9253_D51_SPI_Beckhoff_mode/production/_ext/1865161661/plib_dmac.o
                0x00008a3c                DMAC_Initialize

.text.HW_EscRead%116
                0x00008b08       0xcc
 .text.HW_EscRead
                0x00008b08       0xcc build/LAN9253_D51_SPI_Beckhoff_mode/production/_ext/108147519/LAN925x.o
                0x00008b08                HW_EscRead

.text.SODS_ClearPendingResponse%117
                0x00008bd4       0xcc
 .text.SODS_ClearPendingResponse
                0x00008bd4       0xcc build/LAN9253_D51_SPI_Beckhoff_mode/production/_ext/108134065/sdoserv.o
                0x00008bd4                SODS_ClearPendingResponse

.text.DRV_SPI_TransferSetup%118
                0x00008ca0       0xc8
 .text.DRV_SPI_TransferSetup
                0x00008ca0       0xc8 build/LAN9253_D51_SPI_Beckhoff_mode/production/_ext/2070931557/drv_spi.o
                0x00008ca0                DRV_SPI_TransferSetup

.rodata.asEntryDesc0x1C3x%119
                0x00008d68       0xc8
 .rodata.asEntryDesc0x1C3x
                0x00008d68       0xc8 build/LAN9253_D51_SPI_Beckhoff_mode/production/_ext/108134065/coeappl.o
                0x00008d68                asEntryDesc0x1C3x

.text.BeckhoffSPI_DMA_Read%120
                0x00008e30       0xc4
 .text.BeckhoffSPI_DMA_Read
                0x00008e30       0xc4 build/LAN9253_D51_SPI_Beckhoff_mode/production/_ext/1671622979/Drivers.o
                0x00008e30                BeckhoffSPI_DMA_Read

.text.FoE_Read%121
                0x00008ef4       0xbc
 .text.FoE_Read
                0x00008ef4       0xbc build/LAN9253_D51_SPI_Beckhoff_mode/production/_ext/108134065/sample_app.o
                0x00008ef4                FoE_Read

.text.MBX_Main%122
                0x00008fb0       0xb8
 .text.MBX_Main
                0x00008fb0       0xb8 build/LAN9253_D51_SPI_Beckhoff_mode/production/_ext/108134065/mailbox.o
                0x00008fb0                MBX_Main

.text._DRV_SPI_UpdateTransferSetupAndAssertCS%123
                0x00009068       0xb4
 .text._DRV_SPI_UpdateTransferSetupAndAssertCS
                0x00009068       0xb4 build/LAN9253_D51_SPI_Beckhoff_mode/production/_ext/2070931557/drv_spi.o

.text.PDO_OutputMapping%124
                0x0000911c       0xb0
 .text.PDO_OutputMapping
                0x0000911c       0xb0 build/LAN9253_D51_SPI_Beckhoff_mode/production/_ext/108134065/ecatappl.o
                0x0000911c                PDO_OutputMapping

.text.ECAT_CheckTimer%125
                0x000091cc       0xb0
 .text.ECAT_CheckTimer
                0x000091cc       0xb0 build/LAN9253_D51_SPI_Beckhoff_mode/production/_ext/108134065/ecatappl.o
                0x000091cc                ECAT_CheckTimer

.text.BeckhoffSPI_DMA_Write%126
                0x0000927c       0xac
 .text.BeckhoffSPI_DMA_Write
                0x0000927c       0xac build/LAN9253_D51_SPI_Beckhoff_mode/production/_ext/1671622979/Drivers.o
                0x0000927c                BeckhoffSPI_DMA_Write

.text.EMCY_Init%127
                0x00009328       0xa8
 .text.EMCY_Init
                0x00009328       0xa8 build/LAN9253_D51_SPI_Beckhoff_mode/production/_ext/108134065/emcy.o
                0x00009328                EMCY_Init

.text.EMCY_SendEmergency%128
                0x000093d0       0xa4
 .text.EMCY_SendEmergency
                0x000093d0       0xa4 build/LAN9253_D51_SPI_Beckhoff_mode/production/_ext/108134065/emcy.o
                0x000093d0                EMCY_SendEmergency

.text._DRV_SPI_DriverHandleValidate%129
                0x00009474       0x9c
 .text._DRV_SPI_DriverHandleValidate
                0x00009474       0x9c build/LAN9253_D51_SPI_Beckhoff_mode/production/_ext/2070931557/drv_spi.o

.text._DMAC_interruptHandler%130
                0x00009510       0x9c
 .text._DMAC_interruptHandler
                0x00009510       0x9c build/LAN9253_D51_SPI_Beckhoff_mode/production/_ext/1865161661/plib_dmac.o
                0x00009510                _DMAC_interruptHandler

.text.COE_SyncTimeStamp%131
                0x000095ac       0x9c
 .text.COE_SyncTimeStamp
                0x000095ac       0x9c build/LAN9253_D51_SPI_Beckhoff_mode/production/_ext/108134065/coeappl.o
                0x000095ac                COE_SyncTimeStamp

.text.QSPI_TransferSetup%132
                0x00009648       0x98
 .text.QSPI_TransferSetup
                0x00009648       0x98 build/LAN9253_D51_SPI_Beckhoff_mode/production/_ext/1865555181/plib_qspi_spi.o
                0x00009648                QSPI_TransferSetup

.text.OBJ_GetNoOfObjects%133
                0x000096e0       0x98
 .text.OBJ_GetNoOfObjects
                0x000096e0       0x98 build/LAN9253_D51_SPI_Beckhoff_mode/production/_ext/108134065/objdef.o
                0x000096e0                OBJ_GetNoOfObjects

.text.PDO_InputMapping%134
                0x00009778       0x94
 .text.PDO_InputMapping
                0x00009778       0x94 build/LAN9253_D51_SPI_Beckhoff_mode/production/_ext/108134065/ecatappl.o
                0x00009778                PDO_InputMapping

.text.OBJ_CopyNumberToString%135
                0x0000980c       0x94
 .text.OBJ_CopyNumberToString
                0x0000980c       0x94 build/LAN9253_D51_SPI_Beckhoff_mode/production/_ext/108134065/objdef.o
                0x0000980c                OBJ_CopyNumberToString

.text.FoE_Write%136
                0x000098a0       0x94
 .text.FoE_Write
                0x000098a0       0x94 build/LAN9253_D51_SPI_Beckhoff_mode/production/_ext/108134065/sample_app.o
                0x000098a0                FoE_Write

.text._malloc_trim_r%137
                0x00009934       0x94
 .text._malloc_trim_r
                0x00009934       0x94 c:/program files (x86)/microchip/xc32/v2.30/bin/bin/../../lib/gcc/pic32c/6.2.1/../../../../pic32c/lib/v7e-m/fpv4-sp/hard\libc.a(lib_a-freer.o)
                0x00009934                _malloc_trim_r

.text._DRV_SPI_TX_DMA_CallbackHandler%138
                0x000099c8       0x90
 .text._DRV_SPI_TX_DMA_CallbackHandler
                0x000099c8       0x90 build/LAN9253_D51_SPI_Beckhoff_mode/production/_ext/2070931557/drv_spi.o
                0x000099c8                _DRV_SPI_TX_DMA_CallbackHandler

.text._SPI_initialize%139
                0x00009a58       0x88
 .text._SPI_initialize
                0x00009a58       0x88 build/LAN9253_D51_SPI_Beckhoff_mode/production/_ext/2070931557/drv_spi.o
                0x00009a58                _SPI_initialize

.text.COE_RemoveDicEntry%140
                0x00009ae0       0x80
 .text.COE_RemoveDicEntry
                0x00009ae0       0x80 build/LAN9253_D51_SPI_Beckhoff_mode/production/_ext/108134065/coeappl.o
                0x00009ae0                COE_RemoveDicEntry

.text.__pic32c_data_initialization%141
                0x00009b60       0x80
 .text.__pic32c_data_initialization
                0x00009b60       0x80 c:/program files (x86)/microchip/xc32/v2.30/bin/bin/../../lib/gcc/pic32c/6.2.1/../../../../pic32c/lib/v7e-m/fpv4-sp/hard\libpic32c.a(data_init.o)
                0x00009b60                __pic32c_data_initialization

.text.HandleCycleTimeMeasurement%142
                0x00009be0       0x7c
 .text.HandleCycleTimeMeasurement
                0x00009be0       0x7c build/LAN9253_D51_SPI_Beckhoff_mode/production/_ext/108134065/ecatappl.o
                0x00009be0                HandleCycleTimeMeasurement

.text.MBX_MailboxRepeatReq%143
                0x00009c5c       0x7c
 .text.MBX_MailboxRepeatReq
                0x00009c5c       0x7c build/LAN9253_D51_SPI_Beckhoff_mode/production/_ext/108134065/mailbox.o
                0x00009c5c                MBX_MailboxRepeatReq

.text.PORT_Initialize%144
                0x00009cd8       0x78
 .text.PORT_Initialize
                0x00009cd8       0x78 build/LAN9253_D51_SPI_Beckhoff_mode/production/_ext/1865521619/plib_port.o
                0x00009cd8                PORT_Initialize

.text.EscWrite%145
                0x00009d50       0x78
 .text.EscWrite
                0x00009d50       0x78 build/LAN9253_D51_SPI_Beckhoff_mode/production/_ext/108147519/LAN925x.o
                0x00009d50                EscWrite

.rodata.cAbortCode%146
                0x00009dc8       0x78
 .rodata.cAbortCode
                0x00009dc8       0x78 build/LAN9253_D51_SPI_Beckhoff_mode/production/_ext/108134065/sdoserv.o
                0x00009dc8                cAbortCode

.text.APP_FlashWrite%147
                0x00009e40       0x78
 .text.APP_FlashWrite
                0x00009e40       0x78 build/LAN9253_D51_SPI_Beckhoff_mode/production/_ext/1360937237/app.o
                0x00009e40                APP_FlashWrite

.text.EscRead%148
                0x00009eb8       0x76
 .text.EscRead  0x00009eb8       0x76 build/LAN9253_D51_SPI_Beckhoff_mode/production/_ext/108147519/LAN925x.o
                0x00009eb8                EscRead

.text.COE_ServiceInd%149
                0x00009f30       0x74
 .text.COE_ServiceInd
                0x00009f30       0x74 build/LAN9253_D51_SPI_Beckhoff_mode/production/_ext/108134065/ecatcoe.o
                0x00009f30                COE_ServiceInd

.text.StartOutputHandler%150
                0x00009fa4       0x74
 .text.StartOutputHandler
                0x00009fa4       0x74 build/LAN9253_D51_SPI_Beckhoff_mode/production/_ext/108134065/ecatslv.o
                0x00009fa4                StartOutputHandler

.text.NVIC_Initialize%151
                0x0000a018       0x72
 .text.NVIC_Initialize
                0x0000a018       0x72 build/LAN9253_D51_SPI_Beckhoff_mode/production/_ext/1865468468/plib_nvic.o
                0x0000a018                NVIC_Initialize

.text.GetSystemTimeDelay%152
                0x0000a08c       0x70
 .text.GetSystemTimeDelay
                0x0000a08c       0x70 build/LAN9253_D51_SPI_Beckhoff_mode/production/_ext/108134065/ecatappl.o
                0x0000a08c                GetSystemTimeDelay

.text.DRV_SPI_TransferEventHandlerSet%153
                0x0000a0fc       0x6c
 .text.DRV_SPI_TransferEventHandlerSet
                0x0000a0fc       0x6c build/LAN9253_D51_SPI_Beckhoff_mode/production/_ext/2070931557/drv_spi.o
                0x0000a0fc                DRV_SPI_TransferEventHandlerSet

.text.FDPLL0_Initialize%154
                0x0000a168       0x6c
 .text.FDPLL0_Initialize
                0x0000a168       0x6c build/LAN9253_D51_SPI_Beckhoff_mode/production/_ext/1984496892/plib_clock.o

.text.FOE_Data%155
                0x0000a1d4       0x6c
 .text.FOE_Data
                0x0000a1d4       0x6c build/LAN9253_D51_SPI_Beckhoff_mode/production/_ext/108134065/foeappl.o
                0x0000a1d4                FOE_Data

.text.DMAC_ChannelSettingsSet%156
                0x0000a240       0x68
 .text.DMAC_ChannelSettingsSet
                0x0000a240       0x68 build/LAN9253_D51_SPI_Beckhoff_mode/production/_ext/1865161661/plib_dmac.o
                0x0000a240                DMAC_ChannelSettingsSet

.text.NVMCTRL_PageWrite%157
                0x0000a2a8       0x68
 .text.NVMCTRL_PageWrite
                0x0000a2a8       0x68 build/LAN9253_D51_SPI_Beckhoff_mode/production/_ext/1593096446/plib_nvmctrl.o
                0x0000a2a8                NVMCTRL_PageWrite

.text.COE_UpdateSyncErrorStatus%158
                0x0000a310       0x68
 .text.COE_UpdateSyncErrorStatus
                0x0000a310       0x68 build/LAN9253_D51_SPI_Beckhoff_mode/production/_ext/108134065/coeappl.o
                0x0000a310                COE_UpdateSyncErrorStatus

.text.MailboxServiceInd%159
                0x0000a378       0x68
 .text.MailboxServiceInd
                0x0000a378       0x68 build/LAN9253_D51_SPI_Beckhoff_mode/production/_ext/108134065/mailbox.o
                0x0000a378                MailboxServiceInd

.text._APP_MyTransferEventHandler%160
                0x0000a3e0       0x64
 .text._APP_MyTransferEventHandler
                0x0000a3e0       0x64 build/LAN9253_D51_SPI_Beckhoff_mode/production/_ext/2070931557/drv_spi.o
                0x0000a3e0                _APP_MyTransferEventHandler

.text.ECAT_CheckWatchdog%161
                0x0000a444       0x64
 .text.ECAT_CheckWatchdog
                0x0000a444       0x64 build/LAN9253_D51_SPI_Beckhoff_mode/production/_ext/108134065/ecatslv.o
                0x0000a444                ECAT_CheckWatchdog

.text.BL_FOE_Application%162
                0x0000a4a8       0x64
 .text.BL_FOE_Application
                0x0000a4a8       0x64 build/LAN9253_D51_SPI_Beckhoff_mode/production/_ext/108134065/sample_app.o
                0x0000a4a8                BL_FOE_Application

.text.APPL_Application%163
                0x0000a50c       0x64
 .text.APPL_Application
                0x0000a50c       0x64 build/LAN9253_D51_SPI_Beckhoff_mode/production/_ext/108134065/sample_app.o
                0x0000a50c                APPL_Application

.text.DRV_SPIReceive%164
                0x0000a570       0x60
 .text.DRV_SPIReceive
                0x0000a570       0x60 build/LAN9253_D51_SPI_Beckhoff_mode/production/_ext/2070931557/drv_spi.o
                0x0000a570                DRV_SPIReceive

.text.DRV_SPITransfer%165
                0x0000a5d0       0x60
 .text.DRV_SPITransfer
                0x0000a5d0       0x60 build/LAN9253_D51_SPI_Beckhoff_mode/production/_ext/2070931557/drv_spi.o
                0x0000a5d0                DRV_SPITransfer

.text.EIC_CallbackRegister%166
                0x0000a630       0x5c
 .text.EIC_CallbackRegister
                0x0000a630       0x5c build/LAN9253_D51_SPI_Beckhoff_mode/production/_ext/60167341/plib_eic.o
                0x0000a630                EIC_CallbackRegister

.text.Reset_Handler%167
                0x0000a68c       0x5c
 .text.Reset_Handler
                0x0000a68c       0x5c build/LAN9253_D51_SPI_Beckhoff_mode/production/_ext/1171490990/startup_xc32.o
                0x0000a68c                Reset_Handler

.text.Read0x10F8%168
                0x0000a6e8       0x5c
 .text.Read0x10F8
                0x0000a6e8       0x5c build/LAN9253_D51_SPI_Beckhoff_mode/production/_ext/108134065/coeappl.o
                0x0000a6e8                Read0x10F8

.text.COE_ContinueInd%169
                0x0000a744       0x5c
 .text.COE_ContinueInd
                0x0000a744       0x5c build/LAN9253_D51_SPI_Beckhoff_mode/production/_ext/108134065/ecatcoe.o
                0x0000a744                COE_ContinueInd

.text.GetOutOfEmptyEmcyQueue%170
                0x0000a7a0       0x5c
 .text.GetOutOfEmptyEmcyQueue
                0x0000a7a0       0x5c build/LAN9253_D51_SPI_Beckhoff_mode/production/_ext/108134065/emcy.o
                0x0000a7a0                GetOutOfEmptyEmcyQueue

.text.GetOutOfSendEmcyQueue%171
                0x0000a7fc       0x5c
 .text.GetOutOfSendEmcyQueue
                0x0000a7fc       0x5c build/LAN9253_D51_SPI_Beckhoff_mode/production/_ext/108134065/emcy.o
                0x0000a7fc                GetOutOfSendEmcyQueue

.text.FoE_ReadData%172
                0x0000a858       0x5c
 .text.FoE_ReadData
                0x0000a858       0x5c build/LAN9253_D51_SPI_Beckhoff_mode/production/_ext/108134065/sample_app.o
                0x0000a858                FoE_ReadData

.text.APP_Tasks%173
                0x0000a8b4       0x5c
 .text.APP_Tasks
                0x0000a8b4       0x5c build/LAN9253_D51_SPI_Beckhoff_mode/production/_ext/1360937237/app.o
                0x0000a8b4                APP_Tasks

.text._DRV_SPI_TransferObjAddToList%174
                0x0000a910       0x5a
 .text._DRV_SPI_TransferObjAddToList
                0x0000a910       0x5a build/LAN9253_D51_SPI_Beckhoff_mode/production/_ext/2070931557/drv_spi.o

.text.GetOutOfMbxQueue%175
                0x0000a96a       0x58
 .text.GetOutOfMbxQueue
                0x0000a96a       0x58 build/LAN9253_D51_SPI_Beckhoff_mode/production/_ext/108134065/mailbox.o
                0x0000a96a                GetOutOfMbxQueue

.text.OBJ_GetEntryDesc%176
                0x0000a9c2       0x58
 .text.OBJ_GetEntryDesc
                0x0000a9c2       0x58 build/LAN9253_D51_SPI_Beckhoff_mode/production/_ext/108134065/objdef.o
                0x0000a9c2                OBJ_GetEntryDesc

.text.CLOCK_Initialize%177
                0x0000aa1c       0x54
 .text.CLOCK_Initialize
                0x0000aa1c       0x54 build/LAN9253_D51_SPI_Beckhoff_mode/production/_ext/1984496892/plib_clock.o
                0x0000aa1c                CLOCK_Initialize

.text.__NVIC_SetPriority%178
                0x0000aa70       0x54
 .text.__NVIC_SetPriority
                0x0000aa70       0x54 build/LAN9253_D51_SPI_Beckhoff_mode/production/_ext/1865468468/plib_nvic.o

.text.PutInMbxQueue%179
                0x0000aac4       0x52
 .text.PutInMbxQueue
                0x0000aac4       0x52 build/LAN9253_D51_SPI_Beckhoff_mode/production/_ext/108134065/mailbox.o
                0x0000aac4                PutInMbxQueue

.text._SPI_Rx%180
                0x0000ab18       0x50
 .text._SPI_Rx  0x0000ab18       0x50 build/LAN9253_D51_SPI_Beckhoff_mode/production/_ext/2070931557/drv_spi.o
                0x0000ab18                _SPI_Rx

.text._SPI_Tx%181
                0x0000ab68       0x50
 .text._SPI_Tx  0x0000ab68       0x50 build/LAN9253_D51_SPI_Beckhoff_mode/production/_ext/2070931557/drv_spi.o
                0x0000ab68                _SPI_Tx

.text.SYS_Initialize%182
                0x0000abb8       0x50
 .text.SYS_Initialize
                0x0000abb8       0x50 build/LAN9253_D51_SPI_Beckhoff_mode/production/_ext/1171490990/initialization.o
                0x0000abb8                SYS_Initialize

.text.UpdateEEPROMLoadedState%183
                0x0000ac08       0x4c
 .text.UpdateEEPROMLoadedState
                0x0000ac08       0x4c build/LAN9253_D51_SPI_Beckhoff_mode/production/_ext/108134065/ecatslv.o
                0x0000ac08                UpdateEEPROMLoadedState

.text.DisableSyncManChannel%184
                0x0000ac54       0x4c
 .text.DisableSyncManChannel
                0x0000ac54       0x4c build/LAN9253_D51_SPI_Beckhoff_mode/production/_ext/108134065/ecatslv.o
                0x0000ac54                DisableSyncManChannel

.text.CheckIfEcatError%185
                0x0000aca0       0x4c
 .text.CheckIfEcatError
                0x0000aca0       0x4c build/LAN9253_D51_SPI_Beckhoff_mode/production/_ext/108134065/ecatslv.o
                0x0000aca0                CheckIfEcatError

.text._DRV_SPI_ResourceLock%186
                0x0000acec       0x4a
 .text._DRV_SPI_ResourceLock
                0x0000acec       0x4a build/LAN9253_D51_SPI_Beckhoff_mode/production/_ext/2070931557/drv_spi.o

.text.HW_EscReadIsr%187
                0x0000ad36       0x4a
 .text.HW_EscReadIsr
                0x0000ad36       0x4a build/LAN9253_D51_SPI_Beckhoff_mode/production/_ext/108147519/LAN925x.o
                0x0000ad36                HW_EscReadIsr

.text.HW_EscWriteIsr%188
                0x0000ad80       0x4a
 .text.HW_EscWriteIsr
                0x0000ad80       0x4a build/LAN9253_D51_SPI_Beckhoff_mode/production/_ext/108147519/LAN925x.o
                0x0000ad80                HW_EscWriteIsr

.text.EnableSyncManChannel%189
                0x0000adca       0x4a
 .text.EnableSyncManChannel
                0x0000adca       0x4a build/LAN9253_D51_SPI_Beckhoff_mode/production/_ext/108134065/ecatslv.o
                0x0000adca                EnableSyncManChannel

.text.__NVIC_SetPriorityGrouping%190
                0x0000ae14       0x48
 .text.__NVIC_SetPriorityGrouping
                0x0000ae14       0x48 build/LAN9253_D51_SPI_Beckhoff_mode/production/_ext/1865468468/plib_nvic.o

.text.FOE_Read%191
                0x0000ae5c       0x48
 .text.FOE_Read
                0x0000ae5c       0x48 build/LAN9253_D51_SPI_Beckhoff_mode/production/_ext/108134065/foeappl.o
                0x0000ae5c                FOE_Read

.text.__libc_init_array%192
                0x0000aea4       0x48
 .text.__libc_init_array
                0x0000aea4       0x48 c:/program files (x86)/microchip/xc32/v2.30/bin/bin/../../lib/gcc/pic32c/6.2.1/../../../../pic32c/lib/v7e-m/fpv4-sp/hard\libc.a(lib_a-init.o)
                0x0000aea4                __libc_init_array

.text.SYS_DMA_AddressingModeSetup%193
                0x0000aeec       0x46
 .text.SYS_DMA_AddressingModeSetup
                0x0000aeec       0x46 build/LAN9253_D51_SPI_Beckhoff_mode/production/_ext/14461671/sys_dma.o
                0x0000aeec                SYS_DMA_AddressingModeSetup

.text.ResetALEventMask%194
                0x0000af32       0x46
 .text.ResetALEventMask
                0x0000af32       0x46 build/LAN9253_D51_SPI_Beckhoff_mode/production/_ext/108134065/ecatslv.o
                0x0000af32                ResetALEventMask

.text.SetALEventMask%195
                0x0000af78       0x46
 .text.SetALEventMask
                0x0000af78       0x46 build/LAN9253_D51_SPI_Beckhoff_mode/production/_ext/108134065/ecatslv.o
                0x0000af78                SetALEventMask

.text._DRV_SPI_RemoveTransferObjFromList%196
                0x0000afbe       0x44
 .text._DRV_SPI_RemoveTransferObjFromList
                0x0000afbe       0x44 build/LAN9253_D51_SPI_Beckhoff_mode/production/_ext/2070931557/drv_spi.o

.text.GCLK0_Initialize%197
                0x0000b004       0x44
 .text.GCLK0_Initialize
                0x0000b004       0x44 build/LAN9253_D51_SPI_Beckhoff_mode/production/_ext/1984496892/plib_clock.o

.text.__NVIC_DisableIRQ%198
                0x0000b048       0x44
 .text.__NVIC_DisableIRQ
                0x0000b048       0x44 build/LAN9253_D51_SPI_Beckhoff_mode/production/_ext/1881668453/sys_int.o

.text.SYS_INT_SourceDisable%199
                0x0000b08c       0x44
 .text.SYS_INT_SourceDisable
                0x0000b08c       0x44 build/LAN9253_D51_SPI_Beckhoff_mode/production/_ext/1881668453/sys_int.o
                0x0000b08c                SYS_INT_SourceDisable

.text.FPU_Enable%200
                0x0000b0d0       0x44
 .text.FPU_Enable
                0x0000b0d0       0x44 build/LAN9253_D51_SPI_Beckhoff_mode/production/_ext/1171490990/startup_xc32.o

.text.COE_ObjDictionaryInit%201
                0x0000b114       0x44
 .text.COE_ObjDictionaryInit
                0x0000b114       0x44 build/LAN9253_D51_SPI_Beckhoff_mode/production/_ext/108134065/coeappl.o
                0x0000b114                COE_ObjDictionaryInit

.text.Sync1_Isr%202
                0x0000b158       0x44
 .text.Sync1_Isr
                0x0000b158       0x44 build/LAN9253_D51_SPI_Beckhoff_mode/production/_ext/108134065/ecatappl.o
                0x0000b158                Sync1_Isr

.text.PutInEmptyEmcyQueue%203
                0x0000b19c       0x44
 .text.PutInEmptyEmcyQueue
                0x0000b19c       0x44 build/LAN9253_D51_SPI_Beckhoff_mode/production/_ext/108134065/emcy.o
                0x0000b19c                PutInEmptyEmcyQueue

.text.PutInSendEmcyQueue%204
                0x0000b1e0       0x44
 .text.PutInSendEmcyQueue
                0x0000b1e0       0x44 build/LAN9253_D51_SPI_Beckhoff_mode/production/_ext/108134065/emcy.o
                0x0000b1e0                PutInSendEmcyQueue

.text.AddObjectsToObjDictionary%205
                0x0000b224       0x42
 .text.AddObjectsToObjDictionary
                0x0000b224       0x42 build/LAN9253_D51_SPI_Beckhoff_mode/production/_ext/108134065/coeappl.o
                0x0000b224                AddObjectsToObjDictionary

.text%206       0x0000b268       0x40
 .text          0x0000b268       0x40 c:/program files (x86)/microchip/xc32/v2.30/bin/bin/../../lib/gcc/pic32c/6.2.1/v7e-m/fpv4-sp/hard/crtbegin.o

.text.SYSTICK_TimerInitialize%207
                0x0000b2a8       0x40
 .text.SYSTICK_TimerInitialize
                0x0000b2a8       0x40 build/LAN9253_D51_SPI_Beckhoff_mode/production/_ext/1827571544/plib_systick.o
                0x0000b2a8                SYSTICK_TimerInitialize

.text.__NVIC_GetEnableIRQ%208
                0x0000b2e8       0x40
 .text.__NVIC_GetEnableIRQ
                0x0000b2e8       0x40 build/LAN9253_D51_SPI_Beckhoff_mode/production/_ext/1881668453/sys_int.o

.text.ICache_Enable%209
                0x0000b328       0x40
 .text.ICache_Enable
                0x0000b328       0x40 build/LAN9253_D51_SPI_Beckhoff_mode/production/_ext/1171490990/startup_xc32.o

.rodata.aName0x10F1%210
                0x0000b368       0x40
 .rodata.aName0x10F1
                0x0000b368       0x40 build/LAN9253_D51_SPI_Beckhoff_mode/production/_ext/108134065/coeappl.o
                0x0000b368                aName0x10F1

.text.COE_ClearObjDictionary%211
                0x0000b3a8       0x40
 .text.COE_ClearObjDictionary
                0x0000b3a8       0x40 build/LAN9253_D51_SPI_Beckhoff_mode/production/_ext/108134065/coeappl.o
                0x0000b3a8                COE_ClearObjDictionary

.text.SYS_DMA_DataWidthSetup%212
                0x0000b3e8       0x3e
 .text.SYS_DMA_DataWidthSetup
                0x0000b3e8       0x3e build/LAN9253_D51_SPI_Beckhoff_mode/production/_ext/14461671/sys_dma.o
                0x0000b3e8                SYS_DMA_DataWidthSetup

.text.DMAC_ChannelCallbackRegister%213
                0x0000b428       0x3c
 .text.DMAC_ChannelCallbackRegister
                0x0000b428       0x3c build/LAN9253_D51_SPI_Beckhoff_mode/production/_ext/1865161661/plib_dmac.o
                0x0000b428                DMAC_ChannelCallbackRegister

.text.__NVIC_EnableIRQ%214
                0x0000b464       0x78
 .text.__NVIC_EnableIRQ
                0x0000b464       0x3c build/LAN9253_D51_SPI_Beckhoff_mode/production/_ext/1865468468/plib_nvic.o
 .text.__NVIC_EnableIRQ
                0x0000b4a0       0x3c build/LAN9253_D51_SPI_Beckhoff_mode/production/_ext/1881668453/sys_int.o

.rodata.aName0x1018%216
                0x0000b4dc       0x3c
 .rodata.aName0x1018
                0x0000b4dc       0x3c build/LAN9253_D51_SPI_Beckhoff_mode/production/_ext/108134065/coeappl.o
                0x0000b4dc                aName0x1018

.text.ECAT_Application%217
                0x0000b518       0x3c
 .text.ECAT_Application
                0x0000b518       0x3c build/LAN9253_D51_SPI_Beckhoff_mode/production/_ext/108134065/ecatappl.o
                0x0000b518                ECAT_Application

.text.APP_RunApplication%218
                0x0000b554       0x3c
 .text.APP_RunApplication
                0x0000b554       0x3c build/LAN9253_D51_SPI_Beckhoff_mode/production/_ext/1360937237/app.o

.text.PORT_PinSet%219
                0x0000b590       0x38
 .text.PORT_PinSet
                0x0000b590       0x38 build/LAN9253_D51_SPI_Beckhoff_mode/production/_ext/2070931557/drv_spi.o

.text.PORT_PinClear%220
                0x0000b5c8       0x38
 .text.PORT_PinClear
                0x0000b5c8       0x38 build/LAN9253_D51_SPI_Beckhoff_mode/production/_ext/2070931557/drv_spi.o

.text.QSPI_IsBusy%221
                0x0000b600       0x38
 .text.QSPI_IsBusy
                0x0000b600       0x38 build/LAN9253_D51_SPI_Beckhoff_mode/production/_ext/1865555181/plib_qspi_spi.o
                0x0000b600                QSPI_IsBusy

.text.PORT_PinSet%222
                0x0000b638       0x38
 .text.PORT_PinSet
                0x0000b638       0x38 build/LAN9253_D51_SPI_Beckhoff_mode/production/_ext/1671622979/Drivers.o

.text.PORT_PinClear%223
                0x0000b670       0x38
 .text.PORT_PinClear
                0x0000b670       0x38 build/LAN9253_D51_SPI_Beckhoff_mode/production/_ext/1671622979/Drivers.o

.text.PORT_PinOutputEnable%224
                0x0000b6a8       0x38
 .text.PORT_PinOutputEnable
                0x0000b6a8       0x38 build/LAN9253_D51_SPI_Beckhoff_mode/production/_ext/1671622979/Drivers.o

.text.PORT_PinSet%225
                0x0000b6e0       0x38
 .text.PORT_PinSet
                0x0000b6e0       0x38 build/LAN9253_D51_SPI_Beckhoff_mode/production/_ext/108147519/LAN925x.o

.text.PORT_PinClear%226
                0x0000b718       0x38
 .text.PORT_PinClear
                0x0000b718       0x38 build/LAN9253_D51_SPI_Beckhoff_mode/production/_ext/108147519/LAN925x.o

.text.FOE_Write%227
                0x0000b750       0x38
 .text.FOE_Write
                0x0000b750       0x38 build/LAN9253_D51_SPI_Beckhoff_mode/production/_ext/108134065/foeappl.o
                0x0000b750                FOE_Write

.text.FOE_Ack%228
                0x0000b788       0x38
 .text.FOE_Ack  0x0000b788       0x38 build/LAN9253_D51_SPI_Beckhoff_mode/production/_ext/108134065/foeappl.o
                0x0000b788                FOE_Ack

.text.APP_FW_startDownload%229
                0x0000b7c0       0x38
 .text.APP_FW_startDownload
                0x0000b7c0       0x38 build/LAN9253_D51_SPI_Beckhoff_mode/production/_ext/108134065/sample_app.o
                0x0000b7c0                APP_FW_startDownload

.text.OBJ_GetObjectHandle%230
                0x0000b7f8       0x36
 .text.OBJ_GetObjectHandle
                0x0000b7f8       0x36 build/LAN9253_D51_SPI_Beckhoff_mode/production/_ext/108134065/objdef.o
                0x0000b7f8                OBJ_GetObjectHandle

.text.NVMCTRL_BlockErase%231
                0x0000b830       0x34
 .text.NVMCTRL_BlockErase
                0x0000b830       0x34 build/LAN9253_D51_SPI_Beckhoff_mode/production/_ext/1593096446/plib_nvmctrl.o
                0x0000b830                NVMCTRL_BlockErase

.rodata.drvSPI0InitData%232
                0x0000b864       0x30
 .rodata.drvSPI0InitData
                0x0000b864       0x30 build/LAN9253_D51_SPI_Beckhoff_mode/production/_ext/1171490990/initialization.o
                0x0000b864                drvSPI0InitData

.text.FOE_ContinueInd%233
                0x0000b894       0x30
 .text.FOE_ContinueInd
                0x0000b894       0x30 build/LAN9253_D51_SPI_Beckhoff_mode/production/_ext/108134065/ecatfoe.o
                0x0000b894                FOE_ContinueInd

.text.GetSyncMan%234
                0x0000b8c4       0x30
 .text.GetSyncMan
                0x0000b8c4       0x30 build/LAN9253_D51_SPI_Beckhoff_mode/production/_ext/108134065/ecatslv.o
                0x0000b8c4                GetSyncMan

.text._DRV_SPI_MAKE_HANDLE%235
                0x0000b8f4       0x2c
 .text._DRV_SPI_MAKE_HANDLE
                0x0000b8f4       0x2c build/LAN9253_D51_SPI_Beckhoff_mode/production/_ext/2070931557/drv_spi.o

.text._DRV_SPI_UPDATE_TOKEN%236
                0x0000b920       0x2c
 .text._DRV_SPI_UPDATE_TOKEN
                0x0000b920       0x2c build/LAN9253_D51_SPI_Beckhoff_mode/production/_ext/2070931557/drv_spi.o

.text._DRV_SPI_ResourceUnlock%237
                0x0000b94c       0x2c
 .text._DRV_SPI_ResourceUnlock
                0x0000b94c       0x2c build/LAN9253_D51_SPI_Beckhoff_mode/production/_ext/2070931557/drv_spi.o

.text.GCLK1_Initialize%238
                0x0000b978       0x2c
 .text.GCLK1_Initialize
                0x0000b978       0x2c build/LAN9253_D51_SPI_Beckhoff_mode/production/_ext/1984496892/plib_clock.o

.text.GCLK2_Initialize%239
                0x0000b9a4       0x2c
 .text.GCLK2_Initialize
                0x0000b9a4       0x2c build/LAN9253_D51_SPI_Beckhoff_mode/production/_ext/1984496892/plib_clock.o

.text.DMAC_ChannelSettingsGet%240
                0x0000b9d0       0x2c
 .text.DMAC_ChannelSettingsGet
                0x0000b9d0       0x2c build/LAN9253_D51_SPI_Beckhoff_mode/production/_ext/1865161661/plib_dmac.o
                0x0000b9d0                DMAC_ChannelSettingsGet

.text.EIC_EXTINT_0_InterruptHandler%241
                0x0000b9fc       0x2c
 .text.EIC_EXTINT_0_InterruptHandler
                0x0000b9fc       0x2c build/LAN9253_D51_SPI_Beckhoff_mode/production/_ext/60167341/plib_eic.o
                0x0000b9fc                EIC_EXTINT_0_InterruptHandler

.text.EIC_EXTINT_1_InterruptHandler%242
                0x0000ba28       0x2c
 .text.EIC_EXTINT_1_InterruptHandler
                0x0000ba28       0x2c build/LAN9253_D51_SPI_Beckhoff_mode/production/_ext/60167341/plib_eic.o
                0x0000ba28                EIC_EXTINT_1_InterruptHandler

.text.EIC_EXTINT_7_InterruptHandler%243
                0x0000ba54       0x2c
 .text.EIC_EXTINT_7_InterruptHandler
                0x0000ba54       0x2c build/LAN9253_D51_SPI_Beckhoff_mode/production/_ext/60167341/plib_eic.o
                0x0000ba54                EIC_EXTINT_7_InterruptHandler

.text.SysTick_Handler%244
                0x0000ba80       0x2c
 .text.SysTick_Handler
                0x0000ba80       0x2c build/LAN9253_D51_SPI_Beckhoff_mode/production/_ext/1827571544/plib_systick.o
                0x0000ba80                SysTick_Handler

.text.SYS_INT_Disable%245
                0x0000baac       0x2c
 .text.SYS_INT_Disable
                0x0000baac       0x2c build/LAN9253_D51_SPI_Beckhoff_mode/production/_ext/1881668453/sys_int.o
                0x0000baac                SYS_INT_Disable

.rodata.aName0x1601%246
                0x0000bad8       0x2c
 .rodata.aName0x1601
                0x0000bad8       0x2c build/LAN9253_D51_SPI_Beckhoff_mode/production/_ext/108134065/coeappl.o
                0x0000bad8                aName0x1601

.rodata.aName0x1A00%247
                0x0000bb04       0x2c
 .rodata.aName0x1A00
                0x0000bb04       0x2c build/LAN9253_D51_SPI_Beckhoff_mode/production/_ext/108134065/coeappl.o
                0x0000bb04                aName0x1A00

.text.FOE_Init%248
                0x0000bb30       0x2c
 .text.FOE_Init
                0x0000bb30       0x2c build/LAN9253_D51_SPI_Beckhoff_mode/production/_ext/108134065/ecatfoe.o
                0x0000bb30                FOE_Init

.text._sbrk%249
                0x0000bb5c       0x2c
 .text._sbrk    0x0000bb5c       0x2c c:/program files (x86)/microchip/xc32/v2.30/bin/bin/../../lib/gcc/pic32c/6.2.1/../../../../pic32c/lib/v7e-m/fpv4-sp/hard\libpic32c.a(sbrk.o)
                0x0000bb5c                _sbrk

.text.DRV_SPI_WriteTransferAdd%250
                0x0000bb88       0x2a
 .text.DRV_SPI_WriteTransferAdd
                0x0000bb88       0x2a build/LAN9253_D51_SPI_Beckhoff_mode/production/_ext/2070931557/drv_spi.o
                0x0000bb88                DRV_SPI_WriteTransferAdd

.text.DRV_SPI_ReadTransferAdd%251
                0x0000bbb2       0x2a
 .text.DRV_SPI_ReadTransferAdd
                0x0000bbb2       0x2a build/LAN9253_D51_SPI_Beckhoff_mode/production/_ext/2070931557/drv_spi.o
                0x0000bbb2                DRV_SPI_ReadTransferAdd

.text.SYS_INT_Restore%252
                0x0000bbdc       0x2a
 .text.SYS_INT_Restore
                0x0000bbdc       0x2a build/LAN9253_D51_SPI_Beckhoff_mode/production/_ext/1881668453/sys_int.o
                0x0000bbdc                SYS_INT_Restore

.text.SYS_INT_SourceRestore%253
                0x0000bc06       0x2a
 .text.SYS_INT_SourceRestore
                0x0000bc06       0x2a build/LAN9253_D51_SPI_Beckhoff_mode/production/_ext/1881668453/sys_int.o
                0x0000bc06                SYS_INT_SourceRestore

.text.OSCCTRL_Initialize%254
                0x0000bc30       0x28
 .text.OSCCTRL_Initialize
                0x0000bc30       0x28 build/LAN9253_D51_SPI_Beckhoff_mode/production/_ext/1984496892/plib_clock.o

.text.NVMCTRL_IsBusy%255
                0x0000bc58       0x28
 .text.NVMCTRL_IsBusy
                0x0000bc58       0x28 build/LAN9253_D51_SPI_Beckhoff_mode/production/_ext/1593096446/plib_nvmctrl.o
                0x0000bc58                NVMCTRL_IsBusy

.text.QSPI_CallbackRegister%256
                0x0000bc80       0x28
 .text.QSPI_CallbackRegister
                0x0000bc80       0x28 build/LAN9253_D51_SPI_Beckhoff_mode/production/_ext/1865555181/plib_qspi_spi.o
                0x0000bc80                QSPI_CallbackRegister

.text.SYSTICK_TimerCallbackSet%257
                0x0000bca8       0x28
 .text.SYSTICK_TimerCallbackSet
                0x0000bca8       0x28 build/LAN9253_D51_SPI_Beckhoff_mode/production/_ext/1827571544/plib_systick.o
                0x0000bca8                SYSTICK_TimerCallbackSet

.rodata.drvSPI0remapDataBits%258
                0x0000bcd0       0x28
 .rodata.drvSPI0remapDataBits
                0x0000bcd0       0x28 build/LAN9253_D51_SPI_Beckhoff_mode/production/_ext/1171490990/initialization.o
                0x0000bcd0                drvSPI0remapDataBits

.text.ESC_IRQ_cb%259
                0x0000bcf8       0x28
 .text.ESC_IRQ_cb
                0x0000bcf8       0x28 build/LAN9253_D51_SPI_Beckhoff_mode/production/_ext/1671622979/Drivers.o
                0x0000bcf8                ESC_IRQ_cb

.text.APP_FW_StateBOOTtoINIT%260
                0x0000bd20       0x28
 .text.APP_FW_StateBOOTtoINIT
                0x0000bd20       0x28 build/LAN9253_D51_SPI_Beckhoff_mode/production/_ext/108134065/sample_app.o
                0x0000bd20                APP_FW_StateBOOTtoINIT

.text.CSRLengthAlignment%261
                0x0000bd48       0x26
 .text.CSRLengthAlignment
                0x0000bd48       0x26 build/LAN9253_D51_SPI_Beckhoff_mode/production/_ext/1671622979/Drivers.o
                0x0000bd48                CSRLengthAlignment

.text.HW_GetALEventRegister%262
                0x0000bd6e       0x26
 .text.HW_GetALEventRegister
                0x0000bd6e       0x26 build/LAN9253_D51_SPI_Beckhoff_mode/production/_ext/108147519/LAN925x.o
                0x0000bd6e                HW_GetALEventRegister

.text.SYSTICK_TimerStart%263
                0x0000bd94       0x24
 .text.SYSTICK_TimerStart
                0x0000bd94       0x24 build/LAN9253_D51_SPI_Beckhoff_mode/production/_ext/1827571544/plib_systick.o
                0x0000bd94                SYSTICK_TimerStart

.text.TCM_Configure%264
                0x0000bdb8       0x24
 .text.TCM_Configure
                0x0000bdb8       0x24 build/LAN9253_D51_SPI_Beckhoff_mode/production/_ext/1171490990/startup_xc32.o

.text.PDI_Init_SYNC_Interrupts%265
                0x0000bddc       0x24
 .text.PDI_Init_SYNC_Interrupts
                0x0000bddc       0x24 build/LAN9253_D51_SPI_Beckhoff_mode/production/_ext/108147519/ESC_Utils.o
                0x0000bddc                PDI_Init_SYNC_Interrupts

.text.COE_Init%266
                0x0000be00       0x24
 .text.COE_Init
                0x0000be00       0x24 build/LAN9253_D51_SPI_Beckhoff_mode/production/_ext/108134065/ecatcoe.o
                0x0000be00                COE_Init

.text.StopOutputHandler%267
                0x0000be24       0x24
 .text.StopOutputHandler
                0x0000be24       0x24 build/LAN9253_D51_SPI_Beckhoff_mode/production/_ext/108134065/ecatslv.o
                0x0000be24                StopOutputHandler

.text.EMCY_IsQueueEmpty%268
                0x0000be48       0x24
 .text.EMCY_IsQueueEmpty
                0x0000be48       0x24 build/LAN9253_D51_SPI_Beckhoff_mode/production/_ext/108134065/emcy.o
                0x0000be48                EMCY_IsQueueEmpty

.text.FOE_Error%269
                0x0000be6c       0x24
 .text.FOE_Error
                0x0000be6c       0x24 build/LAN9253_D51_SPI_Beckhoff_mode/production/_ext/108134065/foeappl.o
                0x0000be6c                FOE_Error

.text.APPL_InputMapping%270
                0x0000be90       0x24
 .text.APPL_InputMapping
                0x0000be90       0x24 build/LAN9253_D51_SPI_Beckhoff_mode/production/_ext/108134065/sample_app.o
                0x0000be90                APPL_InputMapping

.text.APPL_OutputMapping%271
                0x0000beb4       0x24
 .text.APPL_OutputMapping
                0x0000beb4       0x24 build/LAN9253_D51_SPI_Beckhoff_mode/production/_ext/108134065/sample_app.o
                0x0000beb4                APPL_OutputMapping

.text.APP_BankSwitch%272
                0x0000bed8       0x24
 .text.APP_BankSwitch
                0x0000bed8       0x24 build/LAN9253_D51_SPI_Beckhoff_mode/production/_ext/1360937237/app.o

.text.EMCY_ContinueInd%273
                0x0000befc       0x22
 .text.EMCY_ContinueInd
                0x0000befc       0x22 build/LAN9253_D51_SPI_Beckhoff_mode/production/_ext/108134065/emcy.o
                0x0000befc                EMCY_ContinueInd

.text._DRV_SPI_TransferObjListGet%274
                0x0000bf1e       0x20
 .text._DRV_SPI_TransferObjListGet
                0x0000bf1e       0x20 build/LAN9253_D51_SPI_Beckhoff_mode/production/_ext/2070931557/drv_spi.o

.text.ECAT_SPI_Callback%275
                0x0000bf40       0x20
 .text.ECAT_SPI_Callback
                0x0000bf40       0x20 build/LAN9253_D51_SPI_Beckhoff_mode/production/_ext/1671622979/Drivers.o
                0x0000bf40                ECAT_SPI_Callback

.rodata.asEntryDesc0x1018%276
                0x0000bf60       0x20
 .rodata.asEntryDesc0x1018
                0x0000bf60       0x20 build/LAN9253_D51_SPI_Beckhoff_mode/production/_ext/108134065/coeappl.o
                0x0000bf60                asEntryDesc0x1018

.text.FOE_Busy%277
                0x0000bf80       0x20
 .text.FOE_Busy
                0x0000bf80       0x20 build/LAN9253_D51_SPI_Beckhoff_mode/production/_ext/108134065/foeappl.o
                0x0000bf80                FOE_Busy

.rodata.cBitMask%278
                0x0000bfa0       0x20
 .rodata.cBitMask
                0x0000bfa0       0x20 build/LAN9253_D51_SPI_Beckhoff_mode/production/_ext/108134065/objdef.o
                0x0000bfa0                cBitMask

.text._sbrk_r%279
                0x0000bfc0       0x20
 .text._sbrk_r  0x0000bfc0       0x20 c:/program files (x86)/microchip/xc32/v2.30/bin/bin/../../lib/gcc/pic32c/6.2.1/../../../../pic32c/lib/v7e-m/fpv4-sp/hard\libc.a(lib_a-sbrkr.o)
                0x0000bfc0                _sbrk_r

.text.ESF_PDI_Init%280
                0x0000bfe0       0x1e
 .text.ESF_PDI_Init
                0x0000bfe0       0x1e build/LAN9253_D51_SPI_Beckhoff_mode/production/_ext/1671622979/Drivers.o
                0x0000bfe0                ESF_PDI_Init

.text.HW_GetALEventRegister_Isr%281
                0x0000bffe       0x1e
 .text.HW_GetALEventRegister_Isr
                0x0000bffe       0x1e build/LAN9253_D51_SPI_Beckhoff_mode/production/_ext/108147519/LAN925x.o
                0x0000bffe                HW_GetALEventRegister_Isr

.text.SYS_PORT_PinSet%282
                0x0000c01c       0x1c
 .text.SYS_PORT_PinSet
                0x0000c01c       0x1c build/LAN9253_D51_SPI_Beckhoff_mode/production/_ext/2070931557/drv_spi.o

.text.SYS_PORT_PinClear%283
                0x0000c038       0x1c
 .text.SYS_PORT_PinClear
                0x0000c038       0x1c build/LAN9253_D51_SPI_Beckhoff_mode/production/_ext/2070931557/drv_spi.o

.text.NVMCTRL_Initialize%284
                0x0000c054       0x1c
 .text.NVMCTRL_Initialize
                0x0000c054       0x1c build/LAN9253_D51_SPI_Beckhoff_mode/production/_ext/1593096446/plib_nvmctrl.o
                0x0000c054                NVMCTRL_Initialize

.text.NVMCTRL_BankSwap%285
                0x0000c070       0x1c
 .text.NVMCTRL_BankSwap
                0x0000c070       0x1c build/LAN9253_D51_SPI_Beckhoff_mode/production/_ext/1593096446/plib_nvmctrl.o
                0x0000c070                NVMCTRL_BankSwap

.text.PORT_GroupSet%286
                0x0000c08c       0x1c
 .text.PORT_GroupSet
                0x0000c08c       0x1c build/LAN9253_D51_SPI_Beckhoff_mode/production/_ext/1865521619/plib_port.o
                0x0000c08c                PORT_GroupSet

.text.PORT_GroupClear%287
                0x0000c0a8       0x1c
 .text.PORT_GroupClear
                0x0000c0a8       0x1c build/LAN9253_D51_SPI_Beckhoff_mode/production/_ext/1865521619/plib_port.o
                0x0000c0a8                PORT_GroupClear

.text.PORT_GroupOutputEnable%288
                0x0000c0c4       0x1c
 .text.PORT_GroupOutputEnable
                0x0000c0c4       0x1c build/LAN9253_D51_SPI_Beckhoff_mode/production/_ext/1865521619/plib_port.o
                0x0000c0c4                PORT_GroupOutputEnable

.text.CRITICAL_SECTION_ENTER%289
                0x0000c0e0       0x1c
 .text.CRITICAL_SECTION_ENTER
                0x0000c0e0       0x1c build/LAN9253_D51_SPI_Beckhoff_mode/production/_ext/1671622979/Drivers.o
                0x0000c0e0                CRITICAL_SECTION_ENTER

.text.CRITICAL_SECTION_LEAVE%290
                0x0000c0fc       0x1c
 .text.CRITICAL_SECTION_LEAVE
                0x0000c0fc       0x1c build/LAN9253_D51_SPI_Beckhoff_mode/production/_ext/1671622979/Drivers.o
                0x0000c0fc                CRITICAL_SECTION_LEAVE

.text.SPIChipSelectDisable%291
                0x0000c118       0x1c
 .text.SPIChipSelectDisable
                0x0000c118       0x1c build/LAN9253_D51_SPI_Beckhoff_mode/production/_ext/1671622979/Drivers.o

.text.SPIChipSelectEnable%292
                0x0000c134       0x1c
 .text.SPIChipSelectEnable
                0x0000c134       0x1c build/LAN9253_D51_SPI_Beckhoff_mode/production/_ext/1671622979/Drivers.o

.text.ECAT_SysTick_Handler%293
                0x0000c150       0x1c
 .text.ECAT_SysTick_Handler
                0x0000c150       0x1c build/LAN9253_D51_SPI_Beckhoff_mode/production/_ext/1671622979/Drivers.o
                0x0000c150                ECAT_SysTick_Handler

.rodata.aName0x1C12%294
                0x0000c16c       0x1c
 .rodata.aName0x1C12
                0x0000c16c       0x1c build/LAN9253_D51_SPI_Beckhoff_mode/production/_ext/108134065/coeappl.o
                0x0000c16c                aName0x1C12

.rodata.aName0x1C13%295
                0x0000c188       0x1c
 .rodata.aName0x1C13
                0x0000c188       0x1c build/LAN9253_D51_SPI_Beckhoff_mode/production/_ext/108134065/coeappl.o
                0x0000c188                aName0x1C13

.text.OSC32KCTRL_Initialize%296
                0x0000c1a4       0x18
 .text.OSC32KCTRL_Initialize
                0x0000c1a4       0x18 build/LAN9253_D51_SPI_Beckhoff_mode/production/_ext/1984496892/plib_clock.o

.rodata.drvSPI0InterruptSources%297
                0x0000c1bc       0x18
 .rodata.drvSPI0InterruptSources
                0x0000c1bc       0x18 build/LAN9253_D51_SPI_Beckhoff_mode/production/_ext/1171490990/initialization.o
                0x0000c1bc                drvSPI0InterruptSources

.text.PDI_Init_SYSTick_Interrupt%298
                0x0000c1d4       0x18
 .text.PDI_Init_SYSTick_Interrupt
                0x0000c1d4       0x18 build/LAN9253_D51_SPI_Beckhoff_mode/production/_ext/1671622979/Drivers.o

.text.PDI_IRQ_Interrupt%299
                0x0000c1ec       0x18
 .text.PDI_IRQ_Interrupt
                0x0000c1ec       0x18 build/LAN9253_D51_SPI_Beckhoff_mode/production/_ext/108147519/ESC_Utils.o
                0x0000c1ec                PDI_IRQ_Interrupt

.text.COE_GetObjectDictionary%300
                0x0000c204       0x18
 .text.COE_GetObjectDictionary
                0x0000c204       0x18 build/LAN9253_D51_SPI_Beckhoff_mode/production/_ext/108134065/coeappl.o
                0x0000c204                COE_GetObjectDictionary

.text.BackToInitTransition%301
                0x0000c21c       0x18
 .text.BackToInitTransition
                0x0000c21c       0x18 build/LAN9253_D51_SPI_Beckhoff_mode/production/_ext/108134065/ecatslv.o
                0x0000c21c                BackToInitTransition

.text.OBJ_GetObjDesc%302
                0x0000c234       0x18
 .text.OBJ_GetObjDesc
                0x0000c234       0x18 build/LAN9253_D51_SPI_Beckhoff_mode/production/_ext/108134065/objdef.o
                0x0000c234                OBJ_GetObjDesc

.text.APP_FW_GetDownloadStateFinished%303
                0x0000c24c       0x18
 .text.APP_FW_GetDownloadStateFinished
                0x0000c24c       0x18 build/LAN9253_D51_SPI_Beckhoff_mode/production/_ext/108134065/sample_app.o
                0x0000c24c                APP_FW_GetDownloadStateFinished

.text.APP_Initialize%304
                0x0000c264       0x18
 .text.APP_Initialize
                0x0000c264       0x18 build/LAN9253_D51_SPI_Beckhoff_mode/production/_ext/1360937237/app.o
                0x0000c264                APP_Initialize

.text.BL_Start%305
                0x0000c27c       0x16
 .text.BL_Start
                0x0000c27c       0x16 build/LAN9253_D51_SPI_Beckhoff_mode/production/_ext/108134065/bootmode.o
                0x0000c27c                BL_Start

.text.EMCY_GetEmcyBuffer%306
                0x0000c292       0x16
 .text.EMCY_GetEmcyBuffer
                0x0000c292       0x16 build/LAN9253_D51_SPI_Beckhoff_mode/production/_ext/108134065/emcy.o
                0x0000c292                EMCY_GetEmcyBuffer

.text.APPL_AckErrorInd%307
                0x0000c2a8       0x16
 .text.APPL_AckErrorInd
                0x0000c2a8       0x16 build/LAN9253_D51_SPI_Beckhoff_mode/production/_ext/108134065/sample_app.o
                0x0000c2a8                APPL_AckErrorInd

.text.APPL_StartInputHandler%308
                0x0000c2be       0x16
 .text.APPL_StartInputHandler
                0x0000c2be       0x16 build/LAN9253_D51_SPI_Beckhoff_mode/production/_ext/108134065/sample_app.o
                0x0000c2be                APPL_StartInputHandler

.text.memcpy%309
                0x0000c2d4       0x16
 .text.memcpy   0x0000c2d4       0x16 c:/program files (x86)/microchip/xc32/v2.30/bin/bin/../../lib/gcc/pic32c/6.2.1/../../../../pic32c/lib/v7e-m/fpv4-sp/hard\libc.a(lib_a-memcpy-stub.o)
                0x0000c2d4                memcpy

.text.EtherCAT_QSPI_CallbackRegistration%310
                0x0000c2ec       0x14
 .text.EtherCAT_QSPI_CallbackRegistration
                0x0000c2ec       0x14 build/LAN9253_D51_SPI_Beckhoff_mode/production/_ext/1671622979/Drivers.o
                0x0000c2ec                EtherCAT_QSPI_CallbackRegistration

.text.ESC_Sync0_cb%311
                0x0000c300       0x14
 .text.ESC_Sync0_cb
                0x0000c300       0x14 build/LAN9253_D51_SPI_Beckhoff_mode/production/_ext/1671622979/Drivers.o
                0x0000c300                ESC_Sync0_cb

.text.ESC_Sync1_cb%312
                0x0000c314       0x14
 .text.ESC_Sync1_cb
                0x0000c314       0x14 build/LAN9253_D51_SPI_Beckhoff_mode/production/_ext/1671622979/Drivers.o
                0x0000c314                ESC_Sync1_cb

.rodata.aName0x6000%313
                0x0000c328       0x14
 .rodata.aName0x6000
                0x0000c328       0x14 build/LAN9253_D51_SPI_Beckhoff_mode/production/_ext/108134065/coeappl.o
                0x0000c328                aName0x6000

.rodata.aName0x7010%314
                0x0000c33c       0x14
 .rodata.aName0x7010
                0x0000c33c       0x14 build/LAN9253_D51_SPI_Beckhoff_mode/production/_ext/108134065/coeappl.o
                0x0000c33c                aName0x7010

.rodata.aName0x1009%315
                0x0000c350       0x14
 .rodata.aName0x1009
                0x0000c350       0x14 build/LAN9253_D51_SPI_Beckhoff_mode/production/_ext/108134065/coeappl.o
                0x0000c350                aName0x1009

.rodata.aName0x100A%316
                0x0000c364       0x14
 .rodata.aName0x100A
                0x0000c364       0x14 build/LAN9253_D51_SPI_Beckhoff_mode/production/_ext/108134065/coeappl.o
                0x0000c364                aName0x100A

.rodata.asEntryDesc0x10F1%317
                0x0000c378       0x14
 .rodata.asEntryDesc0x10F1
                0x0000c378       0x14 build/LAN9253_D51_SPI_Beckhoff_mode/production/_ext/108134065/coeappl.o
                0x0000c378                asEntryDesc0x10F1

.rodata.aName0x10F8%318
                0x0000c38c       0x14
 .rodata.aName0x10F8
                0x0000c38c       0x14 build/LAN9253_D51_SPI_Beckhoff_mode/production/_ext/108134065/coeappl.o
                0x0000c38c                aName0x10F8

.rodata.aName0x1C00%319
                0x0000c3a0       0x14
 .rodata.aName0x1C00
                0x0000c3a0       0x14 build/LAN9253_D51_SPI_Beckhoff_mode/production/_ext/108134065/coeappl.o
                0x0000c3a0                aName0x1C00

.rodata.drvSPI0PlibAPI%320
                0x0000c3b4       0x10
 .rodata.drvSPI0PlibAPI
                0x0000c3b4       0x10 build/LAN9253_D51_SPI_Beckhoff_mode/production/_ext/1171490990/initialization.o
                0x0000c3b4                drvSPI0PlibAPI

.rodata.aName0x1001%321
                0x0000c3c4       0x10
 .rodata.aName0x1001
                0x0000c3c4       0x10 build/LAN9253_D51_SPI_Beckhoff_mode/production/_ext/108134065/coeappl.o
                0x0000c3c4                aName0x1001

.text.APPL_StartMailboxHandler%322
                0x0000c3d4       0x10
 .text.APPL_StartMailboxHandler
                0x0000c3d4       0x10 build/LAN9253_D51_SPI_Beckhoff_mode/production/_ext/108134065/sample_app.o
                0x0000c3d4                APPL_StartMailboxHandler

.text.APPL_StopInputHandler%323
                0x0000c3e4       0x10
 .text.APPL_StopInputHandler
                0x0000c3e4       0x10 build/LAN9253_D51_SPI_Beckhoff_mode/production/_ext/108134065/sample_app.o
                0x0000c3e4                APPL_StopInputHandler

.text.APPL_StartOutputHandler%324
                0x0000c3f4       0x10
 .text.APPL_StartOutputHandler
                0x0000c3f4       0x10 build/LAN9253_D51_SPI_Beckhoff_mode/production/_ext/108134065/sample_app.o
                0x0000c3f4                APPL_StartOutputHandler

.text.APPL_StopOutputHandler%325
                0x0000c404       0x10
 .text.APPL_StopOutputHandler
                0x0000c404       0x10 build/LAN9253_D51_SPI_Beckhoff_mode/production/_ext/108134065/sample_app.o
                0x0000c404                APPL_StopOutputHandler

.text.main%326  0x0000c414       0x10
 .text.main     0x0000c414       0x10 build/LAN9253_D51_SPI_Beckhoff_mode/production/_ext/1360937237/main.o
                0x0000c414                main

.text.malloc%327
                0x0000c424       0x10
 .text.malloc   0x0000c424       0x10 c:/program files (x86)/microchip/xc32/v2.30/bin/bin/../../lib/gcc/pic32c/6.2.1/../../../../pic32c/lib/v7e-m/fpv4-sp/hard\libc.a(lib_a-malloc.o)
                0x0000c424                malloc

.text.free%328  0x0000c434       0x10
 .text.free     0x0000c434       0x10 c:/program files (x86)/microchip/xc32/v2.30/bin/bin/../../lib/gcc/pic32c/6.2.1/../../../../pic32c/lib/v7e-m/fpv4-sp/hard\libc.a(lib_a-malloc.o)
                0x0000c434                free

.text.memset%329
                0x0000c444       0x10
 .text.memset   0x0000c444       0x10 c:/program files (x86)/microchip/xc32/v2.30/bin/bin/../../lib/gcc/pic32c/6.2.1/../../../../pic32c/lib/v7e-m/fpv4-sp/hard\libc.a(lib_a-memset.o)
                0x0000c444                memset

.text%330       0x0000c454       0x10
 .text          0x0000c454       0x10 c:/program files (x86)/microchip/xc32/v2.30/bin/bin/../../lib/gcc/pic32c/6.2.1/../../../../pic32c/lib/v7e-m/fpv4-sp/hard\libc.a(lib_a-strlen.o)
                0x0000c454                strlen

.text.DFLL_Initialize%331
                0x0000c464        0xe
 .text.DFLL_Initialize
                0x0000c464        0xe build/LAN9253_D51_SPI_Beckhoff_mode/production/_ext/1984496892/plib_clock.o

.text.DMAC_0_Handler%332
                0x0000c472        0xe
 .text.DMAC_0_Handler
                0x0000c472        0xe build/LAN9253_D51_SPI_Beckhoff_mode/production/_ext/1865161661/plib_dmac.o
                0x0000c472                DMAC_0_Handler

.text.DMAC_1_Handler%333
                0x0000c480        0xe
 .text.DMAC_1_Handler
                0x0000c480        0xe build/LAN9253_D51_SPI_Beckhoff_mode/production/_ext/1865161661/plib_dmac.o
                0x0000c480                DMAC_1_Handler

.text.EVSYS_Initialize%334
                0x0000c48e        0xe
 .text.EVSYS_Initialize
                0x0000c48e        0xe build/LAN9253_D51_SPI_Beckhoff_mode/production/_ext/1986646378/plib_evsys.o
                0x0000c48e                EVSYS_Initialize

.text.BL_Stop%335
                0x0000c49c        0xe
 .text.BL_Stop  0x0000c49c        0xe build/LAN9253_D51_SPI_Beckhoff_mode/production/_ext/108134065/bootmode.o
                0x0000c49c                BL_Stop

.text.APPL_StopMailboxHandler%336
                0x0000c4aa        0xe
 .text.APPL_StopMailboxHandler
                0x0000c4aa        0xe build/LAN9253_D51_SPI_Beckhoff_mode/production/_ext/108134065/sample_app.o
                0x0000c4aa                APPL_StopMailboxHandler

.text.SYS_Tasks%337
                0x0000c4b8        0xc
 .text.SYS_Tasks
                0x0000c4b8        0xc build/LAN9253_D51_SPI_Beckhoff_mode/production/_ext/1171490990/tasks.o
                0x0000c4b8                SYS_Tasks

.text.PDI_Timer_Interrupt%338
                0x0000c4c4        0xc
 .text.PDI_Timer_Interrupt
                0x0000c4c4        0xc build/LAN9253_D51_SPI_Beckhoff_mode/production/_ext/1671622979/Drivers.o
                0x0000c4c4                PDI_Timer_Interrupt

.text.ESC_Init%339
                0x0000c4d0        0xc
 .text.ESC_Init
                0x0000c4d0        0xc build/LAN9253_D51_SPI_Beckhoff_mode/production/_ext/108147519/ESC_Utils.o
                0x0000c4d0                ESC_Init

.rodata.asEntryDesc0x1601%340
                0x0000c4dc        0xc
 .rodata.asEntryDesc0x1601
                0x0000c4dc        0xc build/LAN9253_D51_SPI_Beckhoff_mode/production/_ext/108134065/coeappl.o
                0x0000c4dc                asEntryDesc0x1601

.rodata.asEntryDesc0x1A00%341
                0x0000c4e8        0xc
 .rodata.asEntryDesc0x1A00
                0x0000c4e8        0xc build/LAN9253_D51_SPI_Beckhoff_mode/production/_ext/108134065/coeappl.o
                0x0000c4e8                asEntryDesc0x1A00

.rodata.asEntryDesc0x1C12%342
                0x0000c4f4        0xc
 .rodata.asEntryDesc0x1C12
                0x0000c4f4        0xc build/LAN9253_D51_SPI_Beckhoff_mode/production/_ext/108134065/coeappl.o
                0x0000c4f4                asEntryDesc0x1C12

.rodata.asEntryDesc0x1C13%343
                0x0000c500        0xc
 .rodata.asEntryDesc0x1C13
                0x0000c500        0xc build/LAN9253_D51_SPI_Beckhoff_mode/production/_ext/108134065/coeappl.o
                0x0000c500                asEntryDesc0x1C13

.rodata.asEntryDesc0x6000%344
                0x0000c50c        0xc
 .rodata.asEntryDesc0x6000
                0x0000c50c        0xc build/LAN9253_D51_SPI_Beckhoff_mode/production/_ext/108134065/coeappl.o
                0x0000c50c                asEntryDesc0x6000

.rodata.asEntryDesc0x7010%345
                0x0000c518        0xc
 .rodata.asEntryDesc0x7010
                0x0000c518        0xc build/LAN9253_D51_SPI_Beckhoff_mode/production/_ext/108134065/coeappl.o
                0x0000c518                asEntryDesc0x7010

.rodata.aName0x1000%346
                0x0000c524        0xc
 .rodata.aName0x1000
                0x0000c524        0xc build/LAN9253_D51_SPI_Beckhoff_mode/production/_ext/108134065/coeappl.o
                0x0000c524                aName0x1000

.rodata.aName0x1008%347
                0x0000c530        0xc
 .rodata.aName0x1008
                0x0000c530        0xc build/LAN9253_D51_SPI_Beckhoff_mode/production/_ext/108134065/coeappl.o
                0x0000c530                aName0x1008

.rodata.asEntryDesc0x1C00%348
                0x0000c53c        0xc
 .rodata.asEntryDesc0x1C00
                0x0000c53c        0xc build/LAN9253_D51_SPI_Beckhoff_mode/production/_ext/108134065/coeappl.o
                0x0000c53c                asEntryDesc0x1C00

.rodata.drvSPI0remapClockPolarity%349
                0x0000c548        0x8
 .rodata.drvSPI0remapClockPolarity
                0x0000c548        0x8 build/LAN9253_D51_SPI_Beckhoff_mode/production/_ext/1171490990/initialization.o
                0x0000c548                drvSPI0remapClockPolarity

.rodata.drvSPI0remapClockPhase%350
                0x0000c550        0x8
 .rodata.drvSPI0remapClockPhase
                0x0000c550        0x8 build/LAN9253_D51_SPI_Beckhoff_mode/production/_ext/1171490990/initialization.o
                0x0000c550                drvSPI0remapClockPhase

.rodata.sEntryDesc0x1000%351
                0x0000c558        0x8
 .rodata.sEntryDesc0x1000
                0x0000c558        0x8 build/LAN9253_D51_SPI_Beckhoff_mode/production/_ext/108134065/coeappl.o
                0x0000c558                sEntryDesc0x1000

.rodata.sEntryDesc0x1001%352
                0x0000c560        0x8
 .rodata.sEntryDesc0x1001
                0x0000c560        0x8 build/LAN9253_D51_SPI_Beckhoff_mode/production/_ext/108134065/coeappl.o
                0x0000c560                sEntryDesc0x1001

.rodata.sEntryDesc0x1008%353
                0x0000c568        0x8
 .rodata.sEntryDesc0x1008
                0x0000c568        0x8 build/LAN9253_D51_SPI_Beckhoff_mode/production/_ext/108134065/coeappl.o
                0x0000c568                sEntryDesc0x1008

.rodata.sEntryDesc0x1009%354
                0x0000c570        0x8
 .rodata.sEntryDesc0x1009
                0x0000c570        0x8 build/LAN9253_D51_SPI_Beckhoff_mode/production/_ext/108134065/coeappl.o
                0x0000c570                sEntryDesc0x1009

.rodata.sEntryDesc0x100A%355
                0x0000c578        0x8
 .rodata.sEntryDesc0x100A
                0x0000c578        0x8 build/LAN9253_D51_SPI_Beckhoff_mode/production/_ext/108134065/coeappl.o
                0x0000c578                sEntryDesc0x100A

.rodata.sEntryDesc0x10F8%356
                0x0000c580        0x8
 .rodata.sEntryDesc0x10F8
                0x0000c580        0x8 build/LAN9253_D51_SPI_Beckhoff_mode/production/_ext/108134065/coeappl.o
                0x0000c580                sEntryDesc0x10F8

.rodata.acEmcyCoeHeader%357
                0x0000c588        0x8
 .rodata.acEmcyCoeHeader
                0x0000c588        0x8 build/LAN9253_D51_SPI_Beckhoff_mode/production/_ext/108134065/emcy.o
                0x0000c588                acEmcyCoeHeader

.text.NonMaskableInt_Handler%358
                0x0000c590        0x6
 .text.NonMaskableInt_Handler
                0x0000c590        0x6 build/LAN9253_D51_SPI_Beckhoff_mode/production/_ext/1171490990/exceptions.o
                0x0000c590                NonMaskableInt_Handler

.text.HardFault_Handler%359
                0x0000c596        0x6
 .text.HardFault_Handler
                0x0000c596        0x6 build/LAN9253_D51_SPI_Beckhoff_mode/production/_ext/1171490990/exceptions.o
                0x0000c596                HardFault_Handler

.text.DebugMonitor_Handler%360
                0x0000c59c        0x6
 .text.DebugMonitor_Handler
                0x0000c59c        0x6 build/LAN9253_D51_SPI_Beckhoff_mode/production/_ext/1171490990/exceptions.o
                0x0000c59c                DebugMonitor_Handler

.text.MemoryManagement_Handler%361
                0x0000c5a2        0x6
 .text.MemoryManagement_Handler
                0x0000c5a2        0x6 build/LAN9253_D51_SPI_Beckhoff_mode/production/_ext/1171490990/exceptions.o
                0x0000c5a2                MemoryManagement_Handler

.text.BusFault_Handler%362
                0x0000c5a8        0x6
 .text.BusFault_Handler
                0x0000c5a8        0x6 build/LAN9253_D51_SPI_Beckhoff_mode/production/_ext/1171490990/exceptions.o
                0x0000c5a8                BusFault_Handler

.text.UsageFault_Handler%363
                0x0000c5ae        0x6
 .text.UsageFault_Handler
                0x0000c5ae        0x6 build/LAN9253_D51_SPI_Beckhoff_mode/production/_ext/1171490990/exceptions.o
                0x0000c5ae                UsageFault_Handler

.rodata%364     0x0000c5b4        0x4
 .rodata        0x0000c5b4        0x4 build/LAN9253_D51_SPI_Beckhoff_mode/production/_ext/108134065/sample_app.o

.text.Dummy_Handler%365
                0x00007b2e        0x2
 .text.Dummy_Handler
                0x00007b2e        0x2 build/LAN9253_D51_SPI_Beckhoff_mode/production/_ext/1171490990/interrupts.o
                0x00007b2e                EIC_EXTINT_9_Handler
                0x00007b2e                TCC0_MC5_Handler
                0x00007b2e                SVCall_Handler
                0x00007b2e                SERCOM0_2_Handler
                0x00007b2e                USB_SOF_HSOF_Handler
                0x00007b2e                TCC4_OTHER_Handler
                0x00007b2e                TCC2_MC2_Handler
                0x00007b2e                EVSYS_0_Handler
                0x00007b2e                TRNG_Handler
                0x00007b2e                TC2_Handler
                0x00007b2e                USB_TRCPT0_Handler
                0x00007b2e                DAC_OTHER_Handler
                0x00007b2e                AC_Handler
                0x00007b2e                DAC_EMPTY_0_Handler
                0x00007b2e                DMAC_OTHER_Handler
                0x00007b2e                EIC_EXTINT_5_Handler
                0x00007b2e                SERCOM3_1_Handler
                0x00007b2e                SERCOM4_OTHER_Handler
                0x00007b2e                SERCOM3_2_Handler
                0x00007b2e                EIC_EXTINT_6_Handler
                0x00007b2e                PendSV_Handler
                0x00007b2e                TCC4_MC0_Handler
                0x00007b2e                EVSYS_3_Handler
                0x00007b2e                TCC2_MC0_Handler
                0x00007b2e                PDEC_OTHER_Handler
                0x00007b2e                TCC3_MC0_Handler
                0x00007b2e                PDEC_MC1_Handler
                0x00007b2e                TCC2_MC1_Handler
                0x00007b2e                OSCCTRL_XOSC1_Handler
                0x00007b2e                PDEC_MC0_Handler
                0x00007b2e                EIC_EXTINT_4_Handler
                0x00007b2e                SERCOM0_OTHER_Handler
                0x00007b2e                EVSYS_OTHER_Handler
                0x00007b2e                SERCOM0_0_Handler
                0x00007b2e                RTC_Handler
                0x00007b2e                SERCOM4_0_Handler
                0x00007b2e                TCC1_MC0_Handler
                0x00007b2e                SERCOM1_OTHER_Handler
                0x00007b2e                TCC2_OTHER_Handler
                0x00007b2e                EIC_EXTINT_11_Handler
                0x00007b2e                SUPC_BODDET_Handler
                0x00007b2e                EIC_EXTINT_14_Handler
                0x00007b2e                OSC32KCTRL_Handler
                0x00007b2e                EVSYS_1_Handler
                0x00007b2e                TCC4_MC1_Handler
                0x00007b2e                SUPC_OTHER_Handler
                0x00007b2e                WDT_Handler
                0x00007b2e                EIC_EXTINT_15_Handler
                0x00007b2e                TCC3_MC1_Handler
                0x00007b2e                SERCOM5_0_Handler
                0x00007b2e                TC4_Handler
                0x00007b2e                TC1_Handler
                0x00007b2e                TCC1_MC1_Handler
                0x00007b2e                TCC1_OTHER_Handler
                0x00007b2e                PAC_Handler
                0x00007b2e                SERCOM4_1_Handler
                0x00007b2e                TC3_Handler
                0x00007b2e                Dummy_Handler
                0x00007b2e                DAC_RESRDY_0_Handler
                0x00007b2e                SERCOM5_1_Handler
                0x00007b2e                DMAC_2_Handler
                0x00007b2e                TCC0_MC4_Handler
                0x00007b2e                USB_TRCPT1_Handler
                0x00007b2e                SERCOM0_1_Handler
                0x00007b2e                TCC0_MC3_Handler
                0x00007b2e                EIC_EXTINT_12_Handler
                0x00007b2e                OSCCTRL_DPLL0_Handler
                0x00007b2e                SERCOM5_OTHER_Handler
                0x00007b2e                PM_Handler
                0x00007b2e                OSCCTRL_DFLL_Handler
                0x00007b2e                DAC_RESRDY_1_Handler
                0x00007b2e                USB_OTHER_Handler
                0x00007b2e                TCC0_OTHER_Handler
                0x00007b2e                EIC_EXTINT_10_Handler
                0x00007b2e                TCC1_MC3_Handler
                0x00007b2e                OSCCTRL_XOSC0_Handler
                0x00007b2e                TCC0_MC0_Handler
                0x00007b2e                EIC_EXTINT_2_Handler
                0x00007b2e                SDHC0_Handler
                0x00007b2e                SERCOM1_1_Handler
                0x00007b2e                I2S_Handler
                0x00007b2e                PCC_Handler
                0x00007b2e                TCC3_OTHER_Handler
                0x00007b2e                EIC_EXTINT_13_Handler
                0x00007b2e                SERCOM1_0_Handler
                0x00007b2e                PUKCC_Handler
                0x00007b2e                SERCOM2_1_Handler
                0x00007b2e                SERCOM1_2_Handler
                0x00007b2e                SERCOM3_0_Handler
                0x00007b2e                SERCOM4_2_Handler
                0x00007b2e                TCC1_MC2_Handler
                0x00007b2e                ADC1_RESRDY_Handler
                0x00007b2e                NVMCTRL_1_Handler
                0x00007b2e                SERCOM5_2_Handler
                0x00007b2e                SERCOM2_2_Handler
                0x00007b2e                DAC_EMPTY_1_Handler
                0x00007b2e                ADC1_OTHER_Handler
                0x00007b2e                OSCCTRL_DPLL1_Handler
                0x00007b2e                EIC_EXTINT_3_Handler
                0x00007b2e                SERCOM3_OTHER_Handler
                0x00007b2e                EIC_EXTINT_8_Handler
                0x00007b2e                NVMCTRL_0_Handler
                0x00007b2e                ADC0_RESRDY_Handler
                0x00007b2e                ADC0_OTHER_Handler
                0x00007b2e                MCLK_Handler
                0x00007b2e                EVSYS_2_Handler
                0x00007b2e                SERCOM2_OTHER_Handler
                0x00007b2e                FREQM_Handler
                0x00007b2e                TC0_Handler
                0x00007b2e                TCC0_MC1_Handler
                0x00007b2e                DMAC_3_Handler
                0x00007b2e                RAMECC_Handler
                0x00007b2e                TC5_Handler
                0x00007b2e                SERCOM2_0_Handler
                0x00007b2e                AES_Handler
                0x00007b2e                ICM_Handler
                0x00007b2e                TCC0_MC2_Handler

.text.__malloc_lock%366
                0x00008a3a        0x2
 .text.__malloc_lock
                0x00008a3a        0x2 c:/program files (x86)/microchip/xc32/v2.30/bin/bin/../../lib/gcc/pic32c/6.2.1/../../../../pic32c/lib/v7e-m/fpv4-sp/hard\libc.a(lib_a-mlock.o)
                0x00008a3a                __malloc_lock

.text.__malloc_unlock%367
                0x00009f2e        0x2
 .text.__malloc_unlock
                0x00009f2e        0x2 c:/program files (x86)/microchip/xc32/v2.30/bin/bin/../../lib/gcc/pic32c/6.2.1/../../../../pic32c/lib/v7e-m/fpv4-sp/hard\libc.a(lib_a-mlock.o)
                0x00009f2e                __malloc_unlock
