Archive member included to satisfy reference by file (symbol)

c:/program files (x86)/microchip/xc32/v2.30/bin/bin/../../lib/gcc/pic32c/6.2.1/../../../../pic32c/lib/v7e-m/fpv4-sp/hard\libpic32c.a(data_init.o)
                              build/LAN9253_D51_SPI_Indirect_mode/production/_ext/1171490990/startup_xc32.o (__pic32c_data_initialization)
c:/program files (x86)/microchip/xc32/v2.30/bin/bin/../../lib/gcc/pic32c/6.2.1/../../../../pic32c/lib/v7e-m/fpv4-sp/hard\libc.a(lib_a-init.o)
                              build/LAN9253_D51_SPI_Indirect_mode/production/_ext/1171490990/startup_xc32.o (__libc_init_array)
c:/program files (x86)/microchip/xc32/v2.30/bin/bin/../../lib/gcc/pic32c/6.2.1/../../../../pic32c/lib/v7e-m/fpv4-sp/hard\libc.a(lib_a-malloc.o)
                              build/LAN9253_D51_SPI_Indirect_mode/production/_ext/108134065/ecatcoe.o (malloc)
c:/program files (x86)/microchip/xc32/v2.30/bin/bin/../../lib/gcc/pic32c/6.2.1/../../../../pic32c/lib/v7e-m/fpv4-sp/hard\libc.a(lib_a-mallocr.o)
                              c:/program files (x86)/microchip/xc32/v2.30/bin/bin/../../lib/gcc/pic32c/6.2.1/../../../../pic32c/lib/v7e-m/fpv4-sp/hard\libc.a(lib_a-malloc.o) (_malloc_r)
c:/program files (x86)/microchip/xc32/v2.30/bin/bin/../../lib/gcc/pic32c/6.2.1/../../../../pic32c/lib/v7e-m/fpv4-sp/hard\libc.a(lib_a-memcpy-stub.o)
                              build/LAN9253_D51_SPI_Indirect_mode/production/_ext/1593096446/plib_nvmctrl.o (memcpy)
c:/program files (x86)/microchip/xc32/v2.30/bin/bin/../../lib/gcc/pic32c/6.2.1/../../../../pic32c/lib/v7e-m/fpv4-sp/hard\libc.a(lib_a-memset.o)
                              build/LAN9253_D51_SPI_Indirect_mode/production/_ext/1671622979/Drivers.o (memset)
c:/program files (x86)/microchip/xc32/v2.30/bin/bin/../../lib/gcc/pic32c/6.2.1/../../../../pic32c/lib/v7e-m/fpv4-sp/hard\libc.a(lib_a-mlock.o)
                              c:/program files (x86)/microchip/xc32/v2.30/bin/bin/../../lib/gcc/pic32c/6.2.1/../../../../pic32c/lib/v7e-m/fpv4-sp/hard\libc.a(lib_a-mallocr.o) (__malloc_lock)
c:/program files (x86)/microchip/xc32/v2.30/bin/bin/../../lib/gcc/pic32c/6.2.1/../../../../pic32c/lib/v7e-m/fpv4-sp/hard\libc.a(lib_a-sbrkr.o)
                              c:/program files (x86)/microchip/xc32/v2.30/bin/bin/../../lib/gcc/pic32c/6.2.1/../../../../pic32c/lib/v7e-m/fpv4-sp/hard\libc.a(lib_a-mallocr.o) (_sbrk_r)
c:/program files (x86)/microchip/xc32/v2.30/bin/bin/../../lib/gcc/pic32c/6.2.1/../../../../pic32c/lib/v7e-m/fpv4-sp/hard\libc.a(lib_a-strlen.o)
                              build/LAN9253_D51_SPI_Indirect_mode/production/_ext/108134065/objdef.o (strlen)
c:/program files (x86)/microchip/xc32/v2.30/bin/bin/../../lib/gcc/pic32c/6.2.1/../../../../pic32c/lib/v7e-m/fpv4-sp/hard\libc.a(lib_a-freer.o)
                              c:/program files (x86)/microchip/xc32/v2.30/bin/bin/../../lib/gcc/pic32c/6.2.1/../../../../pic32c/lib/v7e-m/fpv4-sp/hard\libc.a(lib_a-malloc.o) (_free_r)
c:/program files (x86)/microchip/xc32/v2.30/bin/bin/../../lib/gcc/pic32c/6.2.1/../../../../pic32c/lib/v7e-m/fpv4-sp/hard\libc.a(lib_a-impure.o)
                              c:/program files (x86)/microchip/xc32/v2.30/bin/bin/../../lib/gcc/pic32c/6.2.1/../../../../pic32c/lib/v7e-m/fpv4-sp/hard\libc.a(lib_a-malloc.o) (_impure_ptr)
c:/program files (x86)/microchip/xc32/v2.30/bin/bin/../../lib/gcc/pic32c/6.2.1/../../../../pic32c/lib/v7e-m/fpv4-sp/hard\libc.a(lib_a-reent.o)
                              c:/program files (x86)/microchip/xc32/v2.30/bin/bin/../../lib/gcc/pic32c/6.2.1/../../../../pic32c/lib/v7e-m/fpv4-sp/hard\libc.a(lib_a-sbrkr.o) (errno)
c:/program files (x86)/microchip/xc32/v2.30/bin/bin/../../lib/gcc/pic32c/6.2.1/../../../../pic32c/lib/v7e-m/fpv4-sp/hard\libpic32c.a(sbrk.o)
                              c:/program files (x86)/microchip/xc32/v2.30/bin/bin/../../lib/gcc/pic32c/6.2.1/../../../../pic32c/lib/v7e-m/fpv4-sp/hard\libc.a(lib_a-sbrkr.o) (_sbrk)

Allocating common symbols
Common symbol       size              file

b3BufferMode        0x1               build/LAN9253_D51_SPI_Indirect_mode/production/_ext/108134065/ecatslv.o
nEcatStateTrans     0x2               build/LAN9253_D51_SPI_Indirect_mode/production/_ext/108134065/ecatslv.o
EcatWdCounter       0x2               build/LAN9253_D51_SPI_Indirect_mode/production/_ext/108134065/ecatslv.o
sSendEmcyQueue      0x10              build/LAN9253_D51_SPI_Indirect_mode/production/_ext/108134065/emcy.o
bApplEsmPending     0x1               build/LAN9253_D51_SPI_Indirect_mode/production/_ext/108134065/ecatslv.o
pCoeSendStored      0x4               build/LAN9253_D51_SPI_Indirect_mode/production/_ext/108134065/ecatcoe.o
nSdoInfoIndex       0x2               build/LAN9253_D51_SPI_Indirect_mode/production/_ext/108134065/sdoserv.o
pStoreData          0x4               build/LAN9253_D51_SPI_Indirect_mode/production/_ext/108134065/sdoserv.o
u8MbxReadCounter    0x1               build/LAN9253_D51_SPI_Indirect_mode/production/_ext/108134065/mailbox.o
nAlStatus           0x1               build/LAN9253_D51_SPI_Indirect_mode/production/_ext/108134065/ecatslv.o
nPdOutputSize       0x2               build/LAN9253_D51_SPI_Indirect_mode/production/_ext/108134065/ecatslv.o
u32FileOffset       0x4               build/LAN9253_D51_SPI_Indirect_mode/production/_ext/108134065/ecatfoe.o
u16LocalErrorCode   0x2               build/LAN9253_D51_SPI_Indirect_mode/production/_ext/108134065/ecatslv.o
nSdoSegBytesToHandle
                    0x4               build/LAN9253_D51_SPI_Indirect_mode/production/_ext/108134065/sdoserv.o
errno               0x4               c:/program files (x86)/microchip/xc32/v2.30/bin/bin/../../lib/gcc/pic32c/6.2.1/../../../../pic32c/lib/v7e-m/fpv4-sp/hard\libc.a(lib_a-reent.o)
sMbxSendQueue       0x34              build/LAN9253_D51_SPI_Indirect_mode/production/_ext/108134065/mailbox.o
gEscALEvent         0x2               build/LAN9253_D51_SPI_Indirect_mode/production/_ext/108147519/LAN925x.o
sMbxReceiveQueue    0x34              build/LAN9253_D51_SPI_Indirect_mode/production/_ext/108134065/mailbox.o
bNoMbxMemoryAvailable
                    0x1               build/LAN9253_D51_SPI_Indirect_mode/production/_ext/108134065/mailbox.o
u16FileAccessState  0x2               build/LAN9253_D51_SPI_Indirect_mode/production/_ext/108134065/ecatfoe.o
Sync0WdCounter      0x2               build/LAN9253_D51_SPI_Indirect_mode/production/_ext/108134065/ecatslv.o
u32PacketNo         0x4               build/LAN9253_D51_SPI_Indirect_mode/production/_ext/108134065/ecatfoe.o
bMinCycleTimeMeasurementStarted
                    0x1               build/LAN9253_D51_SPI_Indirect_mode/production/_ext/108134065/ecatappl.o
bLocalErrorFlag     0x1               build/LAN9253_D51_SPI_Indirect_mode/production/_ext/108134065/ecatslv.o
bSendMbxIsFull      0x1               build/LAN9253_D51_SPI_Indirect_mode/production/_ext/108134065/mailbox.o
u32CycleTimeStartValue
                    0x4               build/LAN9253_D51_SPI_Indirect_mode/production/_ext/108134065/ecatappl.o
LatchInputSync0Counter
                    0x2               build/LAN9253_D51_SPI_Indirect_mode/production/_ext/108134065/ecatslv.o
i16WaitForPllRunningCnt
                    0x2               build/LAN9253_D51_SPI_Indirect_mode/production/_ext/108134065/ecatslv.o
nEscAddrOutputData  0x2               build/LAN9253_D51_SPI_Indirect_mode/production/_ext/108134065/ecatslv.o
bMbxRunning         0x1               build/LAN9253_D51_SPI_Indirect_mode/production/_ext/108134065/mailbox.o
aFileData           0x2000            build/LAN9253_D51_SPI_Indirect_mode/production/_ext/108134065/sample_app.o
Sync0WdValue        0x2               build/LAN9253_D51_SPI_Indirect_mode/production/_ext/108134065/ecatslv.o
u8EcatRunLed        0x1               build/LAN9253_D51_SPI_Indirect_mode/production/_ext/108134065/ecatslv.o
i16WaitForPllRunningTimeout
                    0x2               build/LAN9253_D51_SPI_Indirect_mode/production/_ext/108134065/ecatslv.o
bSdoSegAccess       0x1               build/LAN9253_D51_SPI_Indirect_mode/production/_ext/108134065/sdoserv.o
Sync1WdValue        0x2               build/LAN9253_D51_SPI_Indirect_mode/production/_ext/108134065/ecatslv.o
bSdoSegFollows      0x1               build/LAN9253_D51_SPI_Indirect_mode/production/_ext/108134065/sdoserv.o
nSdoSegCompleteSize
                    0x4               build/LAN9253_D51_SPI_Indirect_mode/production/_ext/108134065/sdoserv.o
u16ALEventMask      0x2               build/LAN9253_D51_SPI_Indirect_mode/production/_ext/108134065/ecatslv.o
pSdoPendFunc        0x4               build/LAN9253_D51_SPI_Indirect_mode/production/_ext/108134065/sdoserv.o
bDcRunning          0x1               build/LAN9253_D51_SPI_Indirect_mode/production/_ext/108134065/ecatslv.o
u32dummy            0x4               build/LAN9253_D51_SPI_Indirect_mode/production/_ext/108134065/ecatslv.o
bRunApplication     0x1               build/LAN9253_D51_SPI_Indirect_mode/production/_ext/108134065/ecatappl.o
u16EscAddrReceiveMbx
                    0x2               build/LAN9253_D51_SPI_Indirect_mode/production/_ext/108134065/mailbox.o
psStoreMbx          0x4               build/LAN9253_D51_SPI_Indirect_mode/production/_ext/108134065/mailbox.o
SyncManInfo         0x8               build/LAN9253_D51_SPI_Indirect_mode/production/_ext/108134065/ecatslv.o
b32BitDc            0x1               build/LAN9253_D51_SPI_Indirect_mode/production/_ext/108134065/ecatslv.o
u32SystemTimeReadFailure
                    0x4               build/LAN9253_D51_SPI_Indirect_mode/production/_ext/108134065/ecatappl.o
u8PendingSdo        0x1               build/LAN9253_D51_SPI_Indirect_mode/production/_ext/108134065/sdoserv.o
appData             0x1               build/LAN9253_D51_SPI_Indirect_mode/production/_ext/1360937237/app.o
LatchInputSync0Value
                    0x2               build/LAN9253_D51_SPI_Indirect_mode/production/_ext/108134065/ecatslv.o
u16SendMbxSize      0x2               build/LAN9253_D51_SPI_Indirect_mode/production/_ext/108134065/mailbox.o
bEcatWaitForAlControlRes
                    0x1               build/LAN9253_D51_SPI_Indirect_mode/production/_ext/108134065/ecatslv.o
psReadMbx           0x4               build/LAN9253_D51_SPI_Indirect_mode/production/_ext/108134065/mailbox.o
bEcatWaitForInputUpdate
                    0x1               build/LAN9253_D51_SPI_Indirect_mode/production/_ext/108134065/ecatappl.o
sSyncManInPar       0x44              build/LAN9253_D51_SPI_Indirect_mode/production/_ext/108134065/objdef.o
nPdInputSize        0x2               build/LAN9253_D51_SPI_Indirect_mode/production/_ext/108134065/ecatslv.o
u32MinCycleTimeValue
                    0x4               build/LAN9253_D51_SPI_Indirect_mode/production/_ext/108134065/ecatappl.o
gau8DmaBuff         0x800             build/LAN9253_D51_SPI_Indirect_mode/production/_ext/1671622979/Drivers.o
u16SmSync0Value     0x2               build/LAN9253_D51_SPI_Indirect_mode/production/_ext/108134065/ecatslv.o
bStoreCompleteAccess
                    0x1               build/LAN9253_D51_SPI_Indirect_mode/production/_ext/108134065/sdoserv.o
aPdOutputData       0x900             build/LAN9253_D51_SPI_Indirect_mode/production/_ext/108134065/ecatappl.o
bSdoSegLastToggle   0x1               build/LAN9253_D51_SPI_Indirect_mode/production/_ext/108134065/sdoserv.o
handle              0x4               build/LAN9253_D51_SPI_Indirect_mode/production/_ext/1171490990/initialization.o
eicCallbackObject   0xc0              build/LAN9253_D51_SPI_Indirect_mode/production/_ext/60167341/plib_eic.o
nSdoSegService      0x1               build/LAN9253_D51_SPI_Indirect_mode/production/_ext/108134065/sdoserv.o
bReceiveMbxIsLocked
                    0x1               build/LAN9253_D51_SPI_Indirect_mode/production/_ext/108134065/mailbox.o
pAPPL_FoeError      0x4               build/LAN9253_D51_SPI_Indirect_mode/production/_ext/108134065/ecatappl.o
u16EscAddrSendMbx   0x2               build/LAN9253_D51_SPI_Indirect_mode/production/_ext/108134065/mailbox.o
sysObj              0x4               build/LAN9253_D51_SPI_Indirect_mode/production/_ext/1171490990/initialization.o
nMaxEscAddress      0x2               build/LAN9253_D51_SPI_Indirect_mode/production/_ext/108134065/ecatslv.o
bEcatFirstOutputsReceived
                    0x1               build/LAN9253_D51_SPI_Indirect_mode/production/_ext/108134065/ecatslv.o
qspiObj             0x28              build/LAN9253_D51_SPI_Indirect_mode/production/_ext/1865555181/plib_qspi_spi.o
psWriteMbx          0x4               build/LAN9253_D51_SPI_Indirect_mode/production/_ext/108134065/mailbox.o
u8MbxWriteCounter   0x1               build/LAN9253_D51_SPI_Indirect_mode/production/_ext/108134065/mailbox.o
u32LastDc32Value    0x4               build/LAN9253_D51_SPI_Indirect_mode/production/_ext/108134065/coeappl.o
u32CheckForDcOverrunCnt
                    0x4               build/LAN9253_D51_SPI_Indirect_mode/production/_ext/108134065/coeappl.o
u8MailboxSendReqStored
                    0x1               build/LAN9253_D51_SPI_Indirect_mode/production/_ext/108134065/mailbox.o
pSdoInfoObjEntry    0x4               build/LAN9253_D51_SPI_Indirect_mode/production/_ext/108134065/sdoserv.o
bSmSyncSequenceValid
                    0x1               build/LAN9253_D51_SPI_Indirect_mode/production/_ext/108134065/ecatslv.o
nSdoInfoFragmentsLeft
                    0x2               build/LAN9253_D51_SPI_Indirect_mode/production/_ext/108134065/sdoserv.o
EsmTimeoutCounter   0x2               build/LAN9253_D51_SPI_Indirect_mode/production/_ext/108134065/ecatslv.o
pAPPL_FoeReadData   0x4               build/LAN9253_D51_SPI_Indirect_mode/production/_ext/108134065/ecatappl.o
u16ReceiveMbxSize   0x2               build/LAN9253_D51_SPI_Indirect_mode/production/_ext/108134065/mailbox.o
pSdoResStored       0x4               build/LAN9253_D51_SPI_Indirect_mode/production/_ext/108134065/sdoserv.o
asEmcy              0x8               build/LAN9253_D51_SPI_Indirect_mode/production/_ext/108134065/emcy.o
bBootMode           0x1               build/LAN9253_D51_SPI_Indirect_mode/production/_ext/108134065/ecatslv.o
u32StoreDataSize    0x4               build/LAN9253_D51_SPI_Indirect_mode/production/_ext/108134065/sdoserv.o
transferTxHandle    0x4               build/LAN9253_D51_SPI_Indirect_mode/production/_ext/2070931557/drv_spi.o
pSdoSegData         0x4               build/LAN9253_D51_SPI_Indirect_mode/production/_ext/108134065/sdoserv.o
bDcSyncActive       0x1               build/LAN9253_D51_SPI_Indirect_mode/production/_ext/108134065/ecatslv.o
bEcatOutputUpdateRunning
                    0x1               build/LAN9253_D51_SPI_Indirect_mode/production/_ext/108134065/ecatslv.o
pAPPL_MainLoop      0x4               build/LAN9253_D51_SPI_Indirect_mode/production/_ext/108134065/ecatappl.o
sSyncManOutPar      0x44              build/LAN9253_D51_SPI_Indirect_mode/production/_ext/108134065/objdef.o
sEmptyEmcyQueue     0x10              build/LAN9253_D51_SPI_Indirect_mode/production/_ext/108134065/emcy.o
transferRxHandle    0x4               build/LAN9253_D51_SPI_Indirect_mode/production/_ext/2070931557/drv_spi.o
Sync1WdCounter      0x2               build/LAN9253_D51_SPI_Indirect_mode/production/_ext/108134065/ecatslv.o
setup               0x14              build/LAN9253_D51_SPI_Indirect_mode/production/_ext/2070931557/drv_spi.o
EcatWdValue         0x2               build/LAN9253_D51_SPI_Indirect_mode/production/_ext/108134065/ecatslv.o
bEtherCATErrorLed   0x1               build/LAN9253_D51_SPI_Indirect_mode/production/_ext/108134065/ecatappl.o
u32MinCycleTimeStartValue
                    0x4               build/LAN9253_D51_SPI_Indirect_mode/production/_ext/108134065/ecatappl.o
bSyncSetByUser      0x1               build/LAN9253_D51_SPI_Indirect_mode/production/_ext/108134065/objdef.o
bMbxRepeatToggle    0x1               build/LAN9253_D51_SPI_Indirect_mode/production/_ext/108134065/mailbox.o
bEcatInputUpdateRunning
                    0x1               build/LAN9253_D51_SPI_Indirect_mode/production/_ext/108134065/ecatslv.o
bEscIntEnabled      0x1               build/LAN9253_D51_SPI_Indirect_mode/production/_ext/108134065/ecatslv.o
psRepeatMbx         0x4               build/LAN9253_D51_SPI_Indirect_mode/production/_ext/108134065/mailbox.o
nSdoSegIndex        0x2               build/LAN9253_D51_SPI_Indirect_mode/production/_ext/108134065/sdoserv.o
aSdoInfoHeader      0x10              build/LAN9253_D51_SPI_Indirect_mode/production/_ext/108134065/sdoserv.o
pSdoSegObjEntry     0x4               build/LAN9253_D51_SPI_Indirect_mode/production/_ext/108134065/sdoserv.o
aPdInputData        0x900             build/LAN9253_D51_SPI_Indirect_mode/production/_ext/108134065/ecatappl.o
bWdTrigger          0x1               build/LAN9253_D51_SPI_Indirect_mode/production/_ext/108134065/ecatslv.o
nSdoSegSubindex     0x1               build/LAN9253_D51_SPI_Indirect_mode/production/_ext/108134065/sdoserv.o
u16StoreIndex       0x2               build/LAN9253_D51_SPI_Indirect_mode/production/_ext/108134065/sdoserv.o
bEtherCATRunLed     0x1               build/LAN9253_D51_SPI_Indirect_mode/production/_ext/108134065/ecatappl.o
pAPPL_FoeWriteData  0x4               build/LAN9253_D51_SPI_Indirect_mode/production/_ext/108134065/ecatappl.o
u16SmSync0Counter   0x2               build/LAN9253_D51_SPI_Indirect_mode/production/_ext/108134065/ecatslv.o
pFoeSendStored      0x4               build/LAN9253_D51_SPI_Indirect_mode/production/_ext/108134065/ecatfoe.o
nMaxSyncMan         0x1               build/LAN9253_D51_SPI_Indirect_mode/production/_ext/108134065/ecatslv.o
u8StoreSubindex     0x1               build/LAN9253_D51_SPI_Indirect_mode/production/_ext/108134065/sdoserv.o
aFileName           0x16              build/LAN9253_D51_SPI_Indirect_mode/production/_ext/108134065/sample_app.o
u32LastFileOffset   0x4               build/LAN9253_D51_SPI_Indirect_mode/production/_ext/108134065/ecatfoe.o
pAPPL_FoeRead       0x4               build/LAN9253_D51_SPI_Indirect_mode/production/_ext/108134065/ecatappl.o
dmacChannelObj      0x20              build/LAN9253_D51_SPI_Indirect_mode/production/_ext/1865161661/plib_dmac.o
sCycleDiag          0x2               build/LAN9253_D51_SPI_Indirect_mode/production/_ext/108134065/objdef.o
systick             0xc               build/LAN9253_D51_SPI_Indirect_mode/production/_ext/1827571544/plib_systick.o
pAPPL_FoeWrite      0x4               build/LAN9253_D51_SPI_Indirect_mode/production/_ext/108134065/ecatappl.o
u16FoeMaxSendBlockSize
                    0x2               build/LAN9253_D51_SPI_Indirect_mode/production/_ext/108134065/ecatfoe.o
u8EcatErrorLed      0x1               build/LAN9253_D51_SPI_Indirect_mode/production/_ext/108134065/ecatslv.o
nEscAddrInputData   0x2               build/LAN9253_D51_SPI_Indirect_mode/production/_ext/108134065/ecatslv.o

Microchip PIC32 Memory-Usage Report

ROM Program-Memory Usage
section                    address  length [bytes]      (dec)  Description
-------                 ----------  -------------------------  -----------
.vectors                         0          0x260         608   
.text                        0x260           0x20          32  App's exec code 
.dinit                       0x280         0x1750        5968   
.text.StartInputHandler     0x19d0          0x7e4        2020   
.text.AL_ControlInd         0x21b4          0x790        1936   
.text.OBJ_Write             0x2944          0x710        1808   
.rodata.aName0x1601         0x3054          0x6a0        1696   
.rodata.aName0x1A00         0x36f4          0x6a0        1696   
.text.OBJ_Read              0x3d94          0x67c        1660   
.text.SDOS_SdoInd           0x4410          0x5e4        1508   
.rodata.aName0x7010         0x49f4          0x520        1312   
.rodata.aName0x6000         0x4f14          0x51c        1308   
.text.FOE_ServiceInd        0x5430          0x488        1160   
.text._malloc_r             0x58b8          0x438        1080   
.text.SDOS_SdoInfoInd       0x5cf0          0x434        1076   
.text.SdoDownloadSegmen     0x6124          0x3b4         948   
.text.CheckSmSettings       0x64d8          0x3a0         928   
.rodata.asEntryDesc0x16     0x6878          0x308         776   
.rodata.asEntryDesc0x1A     0x6b80          0x308         776   
.rodata.asEntryDesc0x60     0x6e88          0x308         776   
.rodata.asEntryDesc0x70     0x7190          0x308         776   
.text.AL_ControlRes         0x7498          0x2bc         700   
.text.SdoUploadSegmentI     0x7754          0x260         608   
.text._DRV_SPI_StartDMA     0x79b4          0x20c         524   
.text.SendSmFailedEmerg     0x7bc0          0x1e0         480   
.text.SdoRes                0x7da0          0x1bc         444   
.text.CheckSyncTypeValu     0x7f5c          0x1b4         436   
.text.ECAT_Main             0x8110          0x1a8         424   
.text.QSPI_Handler          0x82b8          0x1a0         416   
.text.DRV_SPI_Initializ     0x8458          0x19c         412   
.text.DRV_SPI_Open          0x85f4          0x19c         412   
.text._DRV_SPI_RX_DMA_C     0x8790          0x190         400   
.text.DRV_SPI_WriteRead     0x8920          0x17c         380   
.text.QSPI_WriteRead        0x8a9c          0x17c         380   
.text.OBJ_GetEntryOffse     0x8c18          0x178         376   
.text._free_r               0x8d90          0x178         376   
.text.LAN9252SPI_DMA_Fa     0x8f08          0x174         372   
.text.APPL_GenerateMapp     0x907c          0x174         372   
.text.ECAT_Init             0x91f0          0x170         368   
.text.SetALStatus           0x9360          0x164         356   
.text.MBX_CheckAndCopyM     0x94c4          0x164         356   
.text.COE_ObjInit           0x9628          0x160         352   
.text.Sync0_Isr             0x9788          0x15c         348   
.text.DMAC_ChannelTrans     0x98e4          0x154         340   
.text.MBX_StopMailboxHa     0x9a38          0x154         340   
.text.PDI_Isr               0x9b8c          0x14c         332   
.text.FoE_WriteData         0x9cd8          0x148         328   
.text._DRV_SPI_PlibCall     0x9e20          0x13c         316   
.text.PDRAMSetAddrLengt     0x9f5c          0x13a         314   
.text.Dummy_Handler         0xa096            0x2           2   
.text.StopInputHandler      0xa098          0x12c         300   
.text._DRV_SPI_DisableI     0xa1c4          0x124         292   
.text.MBX_MailboxReadIn     0xa2e8          0x124         292   
.text.OBJ_GetObjectLeng     0xa40c          0x124         292   
.text.SDOS_SdoRes           0xa530          0x124         292   
.text.DC_CheckWatchdog      0xa654          0x120         288   
.text.OBJ_GetDesc           0xa774          0x120         288   
.text._DRV_SPI_EnableIn     0xa894          0x116         278   
.text.__malloc_lock         0xa9aa            0x2           2   
.text.ReBuild_SPI_SetCf     0xa9ac          0x114         276   
.text.MBX_StartMailboxH     0xaac0          0x114         276   
.text.LAN925x_Init          0xabd4          0x10c         268   
.text.MBX_CopyToSendMai     0xace0          0x10c         268   
.rodata.aName0x1C32         0xadec          0x100         256   
.rodata.aName0x1C33         0xaeec          0x100         256   
.text.MainInit              0xafec          0x100         256   
.text.MBX_Init              0xb0ec          0x100         256   
.text.HW_EscWrite           0xb1ec           0xf8         248   
.text.OBJ_GetObjectList     0xb2e4           0xf8         248   
.text.HW_EscRead            0xb3dc           0xf6         246   
.text.__malloc_unlock       0xb4d2            0x2           2   
.text.MBX_MailboxWriteI     0xb4d4           0xf4         244   
.text.MainLoop              0xb5c8           0xec         236   
.text.LAN9252SPI_DMA_Wr     0xb6b4           0xe8         232   
.text.COE_AddObjectToDi     0xb79c           0xe8         232   
.text.COE_Main              0xb884           0xe8         232   
.text.EIC_Initialize        0xb96c           0xe4         228   
.text.MBX_MailboxSendRe     0xba50           0xdc         220   
.text._DRV_SPI_FreeTran     0xbb2c           0xd4         212   
.text.DMAC_Initialize       0xbc00           0xcc         204   
.text.SODS_ClearPending     0xbccc           0xcc         204   
.text.DRV_SPI_TransferS     0xbd98           0xc8         200   
.rodata.asEntryDesc0x1C     0xbe60           0xc8         200   
.text.GetDummyBytesRequ     0xbf28           0xc6         198   
.text.FoE_Read              0xbff0           0xbc         188   
.text.LAN9252SPI_DMA_Fa     0xc0ac           0xb8         184   
.text.MBX_Main              0xc164           0xb8         184   
.text._DRV_SPI_UpdateTr     0xc21c           0xb4         180   
.text.LAN9252SPI_DMA_Re     0xc2d0           0xb0         176   
.text.PDO_OutputMapping     0xc380           0xb0         176   
.text.ECAT_CheckTimer       0xc430           0xb0         176   
.text.EMCY_Init             0xc4e0           0xa8         168   
.text.EscWrite              0xc588           0xa4         164   
.text.EMCY_SendEmergenc     0xc62c           0xa4         164   
.text.EscRead               0xc6d0           0xa2         162   
.text._DRV_SPI_DriverHa     0xc774           0x9c         156   
.text._DMAC_interruptHa     0xc810           0x9c         156   
.text.LAN9252SPI_DMA_Wr     0xc8ac           0x9c         156   
.text.COE_SyncTimeStamp     0xc948           0x9c         156   
.text.QSPI_TransferSetu     0xc9e4           0x98         152   
.text.OBJ_GetNoOfObject     0xca7c           0x98         152   
.text.RoundUpMultipleOf     0xcb14           0x96         150   
.text.PDO_InputMapping      0xcbac           0x94         148   
.text.OBJ_CopyNumberToS     0xcc40           0x94         148   
.text.FoE_Write             0xccd4           0x94         148   
.text._malloc_trim_r        0xcd68           0x94         148   
.text._DRV_SPI_TX_DMA_C     0xcdfc           0x90         144   
.text._SPI_initialize       0xce8c           0x88         136   
.text.COE_RemoveDicEntr     0xcf14           0x80         128   
.text.__pic32c_data_ini     0xcf94           0x80         128   
.text.HandleCycleTimeMe     0xd014           0x7c         124   
.text.MBX_MailboxRepeat     0xd090           0x7c         124   
.text.PORT_Initialize       0xd10c           0x78         120   
.rodata.cAbortCode          0xd184           0x78         120   
.text.APP_FlashWrite        0xd1fc           0x78         120   
.text.COE_ServiceInd        0xd274           0x74         116   
.text.StartOutputHandle     0xd2e8           0x74         116   
.text.NVIC_Initialize       0xd35c           0x72         114   
.text.GetSystemTimeDela     0xd3d0           0x70         112   
.text.DRV_SPI_TransferE     0xd440           0x6c         108   
.text.FDPLL0_Initialize     0xd4ac           0x6c         108   
.text.FOE_Data              0xd518           0x6c         108   
.text.DMAC_ChannelSetti     0xd584           0x68         104   
.text.NVMCTRL_PageWrite     0xd5ec           0x68         104   
.text.COE_UpdateSyncErr     0xd654           0x68         104   
.text.MailboxServiceInd     0xd6bc           0x68         104   
.text._APP_MyTransferEv     0xd724           0x64         100   
.text.SPI_SetConfigurat     0xd788           0x64         100   
.text.ECAT_CheckWatchdo     0xd7ec           0x64         100   
.text.BL_FOE_Applicatio     0xd850           0x64         100   
.text.APPL_Application      0xd8b4           0x64         100   
.text.DRV_SPIReceive        0xd918           0x60          96   
.text.DRV_SPITransfer       0xd978           0x60          96   
.text.DmaBuffsizeCalcul     0xd9d8           0x5e          94   
.text.EIC_CallbackRegis     0xda38           0x5c          92   
.text.Reset_Handler         0xda94           0x5c          92   
.text.HW_GetALEventRegi     0xdaf0           0x5c          92   
.text.Read0x10F8            0xdb4c           0x5c          92   
.text.COE_ContinueInd       0xdba8           0x5c          92   
.text.GetOutOfEmptyEmcy     0xdc04           0x5c          92   
.text.GetOutOfSendEmcyQ     0xdc60           0x5c          92   
.text.FoE_ReadData          0xdcbc           0x5c          92   
.text.APP_Tasks             0xdd18           0x5c          92   
.text._DRV_SPI_Transfer     0xdd74           0x5a          90   
.text.GetOutOfMbxQueue      0xddce           0x58          88   
.text.OBJ_GetEntryDesc      0xde26           0x58          88   
.text.CLOCK_Initialize      0xde80           0x54          84   
.text.__NVIC_SetPriorit     0xded4           0x54          84   
.text.ESF_PDI_Init          0xdf28           0x54          84   
.text.HW_GetALEventRegi     0xdf7c           0x54          84   
.text.PutInMbxQueue         0xdfd0           0x52          82   
.text._SPI_Rx               0xe024           0x50          80   
.text._SPI_Tx               0xe074           0x50          80   
.text.SYS_Initialize        0xe0c4           0x50          80   
.text.UpdateEEPROMLoade     0xe114           0x4c          76   
.text.DisableSyncManCha     0xe160           0x4c          76   
.text.CheckIfEcatError      0xe1ac           0x4c          76   
.text._DRV_SPI_Resource     0xe1f8           0x4a          74   
.text.HW_EscReadIsr         0xe242           0x4a          74   
.text.HW_EscWriteIsr        0xe28c           0x4a          74   
.text.EnableSyncManChan     0xe2d6           0x4a          74   
.text.__NVIC_SetPriorit     0xe320           0x48          72   
.text.FOE_Read              0xe368           0x48          72   
.text.__libc_init_array     0xe3b0           0x48          72   
.text.SYS_DMA_Addressin     0xe3f8           0x46          70   
.text.ResetALEventMask      0xe43e           0x46          70   
.text.SetALEventMask        0xe484           0x46          70   
.text._DRV_SPI_RemoveTr     0xe4ca           0x44          68   
.text.GCLK0_Initialize      0xe510           0x44          68   
.text.__NVIC_DisableIRQ     0xe554           0x44          68   
.text.SYS_INT_SourceDis     0xe598           0x44          68   
.text.FPU_Enable            0xe5dc           0x44          68   
.text.ESC_BYTE_TEST_Reg     0xe620           0x44          68   
.text.COE_ObjDictionary     0xe664           0x44          68   
.text.Sync1_Isr             0xe6a8           0x44          68   
.text.PutInEmptyEmcyQue     0xe6ec           0x44          68   
.text.PutInSendEmcyQueu     0xe730           0x44          68   
.text.AddObjectsToObjDi     0xe774           0x42          66   
.text                       0xe7b8           0x40          64  App's exec code 
.text.SYSTICK_TimerInit     0xe7f8           0x40          64   
.text.__NVIC_GetEnableI     0xe838           0x40          64   
.text.ICache_Enable         0xe878           0x40          64   
.text.HandleDmaData         0xe8b8           0x40          64   
.rodata.aName0x10F1         0xe8f8           0x40          64   
.text.COE_ClearObjDicti     0xe938           0x40          64   
.text.SYS_DMA_DataWidth     0xe978           0x3e          62   
.text.DMAC_ChannelCallb     0xe9b8           0x3c          60   
.text.__NVIC_EnableIRQ      0xe9f4           0x78         120   
.rodata.aName0x1018         0xea6c           0x3c          60   
.text.ECAT_Application      0xeaa8           0x3c          60   
.text.APP_RunApplicatio     0xeae4           0x3c          60   
.text.PORT_PinSet           0xeb20           0x38          56   
.text.PORT_PinClear         0xeb58           0x38          56   
.text.QSPI_IsBusy           0xeb90           0x38          56   
.text.PORT_PinSet           0xebc8           0x38          56   
.text.PORT_PinClear         0xec00           0x38          56   
.text.PORT_PinOutputEna     0xec38           0x38          56   
.text.PORT_PinSet           0xec70           0x38          56   
.text.PORT_PinClear         0xeca8           0x38          56   
.text.FOE_Write             0xece0           0x38          56   
.text.FOE_Ack               0xed18           0x38          56   
.text.APP_FW_startDownl     0xed50           0x38          56   
.text.OBJ_GetObjectHand     0xed88           0x36          54   
.text.NVMCTRL_BlockEras     0xedc0           0x34          52   
.rodata.drvSPI0InitData     0xedf4           0x30          48   
.text.FOE_ContinueInd       0xee24           0x30          48   
.text.GetSyncMan            0xee54           0x30          48   
.text._DRV_SPI_MAKE_HAN     0xee84           0x2c          44   
.text._DRV_SPI_UPDATE_T     0xeeb0           0x2c          44   
.text._DRV_SPI_Resource     0xeedc           0x2c          44   
.text.GCLK1_Initialize      0xef08           0x2c          44   
.text.GCLK2_Initialize      0xef34           0x2c          44   
.text.DMAC_ChannelSetti     0xef60           0x2c          44   
.text.EIC_EXTINT_0_Inte     0xef8c           0x2c          44   
.text.EIC_EXTINT_1_Inte     0xefb8           0x2c          44   
.text.EIC_EXTINT_7_Inte     0xefe4           0x2c          44   
.text.SysTick_Handler       0xf010           0x2c          44   
.text.SYS_INT_Disable       0xf03c           0x2c          44   
.text.FOE_Init              0xf068           0x2c          44   
.text._sbrk                 0xf094           0x2c          44   
.text.DRV_SPI_WriteTran     0xf0c0           0x2a          42   
.text.DRV_SPI_ReadTrans     0xf0ea           0x2a          42   
.text.SYS_INT_Restore       0xf114           0x2a          42   
.text.SYS_INT_SourceRes     0xf13e           0x2a          42   
.text.OSCCTRL_Initializ     0xf168           0x28          40   
.text.NVMCTRL_IsBusy        0xf190           0x28          40   
.text.QSPI_CallbackRegi     0xf1b8           0x28          40   
.text.SYSTICK_TimerCall     0xf1e0           0x28          40   
.rodata.drvSPI0remapDat     0xf208           0x28          40   
.text.ESC_IRQ_cb            0xf230           0x28          40   
.text.APP_FW_StateBOOTt     0xf258           0x28          40   
.text.SPI_DisableQuadMo     0xf280           0x26          38   
.text.SYSTICK_TimerStar     0xf2a8           0x24          36   
.text.TCM_Configure         0xf2cc           0x24          36   
.text.PDI_Init_SYNC_Int     0xf2f0           0x24          36   
.text.COE_Init              0xf314           0x24          36   
.text.StopOutputHandler     0xf338           0x24          36   
.text.EMCY_IsQueueEmpty     0xf35c           0x24          36   
.text.FOE_Error             0xf380           0x24          36   
.text.APPL_InputMapping     0xf3a4           0x24          36   
.text.APPL_OutputMappin     0xf3c8           0x24          36   
.text.APP_BankSwitch        0xf3ec           0x24          36   
.text.EMCY_ContinueInd      0xf410           0x22          34   
.text._DRV_SPI_Transfer     0xf432           0x20          32   
.text.ECAT_SPI_Callback     0xf454           0x20          32   
.rodata.asEntryDesc0x10     0xf474           0x20          32   
.text.FOE_Busy              0xf494           0x20          32   
.rodata.cBitMask            0xf4b4           0x20          32   
.text._sbrk_r               0xf4d4           0x20          32   
.text.SYS_PORT_PinSet       0xf4f4           0x1c          28   
.text.SYS_PORT_PinClear     0xf510           0x1c          28   
.text.NVMCTRL_Initializ     0xf52c           0x1c          28   
.text.NVMCTRL_BankSwap      0xf548           0x1c          28   
.text.PORT_GroupSet         0xf564           0x1c          28   
.text.PORT_GroupClear       0xf580           0x1c          28   
.text.PORT_GroupOutputE     0xf59c           0x1c          28   
.text.CRITICAL_SECTION_     0xf5b8           0x1c          28   
.text.CRITICAL_SECTION_     0xf5d4           0x1c          28   
.text.SPIChipSelectDisa     0xf5f0           0x1c          28   
.text.SPIChipSelectEnab     0xf60c           0x1c          28   
.text.ECAT_SysTick_Hand     0xf628           0x1c          28   
.rodata.aName0x1C12         0xf644           0x1c          28   
.rodata.aName0x1C13         0xf660           0x1c          28   
.text.OSC32KCTRL_Initia     0xf67c           0x18          24   
.rodata.drvSPI0Interrup     0xf694           0x18          24   
.text.PDI_Init_SYSTick_     0xf6ac           0x18          24   
.text.PDI_IRQ_Interrupt     0xf6c4           0x18          24   
.text.COE_GetObjectDict     0xf6dc           0x18          24   
.text.BackToInitTransit     0xf6f4           0x18          24   
.text.OBJ_GetObjDesc        0xf70c           0x18          24   
.text.APP_FW_GetDownloa     0xf724           0x18          24   
.text.APP_Initialize        0xf73c           0x18          24   
.text.BL_Start              0xf754           0x16          22   
.text.EMCY_GetEmcyBuffe     0xf76a           0x16          22   
.text.APPL_AckErrorInd      0xf780           0x16          22   
.text.APPL_StartInputHa     0xf796           0x16          22   
.text.memcpy                0xf7ac           0x16          22   
.text.EtherCAT_QSPI_Cal     0xf7c4           0x14          20   
.text.ESC_Sync0_cb          0xf7d8           0x14          20   
.text.ESC_Sync1_cb          0xf7ec           0x14          20   
.rodata.aName0x1009         0xf800           0x14          20   
.rodata.aName0x100A         0xf814           0x14          20   
.rodata.asEntryDesc0x10     0xf828           0x14          20   
.rodata.aName0x10F8         0xf83c           0x14          20   
.rodata.aName0x1C00         0xf850           0x14          20   
.rodata.drvSPI0PlibAPI      0xf864           0x10          16   
.rodata.aName0x1001         0xf874           0x10          16   
.text.APPL_StartMailbox     0xf884           0x10          16   
.text.APPL_StopInputHan     0xf894           0x10          16   
.text.APPL_StartOutputH     0xf8a4           0x10          16   
.text.APPL_StopOutputHa     0xf8b4           0x10          16   
.text.main                  0xf8c4           0x10          16   
.text.malloc                0xf8d4           0x10          16   
.text.free                  0xf8e4           0x10          16   
.text.memset                0xf8f4           0x10          16   
.text                       0xf904           0x10          16  App's exec code 
.text.DFLL_Initialize       0xf914            0xe          14   
.text.DMAC_0_Handler        0xf922            0xe          14   
.text.DMAC_1_Handler        0xf930            0xe          14   
.text.EVSYS_Initialize      0xf93e            0xe          14   
.text.BL_Stop               0xf94c            0xe          14   
.text.APPL_StopMailboxH     0xf95a            0xe          14   
.text.SYS_Tasks             0xf968            0xc          12   
.text.PDI_Timer_Interru     0xf974            0xc          12   
.text.ESC_Init              0xf980            0xc          12   
.rodata.asEntryDesc0x1C     0xf98c            0xc          12   
.rodata.asEntryDesc0x1C     0xf998            0xc          12   
.rodata.aName0x1000         0xf9a4            0xc          12   
.rodata.aName0x1008         0xf9b0            0xc          12   
.rodata.asEntryDesc0x1C     0xf9bc            0xc          12   
.rodata.drvSPI0remapClo     0xf9c8            0x8           8   
.rodata.drvSPI0remapClo     0xf9d0            0x8           8   
.rodata.sEntryDesc0x100     0xf9d8            0x8           8   
.rodata.sEntryDesc0x100     0xf9e0            0x8           8   
.rodata.sEntryDesc0x100     0xf9e8            0x8           8   
.rodata.sEntryDesc0x100     0xf9f0            0x8           8   
.rodata.sEntryDesc0x100     0xf9f8            0x8           8   
.rodata.sEntryDesc0x10F     0xfa00            0x8           8   
.rodata.acEmcyCoeHeader     0xfa08            0x8           8   
.text.NonMaskableInt_Ha     0xfa10            0x6           6   
.text.HardFault_Handler     0xfa16            0x6           6   
.text.DebugMonitor_Hand     0xfa1c            0x6           6   
.text.MemoryManagement_     0xfa22            0x6           6   
.text.BusFault_Handler      0xfa28            0x6           6   
.text.UsageFault_Handle     0xfa2e            0x6           6   
.rodata                     0xfa34            0x4           4  Read-only const 
      Total ROM used  :      0xfa1c       64028  12.2% of 0x80000
        --------------------------------------------------------------------------
         Total Program Memory used  :      0xfa1c       64028  12.2% of 0x80000
        --------------------------------------------------------------------------


RAM Data-Memory Usage
section                    address  length [bytes]      (dec)  Description
-------                 ----------  -------------------------  -----------
.bss                    0x20000000         0x3dac       15788  Uninitialized data 
.data.u32Devicetype     0x20003dac            0x4           4   
.data.impure_data       0x20003db0          0x418        1048   
.data.__malloc_av_      0x200041c8          0x408        1032   
.data.OutputsProcessDat 0x200045d0          0x204         516   
.data.InputsProcessData 0x200047d4          0x204         516   
.data.Inputs0x6000      0x200049d8          0x204         516   
.data.Outputs0x7010     0x20004bdc          0x204         516   
.data.GenObjDic         0x20004de0          0x1e0         480   
.data.ApplicationObjDic 0x20004fc0          0x118         280   
.bss.drvSPI0TransferObj 0x200050d8           0x90         144   
.bss.gDrvSPIObj         0x20005168           0x6c         108   
.bss.drvSPI0ClientObjPo 0x200051d4           0x28          40   
.bss.__malloc_current_m 0x200051fc           0x28          40   
.data.gau8DummyCntArr   0x20005224           0x27          39   
.data.gis_Tx_DMAComplet 0x2000524b            0x1           1   
.data.acSoftwareversion 0x2000524c            0x4           4   
.bss.txDummyData        0x20005250           0x20          32   
.bss._write_back_sectio 0x20005270           0x20          32   
.bss.descriptor_section 0x20005290           0x20          32   
.bss                    0x200052b0           0x1c          28  Uninitialized data 
.data.acDevicename      0x200052cc           0x16          22   
.bss.nvm_error          0x200052e2            0x2           2   
.data.sIdentity         0x200052e4           0x14          20   
.data.aSubindexDesc     0x200052f8            0xd          13   
.data.gis_Rx_DMAComplet 0x20005305            0x1           1   
.bss.isLastByteTransfer 0x20005306            0x1           1   
.bss.gchEtherCATQSPITra 0x20005307            0x1           1   
.data.sErrorSettings    0x20005308            0xc          12   
.data.acHardwareversion 0x20005314            0x4           4   
.bss.u64Timestamp       0x20005318            0x8           8   
.data.sSyncmanagertype  0x20005320            0x6           6   
.bss.u16ErrorRegister   0x20005326            0x2           2   
.bss.ObjDicList         0x20005328            0x4           4   
.bss.SMActivate         0x2000532c            0x4           4   
.data.sRxPDOassign      0x20005330            0x4           4   
.data.sTxPDOassign      0x20005334            0x4           4   
.bss.gTriggerCounterVal 0x20005338            0x4           4   
.data.gFOETestFrameSize 0x2000533c            0x4           4   
.bss.nFileWriteOffset   0x20005340            0x4           4   
.bss.nFileStartWriteAdd 0x20005344            0x4           4   
.bss.u32FileSize        0x20005348            0x4           4   
.bss.__malloc_max_sbrke 0x2000534c            0x4           4   
.bss.__malloc_max_total 0x20005350            0x4           4   
.bss.__malloc_top_pad   0x20005354            0x4           4   
.data.__malloc_sbrk_bas 0x20005358            0x4           4   
.data.__malloc_trim_thr 0x2000535c            0x4           4   
.data._impure_ptr       0x20005360            0x4           4   
.bss                    0x20005364            0x4           4  Uninitialized data 
.bss.gbALEvtOpEnabled   0x20005368            0x1           1   
.bss.bInitFinished      0x20005369            0x1           1   
.bss.EepromLoaded       0x2000536a            0x1           1   
.bss.gFirmwareDownload_ 0x2000536b            0x1           1   
.bss.gFirmwareDownload_ 0x2000536c            0x1           1   
.bss.bSdoInWork         0x2000536d            0x1           1   
         Total RAM used  :      0x536e       21358  10.9% of 0x30000
        --------------------------------------------------------------------------
            Total Data Memory used  :      0x536e       21358  10.9% of 0x30000
        --------------------------------------------------------------------------


Dynamic Data-Memory Reservation
section                    address  length [bytes]      (dec)  Description
-------                 ----------  -------------------------  -----------
heap                    0x20005370          0x200         512  Reserved for heap 
stack                   0x20005588        0x2aa68      174696  Reserved for stack 

        --------------------------------------------------------------------------

Discarded input sections

 .text          0x00000000        0x0 c:/program files (x86)/microchip/xc32/v2.30/bin/bin/../../lib/gcc/pic32c/6.2.1/v7e-m/fpv4-sp/hard/crti.o
 .data          0x00000000        0x0 c:/program files (x86)/microchip/xc32/v2.30/bin/bin/../../lib/gcc/pic32c/6.2.1/v7e-m/fpv4-sp/hard/crti.o
 .bss           0x00000000        0x0 c:/program files (x86)/microchip/xc32/v2.30/bin/bin/../../lib/gcc/pic32c/6.2.1/v7e-m/fpv4-sp/hard/crti.o
 .data          0x00000000        0x4 c:/program files (x86)/microchip/xc32/v2.30/bin/bin/../../lib/gcc/pic32c/6.2.1/v7e-m/fpv4-sp/hard/crtbegin.o
 .text          0x00000000        0x0 build/LAN9253_D51_SPI_Indirect_mode/production/_ext/2070931557/drv_spi.o
 .data          0x00000000        0x0 build/LAN9253_D51_SPI_Indirect_mode/production/_ext/2070931557/drv_spi.o
 .bss           0x00000000        0x0 build/LAN9253_D51_SPI_Indirect_mode/production/_ext/2070931557/drv_spi.o
 .text._DRV_SPI_RemoveClientTransfersFromList
                0x00000000       0x74 build/LAN9253_D51_SPI_Indirect_mode/production/_ext/2070931557/drv_spi.o
 .text.DRV_SPI_ExclusiveUse
                0x00000000       0xfc build/LAN9253_D51_SPI_Indirect_mode/production/_ext/2070931557/drv_spi.o
 .text.DRV_SPI_Status
                0x00000000       0x3c build/LAN9253_D51_SPI_Indirect_mode/production/_ext/2070931557/drv_spi.o
 .text.DRV_SPI_Close
                0x00000000       0xdc build/LAN9253_D51_SPI_Indirect_mode/production/_ext/2070931557/drv_spi.o
 .text.DRV_SPI_TransferStatusGet
                0x00000000       0x88 build/LAN9253_D51_SPI_Indirect_mode/production/_ext/2070931557/drv_spi.o
 .text.DRV_SPI_Lock
                0x00000000       0x20 build/LAN9253_D51_SPI_Indirect_mode/production/_ext/2070931557/drv_spi.o
 .text          0x00000000        0x0 build/LAN9253_D51_SPI_Indirect_mode/production/_ext/1984496892/plib_clock.o
 .data          0x00000000        0x0 build/LAN9253_D51_SPI_Indirect_mode/production/_ext/1984496892/plib_clock.o
 .bss           0x00000000        0x0 build/LAN9253_D51_SPI_Indirect_mode/production/_ext/1984496892/plib_clock.o
 .text          0x00000000        0x0 build/LAN9253_D51_SPI_Indirect_mode/production/_ext/1865131932/plib_cmcc.o
 .data          0x00000000        0x0 build/LAN9253_D51_SPI_Indirect_mode/production/_ext/1865131932/plib_cmcc.o
 .bss           0x00000000        0x0 build/LAN9253_D51_SPI_Indirect_mode/production/_ext/1865131932/plib_cmcc.o
 .text.CMCC_Disable
                0x00000000       0x2c build/LAN9253_D51_SPI_Indirect_mode/production/_ext/1865131932/plib_cmcc.o
 .text.CMCC_EnableICache
                0x00000000       0x40 build/LAN9253_D51_SPI_Indirect_mode/production/_ext/1865131932/plib_cmcc.o
 .text.CMCC_DisableICache
                0x00000000       0x40 build/LAN9253_D51_SPI_Indirect_mode/production/_ext/1865131932/plib_cmcc.o
 .text.CMCC_EnableDCache
                0x00000000       0x40 build/LAN9253_D51_SPI_Indirect_mode/production/_ext/1865131932/plib_cmcc.o
 .text.CMCC_DisableDCache
                0x00000000       0x40 build/LAN9253_D51_SPI_Indirect_mode/production/_ext/1865131932/plib_cmcc.o
 .text.CMCC_InvalidateAll
                0x00000000       0x34 build/LAN9253_D51_SPI_Indirect_mode/production/_ext/1865131932/plib_cmcc.o
 .debug_info    0x00000000      0x5a8 build/LAN9253_D51_SPI_Indirect_mode/production/_ext/1865131932/plib_cmcc.o
 .debug_abbrev  0x00000000       0x93 build/LAN9253_D51_SPI_Indirect_mode/production/_ext/1865131932/plib_cmcc.o
 .debug_loc     0x00000000      0x198 build/LAN9253_D51_SPI_Indirect_mode/production/_ext/1865131932/plib_cmcc.o
 .debug_aranges
                0x00000000       0x48 build/LAN9253_D51_SPI_Indirect_mode/production/_ext/1865131932/plib_cmcc.o
 .debug_ranges  0x00000000       0x38 build/LAN9253_D51_SPI_Indirect_mode/production/_ext/1865131932/plib_cmcc.o
 .debug_line    0x00000000      0x1e6 build/LAN9253_D51_SPI_Indirect_mode/production/_ext/1865131932/plib_cmcc.o
 .debug_str     0x00000000        0x0 build/LAN9253_D51_SPI_Indirect_mode/production/_ext/1865131932/plib_cmcc.o
 .comment       0x00000000       0x3d build/LAN9253_D51_SPI_Indirect_mode/production/_ext/1865131932/plib_cmcc.o
 .debug_frame   0x00000000       0xd0 build/LAN9253_D51_SPI_Indirect_mode/production/_ext/1865131932/plib_cmcc.o
 .ARM.attributes
                0x00000000       0x39 build/LAN9253_D51_SPI_Indirect_mode/production/_ext/1865131932/plib_cmcc.o
 .text          0x00000000        0x0 build/LAN9253_D51_SPI_Indirect_mode/production/_ext/1865161661/plib_dmac.o
 .data          0x00000000        0x0 build/LAN9253_D51_SPI_Indirect_mode/production/_ext/1865161661/plib_dmac.o
 .bss           0x00000000        0x0 build/LAN9253_D51_SPI_Indirect_mode/production/_ext/1865161661/plib_dmac.o
 .text.DMAC_ChannelIsBusy
                0x00000000       0x4c build/LAN9253_D51_SPI_Indirect_mode/production/_ext/1865161661/plib_dmac.o
 .text.DMAC_ChannelTransferStatusGet
                0x00000000       0x50 build/LAN9253_D51_SPI_Indirect_mode/production/_ext/1865161661/plib_dmac.o
 .text.DMAC_ChannelDisable
                0x00000000       0x60 build/LAN9253_D51_SPI_Indirect_mode/production/_ext/1865161661/plib_dmac.o
 .text.DMAC_ChannelGetTransferredCount
                0x00000000       0x44 build/LAN9253_D51_SPI_Indirect_mode/production/_ext/1865161661/plib_dmac.o
 .text.DMAC_ChannelSuspend
                0x00000000       0x44 build/LAN9253_D51_SPI_Indirect_mode/production/_ext/1865161661/plib_dmac.o
 .text.DMAC_ChannelResume
                0x00000000       0x44 build/LAN9253_D51_SPI_Indirect_mode/production/_ext/1865161661/plib_dmac.o
 .text.DMAC_CRCDisable
                0x00000000       0x18 build/LAN9253_D51_SPI_Indirect_mode/production/_ext/1865161661/plib_dmac.o
 .text.DMAC_ChannelCRCSetup
                0x00000000       0x60 build/LAN9253_D51_SPI_Indirect_mode/production/_ext/1865161661/plib_dmac.o
 .text.DMAC_CRCRead
                0x00000000       0x18 build/LAN9253_D51_SPI_Indirect_mode/production/_ext/1865161661/plib_dmac.o
 .text.DMAC_CRCCalculate
                0x00000000      0x104 build/LAN9253_D51_SPI_Indirect_mode/production/_ext/1865161661/plib_dmac.o
 .text          0x00000000        0x0 build/LAN9253_D51_SPI_Indirect_mode/production/_ext/60167341/plib_eic.o
 .data          0x00000000        0x0 build/LAN9253_D51_SPI_Indirect_mode/production/_ext/60167341/plib_eic.o
 .bss           0x00000000        0x0 build/LAN9253_D51_SPI_Indirect_mode/production/_ext/60167341/plib_eic.o
 .text.EIC_InterruptEnable
                0x00000000       0x28 build/LAN9253_D51_SPI_Indirect_mode/production/_ext/60167341/plib_eic.o
 .text.EIC_InterruptDisable
                0x00000000       0x28 build/LAN9253_D51_SPI_Indirect_mode/production/_ext/60167341/plib_eic.o
 .text          0x00000000        0x0 build/LAN9253_D51_SPI_Indirect_mode/production/_ext/1986646378/plib_evsys.o
 .data          0x00000000        0x0 build/LAN9253_D51_SPI_Indirect_mode/production/_ext/1986646378/plib_evsys.o
 .bss           0x00000000        0x0 build/LAN9253_D51_SPI_Indirect_mode/production/_ext/1986646378/plib_evsys.o
 .text          0x00000000        0x0 build/LAN9253_D51_SPI_Indirect_mode/production/_ext/1865468468/plib_nvic.o
 .data          0x00000000        0x0 build/LAN9253_D51_SPI_Indirect_mode/production/_ext/1865468468/plib_nvic.o
 .bss           0x00000000        0x0 build/LAN9253_D51_SPI_Indirect_mode/production/_ext/1865468468/plib_nvic.o
 .text          0x00000000        0x0 build/LAN9253_D51_SPI_Indirect_mode/production/_ext/1593096446/plib_nvmctrl.o
 .data          0x00000000        0x0 build/LAN9253_D51_SPI_Indirect_mode/production/_ext/1593096446/plib_nvmctrl.o
 .bss           0x00000000        0x0 build/LAN9253_D51_SPI_Indirect_mode/production/_ext/1593096446/plib_nvmctrl.o
 .bss.nvm_status
                0x00000000        0x2 build/LAN9253_D51_SPI_Indirect_mode/production/_ext/1593096446/plib_nvmctrl.o
 .bss.smart_eep_status
                0x00000000        0x4 build/LAN9253_D51_SPI_Indirect_mode/production/_ext/1593096446/plib_nvmctrl.o
 .text.NVMCTRL_Read
                0x00000000       0x22 build/LAN9253_D51_SPI_Indirect_mode/production/_ext/1593096446/plib_nvmctrl.o
 .text.NVMCTRL_SetWriteMode
                0x00000000       0x34 build/LAN9253_D51_SPI_Indirect_mode/production/_ext/1593096446/plib_nvmctrl.o
 .text.NVMCTRL_QuadWordWrite
                0x00000000       0x84 build/LAN9253_D51_SPI_Indirect_mode/production/_ext/1593096446/plib_nvmctrl.o
 .text.NVMCTRL_DoubleWordWrite
                0x00000000       0x84 build/LAN9253_D51_SPI_Indirect_mode/production/_ext/1593096446/plib_nvmctrl.o
 .text.NVMCTRL_ErrorGet
                0x00000000       0x40 build/LAN9253_D51_SPI_Indirect_mode/production/_ext/1593096446/plib_nvmctrl.o
 .text.NVMCTRL_StatusGet
                0x00000000       0x24 build/LAN9253_D51_SPI_Indirect_mode/production/_ext/1593096446/plib_nvmctrl.o
 .text.NVMCTRL_RegionLock
                0x00000000       0x28 build/LAN9253_D51_SPI_Indirect_mode/production/_ext/1593096446/plib_nvmctrl.o
 .text.NVMCTRL_RegionUnlock
                0x00000000       0x28 build/LAN9253_D51_SPI_Indirect_mode/production/_ext/1593096446/plib_nvmctrl.o
 .text.NVMCTRL_RegionLockStatusGet
                0x00000000       0x18 build/LAN9253_D51_SPI_Indirect_mode/production/_ext/1593096446/plib_nvmctrl.o
 .text.NVMCTRL_SmartEEPROM_IsBusy
                0x00000000       0x24 build/LAN9253_D51_SPI_Indirect_mode/production/_ext/1593096446/plib_nvmctrl.o
 .text.NVMCTRL_SmartEEPROMStatusGet
                0x00000000       0x24 build/LAN9253_D51_SPI_Indirect_mode/production/_ext/1593096446/plib_nvmctrl.o
 .text.NVMCTRL_SmartEEPROM_IsActiveSectorFull
                0x00000000       0x28 build/LAN9253_D51_SPI_Indirect_mode/production/_ext/1593096446/plib_nvmctrl.o
 .text.NVMCTRL_SmartEEPROMSectorReallocate
                0x00000000       0x1c build/LAN9253_D51_SPI_Indirect_mode/production/_ext/1593096446/plib_nvmctrl.o
 .text.NVMCTRL_SmartEEPROMFlushPageBuffer
                0x00000000       0x24 build/LAN9253_D51_SPI_Indirect_mode/production/_ext/1593096446/plib_nvmctrl.o
 .text          0x00000000        0x0 build/LAN9253_D51_SPI_Indirect_mode/production/_ext/1865521619/plib_port.o
 .data          0x00000000        0x0 build/LAN9253_D51_SPI_Indirect_mode/production/_ext/1865521619/plib_port.o
 .bss           0x00000000        0x0 build/LAN9253_D51_SPI_Indirect_mode/production/_ext/1865521619/plib_port.o
 .text.PORT_GroupRead
                0x00000000       0x18 build/LAN9253_D51_SPI_Indirect_mode/production/_ext/1865521619/plib_port.o
 .text.PORT_GroupWrite
                0x00000000       0x2e build/LAN9253_D51_SPI_Indirect_mode/production/_ext/1865521619/plib_port.o
 .text.PORT_GroupLatchRead
                0x00000000       0x18 build/LAN9253_D51_SPI_Indirect_mode/production/_ext/1865521619/plib_port.o
 .text.PORT_GroupToggle
                0x00000000       0x1c build/LAN9253_D51_SPI_Indirect_mode/production/_ext/1865521619/plib_port.o
 .text.PORT_GroupInputEnable
                0x00000000       0x1c build/LAN9253_D51_SPI_Indirect_mode/production/_ext/1865521619/plib_port.o
 .text          0x00000000        0x0 build/LAN9253_D51_SPI_Indirect_mode/production/_ext/1865555181/plib_qspi_spi.o
 .data          0x00000000        0x0 build/LAN9253_D51_SPI_Indirect_mode/production/_ext/1865555181/plib_qspi_spi.o
 .bss           0x00000000        0x0 build/LAN9253_D51_SPI_Indirect_mode/production/_ext/1865555181/plib_qspi_spi.o
 .text.QSPI_Initialize
                0x00000000       0x3c build/LAN9253_D51_SPI_Indirect_mode/production/_ext/1865555181/plib_qspi_spi.o
 .text.QSPI_Write
                0x00000000       0x20 build/LAN9253_D51_SPI_Indirect_mode/production/_ext/1865555181/plib_qspi_spi.o
 .text.QSPI_Read
                0x00000000       0x20 build/LAN9253_D51_SPI_Indirect_mode/production/_ext/1865555181/plib_qspi_spi.o
 .text          0x00000000        0x0 build/LAN9253_D51_SPI_Indirect_mode/production/_ext/1865555181/plib_qspi.o
 .data          0x00000000        0x0 build/LAN9253_D51_SPI_Indirect_mode/production/_ext/1865555181/plib_qspi.o
 .bss           0x00000000        0x0 build/LAN9253_D51_SPI_Indirect_mode/production/_ext/1865555181/plib_qspi.o
 .debug_line    0x00000000        0x0 build/LAN9253_D51_SPI_Indirect_mode/production/_ext/1865555181/plib_qspi.o
 .debug_str     0x00000000        0x0 build/LAN9253_D51_SPI_Indirect_mode/production/_ext/1865555181/plib_qspi.o
 .comment       0x00000000       0x3d build/LAN9253_D51_SPI_Indirect_mode/production/_ext/1865555181/plib_qspi.o
 .ARM.attributes
                0x00000000       0x39 build/LAN9253_D51_SPI_Indirect_mode/production/_ext/1865555181/plib_qspi.o
 .text          0x00000000        0x0 build/LAN9253_D51_SPI_Indirect_mode/production/_ext/1827571544/plib_systick.o
 .data          0x00000000        0x0 build/LAN9253_D51_SPI_Indirect_mode/production/_ext/1827571544/plib_systick.o
 .bss           0x00000000        0x0 build/LAN9253_D51_SPI_Indirect_mode/production/_ext/1827571544/plib_systick.o
 .text.SYSTICK_TimerRestart
                0x00000000       0x30 build/LAN9253_D51_SPI_Indirect_mode/production/_ext/1827571544/plib_systick.o
 .text.SYSTICK_TimerStop
                0x00000000       0x20 build/LAN9253_D51_SPI_Indirect_mode/production/_ext/1827571544/plib_systick.o
 .text.SYSTICK_TimerPeriodSet
                0x00000000       0x20 build/LAN9253_D51_SPI_Indirect_mode/production/_ext/1827571544/plib_systick.o
 .text.SYSTICK_TimerPeriodGet
                0x00000000       0x18 build/LAN9253_D51_SPI_Indirect_mode/production/_ext/1827571544/plib_systick.o
 .text.SYSTICK_TimerCounterGet
                0x00000000       0x18 build/LAN9253_D51_SPI_Indirect_mode/production/_ext/1827571544/plib_systick.o
 .text.SYSTICK_TimerFrequencyGet
                0x00000000       0x14 build/LAN9253_D51_SPI_Indirect_mode/production/_ext/1827571544/plib_systick.o
 .text.SYSTICK_DelayMs
                0x00000000       0x58 build/LAN9253_D51_SPI_Indirect_mode/production/_ext/1827571544/plib_systick.o
 .text          0x00000000        0x0 build/LAN9253_D51_SPI_Indirect_mode/production/_ext/163028504/xc32_monitor.o
 .data          0x00000000        0x0 build/LAN9253_D51_SPI_Indirect_mode/production/_ext/163028504/xc32_monitor.o
 .bss           0x00000000        0x0 build/LAN9253_D51_SPI_Indirect_mode/production/_ext/163028504/xc32_monitor.o
 .text._mon_getc
                0x00000000       0x16 build/LAN9253_D51_SPI_Indirect_mode/production/_ext/163028504/xc32_monitor.o
 .text._mon_putc
                0x00000000       0x16 build/LAN9253_D51_SPI_Indirect_mode/production/_ext/163028504/xc32_monitor.o
 .debug_info    0x00000000      0x2b7 build/LAN9253_D51_SPI_Indirect_mode/production/_ext/163028504/xc32_monitor.o
 .debug_abbrev  0x00000000       0x66 build/LAN9253_D51_SPI_Indirect_mode/production/_ext/163028504/xc32_monitor.o
 .debug_loc     0x00000000       0xb8 build/LAN9253_D51_SPI_Indirect_mode/production/_ext/163028504/xc32_monitor.o
 .debug_aranges
                0x00000000       0x28 build/LAN9253_D51_SPI_Indirect_mode/production/_ext/163028504/xc32_monitor.o
 .debug_ranges  0x00000000       0x18 build/LAN9253_D51_SPI_Indirect_mode/production/_ext/163028504/xc32_monitor.o
 .debug_line    0x00000000       0x6c build/LAN9253_D51_SPI_Indirect_mode/production/_ext/163028504/xc32_monitor.o
 .debug_str     0x00000000        0x0 build/LAN9253_D51_SPI_Indirect_mode/production/_ext/163028504/xc32_monitor.o
 .comment       0x00000000       0x3d build/LAN9253_D51_SPI_Indirect_mode/production/_ext/163028504/xc32_monitor.o
 .debug_frame   0x00000000       0x60 build/LAN9253_D51_SPI_Indirect_mode/production/_ext/163028504/xc32_monitor.o
 .ARM.attributes
                0x00000000       0x39 build/LAN9253_D51_SPI_Indirect_mode/production/_ext/163028504/xc32_monitor.o
 .text          0x00000000        0x0 build/LAN9253_D51_SPI_Indirect_mode/production/_ext/1014039709/sys_cache.o
 .data          0x00000000        0x0 build/LAN9253_D51_SPI_Indirect_mode/production/_ext/1014039709/sys_cache.o
 .bss           0x00000000        0x0 build/LAN9253_D51_SPI_Indirect_mode/production/_ext/1014039709/sys_cache.o
 .text.SYS_CACHE_EnableCaches
                0x00000000        0xe build/LAN9253_D51_SPI_Indirect_mode/production/_ext/1014039709/sys_cache.o
 .text.SYS_CACHE_DisableCaches
                0x00000000        0xe build/LAN9253_D51_SPI_Indirect_mode/production/_ext/1014039709/sys_cache.o
 .text.SYS_CACHE_EnableICache
                0x00000000        0xe build/LAN9253_D51_SPI_Indirect_mode/production/_ext/1014039709/sys_cache.o
 .text.SYS_CACHE_DisableICache
                0x00000000        0xe build/LAN9253_D51_SPI_Indirect_mode/production/_ext/1014039709/sys_cache.o
 .text.SYS_CACHE_InvalidateICache
                0x00000000        0xe build/LAN9253_D51_SPI_Indirect_mode/production/_ext/1014039709/sys_cache.o
 .text.SYS_CACHE_EnableDCache
                0x00000000        0xe build/LAN9253_D51_SPI_Indirect_mode/production/_ext/1014039709/sys_cache.o
 .text.SYS_CACHE_DisableDCache
                0x00000000        0xe build/LAN9253_D51_SPI_Indirect_mode/production/_ext/1014039709/sys_cache.o
 .text.SYS_CACHE_InvalidateDCache
                0x00000000        0xe build/LAN9253_D51_SPI_Indirect_mode/production/_ext/1014039709/sys_cache.o
 .text.SYS_CACHE_CleanDCache
                0x00000000        0xe build/LAN9253_D51_SPI_Indirect_mode/production/_ext/1014039709/sys_cache.o
 .text.SYS_CACHE_CleanInvalidateDCache
                0x00000000        0xe build/LAN9253_D51_SPI_Indirect_mode/production/_ext/1014039709/sys_cache.o
 .text.SYS_CACHE_InvalidateDCache_by_Addr
                0x00000000       0x16 build/LAN9253_D51_SPI_Indirect_mode/production/_ext/1014039709/sys_cache.o
 .text.SYS_CACHE_CleanDCache_by_Addr
                0x00000000       0x16 build/LAN9253_D51_SPI_Indirect_mode/production/_ext/1014039709/sys_cache.o
 .text.SYS_CACHE_CleanInvalidateDCache_by_Addr
                0x00000000       0x16 build/LAN9253_D51_SPI_Indirect_mode/production/_ext/1014039709/sys_cache.o
 .debug_info    0x00000000      0x629 build/LAN9253_D51_SPI_Indirect_mode/production/_ext/1014039709/sys_cache.o
 .debug_abbrev  0x00000000       0x90 build/LAN9253_D51_SPI_Indirect_mode/production/_ext/1014039709/sys_cache.o
 .debug_loc     0x00000000      0x3bc build/LAN9253_D51_SPI_Indirect_mode/production/_ext/1014039709/sys_cache.o
 .debug_aranges
                0x00000000       0x80 build/LAN9253_D51_SPI_Indirect_mode/production/_ext/1014039709/sys_cache.o
 .debug_ranges  0x00000000       0x70 build/LAN9253_D51_SPI_Indirect_mode/production/_ext/1014039709/sys_cache.o
 .debug_line    0x00000000      0x201 build/LAN9253_D51_SPI_Indirect_mode/production/_ext/1014039709/sys_cache.o
 .debug_str     0x00000000        0x0 build/LAN9253_D51_SPI_Indirect_mode/production/_ext/1014039709/sys_cache.o
 .comment       0x00000000       0x3d build/LAN9253_D51_SPI_Indirect_mode/production/_ext/1014039709/sys_cache.o
 .debug_frame   0x00000000      0x1c8 build/LAN9253_D51_SPI_Indirect_mode/production/_ext/1014039709/sys_cache.o
 .ARM.attributes
                0x00000000       0x39 build/LAN9253_D51_SPI_Indirect_mode/production/_ext/1014039709/sys_cache.o
 .text          0x00000000        0x0 build/LAN9253_D51_SPI_Indirect_mode/production/_ext/14461671/sys_dma.o
 .data          0x00000000        0x0 build/LAN9253_D51_SPI_Indirect_mode/production/_ext/14461671/sys_dma.o
 .bss           0x00000000        0x0 build/LAN9253_D51_SPI_Indirect_mode/production/_ext/14461671/sys_dma.o
 .text          0x00000000        0x0 build/LAN9253_D51_SPI_Indirect_mode/production/_ext/1881668453/sys_int.o
 .data          0x00000000        0x0 build/LAN9253_D51_SPI_Indirect_mode/production/_ext/1881668453/sys_int.o
 .bss           0x00000000        0x0 build/LAN9253_D51_SPI_Indirect_mode/production/_ext/1881668453/sys_int.o
 .text.SYS_INT_Enable
                0x00000000       0x14 build/LAN9253_D51_SPI_Indirect_mode/production/_ext/1881668453/sys_int.o
 .text          0x00000000        0x0 build/LAN9253_D51_SPI_Indirect_mode/production/_ext/1171490990/exceptions.o
 .data          0x00000000        0x0 build/LAN9253_D51_SPI_Indirect_mode/production/_ext/1171490990/exceptions.o
 .bss           0x00000000        0x0 build/LAN9253_D51_SPI_Indirect_mode/production/_ext/1171490990/exceptions.o
 .text          0x00000000        0x0 build/LAN9253_D51_SPI_Indirect_mode/production/_ext/1171490990/initialization.o
 .data          0x00000000        0x0 build/LAN9253_D51_SPI_Indirect_mode/production/_ext/1171490990/initialization.o
 .bss           0x00000000        0x0 build/LAN9253_D51_SPI_Indirect_mode/production/_ext/1171490990/initialization.o
 .text          0x00000000        0x0 build/LAN9253_D51_SPI_Indirect_mode/production/_ext/1171490990/interrupts.o
 .data          0x00000000        0x0 build/LAN9253_D51_SPI_Indirect_mode/production/_ext/1171490990/interrupts.o
 .bss           0x00000000        0x0 build/LAN9253_D51_SPI_Indirect_mode/production/_ext/1171490990/interrupts.o
 .text          0x00000000        0x0 build/LAN9253_D51_SPI_Indirect_mode/production/_ext/1171490990/libc_syscalls.o
 .data          0x00000000        0x0 build/LAN9253_D51_SPI_Indirect_mode/production/_ext/1171490990/libc_syscalls.o
 .bss           0x00000000        0x0 build/LAN9253_D51_SPI_Indirect_mode/production/_ext/1171490990/libc_syscalls.o
 .text._exit    0x00000000        0xa build/LAN9253_D51_SPI_Indirect_mode/production/_ext/1171490990/libc_syscalls.o
 .debug_info    0x00000000      0xed0 build/LAN9253_D51_SPI_Indirect_mode/production/_ext/1171490990/libc_syscalls.o
 .debug_abbrev  0x00000000      0x1a8 build/LAN9253_D51_SPI_Indirect_mode/production/_ext/1171490990/libc_syscalls.o
 .debug_loc     0x00000000       0x38 build/LAN9253_D51_SPI_Indirect_mode/production/_ext/1171490990/libc_syscalls.o
 .debug_aranges
                0x00000000       0x20 build/LAN9253_D51_SPI_Indirect_mode/production/_ext/1171490990/libc_syscalls.o
 .debug_ranges  0x00000000       0x10 build/LAN9253_D51_SPI_Indirect_mode/production/_ext/1171490990/libc_syscalls.o
 .debug_line    0x00000000      0x1e8 build/LAN9253_D51_SPI_Indirect_mode/production/_ext/1171490990/libc_syscalls.o
 .debug_str     0x00000000        0xe build/LAN9253_D51_SPI_Indirect_mode/production/_ext/1171490990/libc_syscalls.o
 .comment       0x00000000       0x3d build/LAN9253_D51_SPI_Indirect_mode/production/_ext/1171490990/libc_syscalls.o
 .debug_frame   0x00000000       0x2c build/LAN9253_D51_SPI_Indirect_mode/production/_ext/1171490990/libc_syscalls.o
 .ARM.attributes
                0x00000000       0x39 build/LAN9253_D51_SPI_Indirect_mode/production/_ext/1171490990/libc_syscalls.o
 .text          0x00000000        0x0 build/LAN9253_D51_SPI_Indirect_mode/production/_ext/1171490990/startup_xc32.o
 .data          0x00000000        0x0 build/LAN9253_D51_SPI_Indirect_mode/production/_ext/1171490990/startup_xc32.o
 .bss           0x00000000        0x0 build/LAN9253_D51_SPI_Indirect_mode/production/_ext/1171490990/startup_xc32.o
 .text          0x00000000        0x0 build/LAN9253_D51_SPI_Indirect_mode/production/_ext/1171490990/tasks.o
 .data          0x00000000        0x0 build/LAN9253_D51_SPI_Indirect_mode/production/_ext/1171490990/tasks.o
 .bss           0x00000000        0x0 build/LAN9253_D51_SPI_Indirect_mode/production/_ext/1171490990/tasks.o
 .text          0x00000000        0x0 build/LAN9253_D51_SPI_Indirect_mode/production/_ext/1671622979/Drivers.o
 .data          0x00000000        0x0 build/LAN9253_D51_SPI_Indirect_mode/production/_ext/1671622979/Drivers.o
 .bss           0x00000000        0x0 build/LAN9253_D51_SPI_Indirect_mode/production/_ext/1671622979/Drivers.o
 .text.__NVIC_EnableIRQ
                0x00000000       0x3c build/LAN9253_D51_SPI_Indirect_mode/production/_ext/1671622979/Drivers.o
 .text.__NVIC_DisableIRQ
                0x00000000       0x44 build/LAN9253_D51_SPI_Indirect_mode/production/_ext/1671622979/Drivers.o
 .text.EtherCAT_TransmissionFlagClear
                0x00000000       0x18 build/LAN9253_D51_SPI_Indirect_mode/production/_ext/1671622979/Drivers.o
 .text.EtherCAT_QSPITransmissionBusy
                0x00000000       0x24 build/LAN9253_D51_SPI_Indirect_mode/production/_ext/1671622979/Drivers.o
 .text.HandleSetupPhase
                0x00000000       0xd0 build/LAN9253_D51_SPI_Indirect_mode/production/_ext/1671622979/Drivers.o
 .text.HandleDummyPhase
                0x00000000       0x7c build/LAN9253_D51_SPI_Indirect_mode/production/_ext/1671622979/Drivers.o
 .text.HandleDataPhase
                0x00000000      0x194 build/LAN9253_D51_SPI_Indirect_mode/production/_ext/1671622979/Drivers.o
 .text.HandleDataAlignment
                0x00000000       0xe8 build/LAN9253_D51_SPI_Indirect_mode/production/_ext/1671622979/Drivers.o
 .text.PDI_GetTimer
                0x00000000       0x10 build/LAN9253_D51_SPI_Indirect_mode/production/_ext/1671622979/Drivers.o
 .text.PDI_ClearTimer
                0x00000000        0xe build/LAN9253_D51_SPI_Indirect_mode/production/_ext/1671622979/Drivers.o
 .text.stop_timer
                0x00000000       0x10 build/LAN9253_D51_SPI_Indirect_mode/production/_ext/1671622979/Drivers.o
 .text.start_timer
                0x00000000       0x10 build/LAN9253_D51_SPI_Indirect_mode/production/_ext/1671622979/Drivers.o
 .text.LAN9252SPI_Write
                0x00000000       0x46 build/LAN9253_D51_SPI_Indirect_mode/production/_ext/1671622979/Drivers.o
 .text.LAN9252SPI_Read
                0x00000000       0x46 build/LAN9253_D51_SPI_Indirect_mode/production/_ext/1671622979/Drivers.o
 .text.LAN9252SPI_FastRead
                0x00000000       0x72 build/LAN9253_D51_SPI_Indirect_mode/production/_ext/1671622979/Drivers.o
 .text.LAN9252SPI_ReadPDRAM
                0x00000000      0x124 build/LAN9253_D51_SPI_Indirect_mode/production/_ext/1671622979/Drivers.o
 .text.LAN9252SPI_DMA_ReadPDRAM
                0x00000000       0xfc build/LAN9253_D51_SPI_Indirect_mode/production/_ext/1671622979/Drivers.o
 .text.LAN9252SPI_FastReadPDRAM
                0x00000000      0x1d8 build/LAN9253_D51_SPI_Indirect_mode/production/_ext/1671622979/Drivers.o
 .text.LAN9252SPI_WritePDRAM
                0x00000000      0x124 build/LAN9253_D51_SPI_Indirect_mode/production/_ext/1671622979/Drivers.o
 .text          0x00000000        0x0 build/LAN9253_D51_SPI_Indirect_mode/production/_ext/108147519/ESC_Utils.o
 .data          0x00000000        0x0 build/LAN9253_D51_SPI_Indirect_mode/production/_ext/108147519/ESC_Utils.o
 .bss           0x00000000        0x0 build/LAN9253_D51_SPI_Indirect_mode/production/_ext/108147519/ESC_Utils.o
 .text          0x00000000        0x0 build/LAN9253_D51_SPI_Indirect_mode/production/_ext/108147519/LAN925x.o
 .data          0x00000000        0x0 build/LAN9253_D51_SPI_Indirect_mode/production/_ext/108147519/LAN925x.o
 .bss           0x00000000        0x0 build/LAN9253_D51_SPI_Indirect_mode/production/_ext/108147519/LAN925x.o
 .text.HW_Release
                0x00000000        0xe build/LAN9253_D51_SPI_Indirect_mode/production/_ext/108147519/LAN925x.o
 .text.HW_EscWriteMailbox
                0x00000000       0x24 build/LAN9253_D51_SPI_Indirect_mode/production/_ext/108147519/LAN925x.o
 .text.HW_EscReadMailbox
                0x00000000       0x24 build/LAN9253_D51_SPI_Indirect_mode/production/_ext/108147519/LAN925x.o
 .text.HW_SetLed
                0x00000000       0x1c build/LAN9253_D51_SPI_Indirect_mode/production/_ext/108147519/LAN925x.o
 .text          0x00000000        0x0 build/LAN9253_D51_SPI_Indirect_mode/production/_ext/108134065/bootmode.o
 .data          0x00000000        0x0 build/LAN9253_D51_SPI_Indirect_mode/production/_ext/108134065/bootmode.o
 .bss           0x00000000        0x0 build/LAN9253_D51_SPI_Indirect_mode/production/_ext/108134065/bootmode.o
 .text.BL_StartDownload
                0x00000000       0x14 build/LAN9253_D51_SPI_Indirect_mode/production/_ext/108134065/bootmode.o
 .text.BL_Data  0x00000000       0x1a build/LAN9253_D51_SPI_Indirect_mode/production/_ext/108134065/bootmode.o
 .text          0x00000000        0x0 build/LAN9253_D51_SPI_Indirect_mode/production/_ext/108134065/coeappl.o
 .data          0x00000000        0x0 build/LAN9253_D51_SPI_Indirect_mode/production/_ext/108134065/coeappl.o
 .bss           0x00000000        0x0 build/LAN9253_D51_SPI_Indirect_mode/production/_ext/108134065/coeappl.o
 .text          0x00000000        0x0 build/LAN9253_D51_SPI_Indirect_mode/production/_ext/108134065/ecatappl.o
 .data          0x00000000        0x0 build/LAN9253_D51_SPI_Indirect_mode/production/_ext/108134065/ecatappl.o
 .bss           0x00000000        0x0 build/LAN9253_D51_SPI_Indirect_mode/production/_ext/108134065/ecatappl.o
 .text          0x00000000        0x0 build/LAN9253_D51_SPI_Indirect_mode/production/_ext/108134065/ecatcoe.o
 .data          0x00000000        0x0 build/LAN9253_D51_SPI_Indirect_mode/production/_ext/108134065/ecatcoe.o
 .bss           0x00000000        0x0 build/LAN9253_D51_SPI_Indirect_mode/production/_ext/108134065/ecatcoe.o
 .text          0x00000000        0x0 build/LAN9253_D51_SPI_Indirect_mode/production/_ext/108134065/ecatfoe.o
 .data          0x00000000        0x0 build/LAN9253_D51_SPI_Indirect_mode/production/_ext/108134065/ecatfoe.o
 .bss           0x00000000        0x0 build/LAN9253_D51_SPI_Indirect_mode/production/_ext/108134065/ecatfoe.o
 .text          0x00000000        0x0 build/LAN9253_D51_SPI_Indirect_mode/production/_ext/108134065/ecatslv.o
 .data          0x00000000        0x0 build/LAN9253_D51_SPI_Indirect_mode/production/_ext/108134065/ecatslv.o
 .bss           0x00000000        0x0 build/LAN9253_D51_SPI_Indirect_mode/production/_ext/108134065/ecatslv.o
 .text.ECAT_StateChange
                0x00000000      0x188 build/LAN9253_D51_SPI_Indirect_mode/production/_ext/108134065/ecatslv.o
 .text          0x00000000        0x0 build/LAN9253_D51_SPI_Indirect_mode/production/_ext/108134065/emcy.o
 .data          0x00000000        0x0 build/LAN9253_D51_SPI_Indirect_mode/production/_ext/108134065/emcy.o
 .bss           0x00000000        0x0 build/LAN9253_D51_SPI_Indirect_mode/production/_ext/108134065/emcy.o
 .text          0x00000000        0x0 build/LAN9253_D51_SPI_Indirect_mode/production/_ext/108134065/foeappl.o
 .data          0x00000000        0x0 build/LAN9253_D51_SPI_Indirect_mode/production/_ext/108134065/foeappl.o
 .bss           0x00000000        0x0 build/LAN9253_D51_SPI_Indirect_mode/production/_ext/108134065/foeappl.o
 .text          0x00000000        0x0 build/LAN9253_D51_SPI_Indirect_mode/production/_ext/108134065/mailbox.o
 .data          0x00000000        0x0 build/LAN9253_D51_SPI_Indirect_mode/production/_ext/108134065/mailbox.o
 .bss           0x00000000        0x0 build/LAN9253_D51_SPI_Indirect_mode/production/_ext/108134065/mailbox.o
 .text          0x00000000        0x0 build/LAN9253_D51_SPI_Indirect_mode/production/_ext/108134065/objdef.o
 .data          0x00000000        0x0 build/LAN9253_D51_SPI_Indirect_mode/production/_ext/108134065/objdef.o
 .bss           0x00000000        0x0 build/LAN9253_D51_SPI_Indirect_mode/production/_ext/108134065/objdef.o
 .text          0x00000000        0x0 build/LAN9253_D51_SPI_Indirect_mode/production/_ext/108134065/sample_app.o
 .data          0x00000000        0x0 build/LAN9253_D51_SPI_Indirect_mode/production/_ext/108134065/sample_app.o
 .bss           0x00000000        0x0 build/LAN9253_D51_SPI_Indirect_mode/production/_ext/108134065/sample_app.o
 .text.HW_EepromReload
                0x00000000       0x10 build/LAN9253_D51_SPI_Indirect_mode/production/_ext/108134065/sample_app.o
 .text          0x00000000        0x0 build/LAN9253_D51_SPI_Indirect_mode/production/_ext/108134065/sdoserv.o
 .data          0x00000000        0x0 build/LAN9253_D51_SPI_Indirect_mode/production/_ext/108134065/sdoserv.o
 .bss           0x00000000        0x0 build/LAN9253_D51_SPI_Indirect_mode/production/_ext/108134065/sdoserv.o
 .text          0x00000000        0x0 build/LAN9253_D51_SPI_Indirect_mode/production/_ext/1360937237/main.o
 .data          0x00000000        0x0 build/LAN9253_D51_SPI_Indirect_mode/production/_ext/1360937237/main.o
 .bss           0x00000000        0x0 build/LAN9253_D51_SPI_Indirect_mode/production/_ext/1360937237/main.o
 .text          0x00000000        0x0 build/LAN9253_D51_SPI_Indirect_mode/production/_ext/1360937237/app.o
 .data          0x00000000        0x0 build/LAN9253_D51_SPI_Indirect_mode/production/_ext/1360937237/app.o
 .bss           0x00000000        0x0 build/LAN9253_D51_SPI_Indirect_mode/production/_ext/1360937237/app.o
 .rodata.gAppBankBOffsetAddr
                0x00000000        0x4 build/LAN9253_D51_SPI_Indirect_mode/production/_ext/1360937237/app.o
 .rodata.gApplicationStartAddr
                0x00000000        0x4 build/LAN9253_D51_SPI_Indirect_mode/production/_ext/1360937237/app.o
 .text          0x00000000        0x0 build/LAN9253_D51_SPI_Indirect_mode/production/_ext/1360937237/Developer_Test.o
 .data          0x00000000        0x0 build/LAN9253_D51_SPI_Indirect_mode/production/_ext/1360937237/Developer_Test.o
 .bss           0x00000000        0x0 build/LAN9253_D51_SPI_Indirect_mode/production/_ext/1360937237/Developer_Test.o
 .debug_info    0x00000000     0x18ef build/LAN9253_D51_SPI_Indirect_mode/production/_ext/1360937237/Developer_Test.o
 .debug_abbrev  0x00000000      0x1b3 build/LAN9253_D51_SPI_Indirect_mode/production/_ext/1360937237/Developer_Test.o
 .debug_aranges
                0x00000000       0x18 build/LAN9253_D51_SPI_Indirect_mode/production/_ext/1360937237/Developer_Test.o
 .debug_line    0x00000000      0x329 build/LAN9253_D51_SPI_Indirect_mode/production/_ext/1360937237/Developer_Test.o
 .debug_str     0x00000000        0xe build/LAN9253_D51_SPI_Indirect_mode/production/_ext/1360937237/Developer_Test.o
 .comment       0x00000000       0x3d build/LAN9253_D51_SPI_Indirect_mode/production/_ext/1360937237/Developer_Test.o
 .ARM.attributes
                0x00000000       0x39 build/LAN9253_D51_SPI_Indirect_mode/production/_ext/1360937237/Developer_Test.o
 .text          0x00000000        0x0 c:/program files (x86)/microchip/xc32/v2.30/bin/bin/../../lib/gcc/pic32c/6.2.1/../../../../pic32c/lib/v7e-m/fpv4-sp/hard\libpic32c.a(data_init.o)
 .data          0x00000000        0x0 c:/program files (x86)/microchip/xc32/v2.30/bin/bin/../../lib/gcc/pic32c/6.2.1/../../../../pic32c/lib/v7e-m/fpv4-sp/hard\libpic32c.a(data_init.o)
 .bss           0x00000000        0x0 c:/program files (x86)/microchip/xc32/v2.30/bin/bin/../../lib/gcc/pic32c/6.2.1/../../../../pic32c/lib/v7e-m/fpv4-sp/hard\libpic32c.a(data_init.o)
 .text          0x00000000        0x0 c:/program files (x86)/microchip/xc32/v2.30/bin/bin/../../lib/gcc/pic32c/6.2.1/../../../../pic32c/lib/v7e-m/fpv4-sp/hard\libc.a(lib_a-init.o)
 .data          0x00000000        0x0 c:/program files (x86)/microchip/xc32/v2.30/bin/bin/../../lib/gcc/pic32c/6.2.1/../../../../pic32c/lib/v7e-m/fpv4-sp/hard\libc.a(lib_a-init.o)
 .bss           0x00000000        0x0 c:/program files (x86)/microchip/xc32/v2.30/bin/bin/../../lib/gcc/pic32c/6.2.1/../../../../pic32c/lib/v7e-m/fpv4-sp/hard\libc.a(lib_a-init.o)
 .text          0x00000000        0x0 c:/program files (x86)/microchip/xc32/v2.30/bin/bin/../../lib/gcc/pic32c/6.2.1/../../../../pic32c/lib/v7e-m/fpv4-sp/hard\libc.a(lib_a-malloc.o)
 .data          0x00000000        0x0 c:/program files (x86)/microchip/xc32/v2.30/bin/bin/../../lib/gcc/pic32c/6.2.1/../../../../pic32c/lib/v7e-m/fpv4-sp/hard\libc.a(lib_a-malloc.o)
 .bss           0x00000000        0x0 c:/program files (x86)/microchip/xc32/v2.30/bin/bin/../../lib/gcc/pic32c/6.2.1/../../../../pic32c/lib/v7e-m/fpv4-sp/hard\libc.a(lib_a-malloc.o)
 .text          0x00000000        0x0 c:/program files (x86)/microchip/xc32/v2.30/bin/bin/../../lib/gcc/pic32c/6.2.1/../../../../pic32c/lib/v7e-m/fpv4-sp/hard\libc.a(lib_a-mallocr.o)
 .data          0x00000000        0x0 c:/program files (x86)/microchip/xc32/v2.30/bin/bin/../../lib/gcc/pic32c/6.2.1/../../../../pic32c/lib/v7e-m/fpv4-sp/hard\libc.a(lib_a-mallocr.o)
 .bss           0x00000000        0x0 c:/program files (x86)/microchip/xc32/v2.30/bin/bin/../../lib/gcc/pic32c/6.2.1/../../../../pic32c/lib/v7e-m/fpv4-sp/hard\libc.a(lib_a-mallocr.o)
 .text          0x00000000        0x0 c:/program files (x86)/microchip/xc32/v2.30/bin/bin/../../lib/gcc/pic32c/6.2.1/../../../../pic32c/lib/v7e-m/fpv4-sp/hard\libc.a(lib_a-memcpy-stub.o)
 .data          0x00000000        0x0 c:/program files (x86)/microchip/xc32/v2.30/bin/bin/../../lib/gcc/pic32c/6.2.1/../../../../pic32c/lib/v7e-m/fpv4-sp/hard\libc.a(lib_a-memcpy-stub.o)
 .bss           0x00000000        0x0 c:/program files (x86)/microchip/xc32/v2.30/bin/bin/../../lib/gcc/pic32c/6.2.1/../../../../pic32c/lib/v7e-m/fpv4-sp/hard\libc.a(lib_a-memcpy-stub.o)
 .text          0x00000000        0x0 c:/program files (x86)/microchip/xc32/v2.30/bin/bin/../../lib/gcc/pic32c/6.2.1/../../../../pic32c/lib/v7e-m/fpv4-sp/hard\libc.a(lib_a-memset.o)
 .data          0x00000000        0x0 c:/program files (x86)/microchip/xc32/v2.30/bin/bin/../../lib/gcc/pic32c/6.2.1/../../../../pic32c/lib/v7e-m/fpv4-sp/hard\libc.a(lib_a-memset.o)
 .bss           0x00000000        0x0 c:/program files (x86)/microchip/xc32/v2.30/bin/bin/../../lib/gcc/pic32c/6.2.1/../../../../pic32c/lib/v7e-m/fpv4-sp/hard\libc.a(lib_a-memset.o)
 .text          0x00000000        0x0 c:/program files (x86)/microchip/xc32/v2.30/bin/bin/../../lib/gcc/pic32c/6.2.1/../../../../pic32c/lib/v7e-m/fpv4-sp/hard\libc.a(lib_a-mlock.o)
 .data          0x00000000        0x0 c:/program files (x86)/microchip/xc32/v2.30/bin/bin/../../lib/gcc/pic32c/6.2.1/../../../../pic32c/lib/v7e-m/fpv4-sp/hard\libc.a(lib_a-mlock.o)
 .bss           0x00000000        0x0 c:/program files (x86)/microchip/xc32/v2.30/bin/bin/../../lib/gcc/pic32c/6.2.1/../../../../pic32c/lib/v7e-m/fpv4-sp/hard\libc.a(lib_a-mlock.o)
 .text          0x00000000        0x0 c:/program files (x86)/microchip/xc32/v2.30/bin/bin/../../lib/gcc/pic32c/6.2.1/../../../../pic32c/lib/v7e-m/fpv4-sp/hard\libc.a(lib_a-sbrkr.o)
 .data          0x00000000        0x0 c:/program files (x86)/microchip/xc32/v2.30/bin/bin/../../lib/gcc/pic32c/6.2.1/../../../../pic32c/lib/v7e-m/fpv4-sp/hard\libc.a(lib_a-sbrkr.o)
 .bss           0x00000000        0x0 c:/program files (x86)/microchip/xc32/v2.30/bin/bin/../../lib/gcc/pic32c/6.2.1/../../../../pic32c/lib/v7e-m/fpv4-sp/hard\libc.a(lib_a-sbrkr.o)
 .data          0x00000000        0x0 c:/program files (x86)/microchip/xc32/v2.30/bin/bin/../../lib/gcc/pic32c/6.2.1/../../../../pic32c/lib/v7e-m/fpv4-sp/hard\libc.a(lib_a-strlen.o)
 .bss           0x00000000        0x0 c:/program files (x86)/microchip/xc32/v2.30/bin/bin/../../lib/gcc/pic32c/6.2.1/../../../../pic32c/lib/v7e-m/fpv4-sp/hard\libc.a(lib_a-strlen.o)
 .text          0x00000000        0x0 c:/program files (x86)/microchip/xc32/v2.30/bin/bin/../../lib/gcc/pic32c/6.2.1/../../../../pic32c/lib/v7e-m/fpv4-sp/hard\libc.a(lib_a-freer.o)
 .data          0x00000000        0x0 c:/program files (x86)/microchip/xc32/v2.30/bin/bin/../../lib/gcc/pic32c/6.2.1/../../../../pic32c/lib/v7e-m/fpv4-sp/hard\libc.a(lib_a-freer.o)
 .bss           0x00000000        0x0 c:/program files (x86)/microchip/xc32/v2.30/bin/bin/../../lib/gcc/pic32c/6.2.1/../../../../pic32c/lib/v7e-m/fpv4-sp/hard\libc.a(lib_a-freer.o)
 .text          0x00000000        0x0 c:/program files (x86)/microchip/xc32/v2.30/bin/bin/../../lib/gcc/pic32c/6.2.1/../../../../pic32c/lib/v7e-m/fpv4-sp/hard\libc.a(lib_a-impure.o)
 .data          0x00000000        0x0 c:/program files (x86)/microchip/xc32/v2.30/bin/bin/../../lib/gcc/pic32c/6.2.1/../../../../pic32c/lib/v7e-m/fpv4-sp/hard\libc.a(lib_a-impure.o)
 .bss           0x00000000        0x0 c:/program files (x86)/microchip/xc32/v2.30/bin/bin/../../lib/gcc/pic32c/6.2.1/../../../../pic32c/lib/v7e-m/fpv4-sp/hard\libc.a(lib_a-impure.o)
 .rodata._global_impure_ptr
                0x00000000        0x4 c:/program files (x86)/microchip/xc32/v2.30/bin/bin/../../lib/gcc/pic32c/6.2.1/../../../../pic32c/lib/v7e-m/fpv4-sp/hard\libc.a(lib_a-impure.o)
 .text          0x00000000        0x0 c:/program files (x86)/microchip/xc32/v2.30/bin/bin/../../lib/gcc/pic32c/6.2.1/../../../../pic32c/lib/v7e-m/fpv4-sp/hard\libc.a(lib_a-reent.o)
 .data          0x00000000        0x0 c:/program files (x86)/microchip/xc32/v2.30/bin/bin/../../lib/gcc/pic32c/6.2.1/../../../../pic32c/lib/v7e-m/fpv4-sp/hard\libc.a(lib_a-reent.o)
 .bss           0x00000000        0x0 c:/program files (x86)/microchip/xc32/v2.30/bin/bin/../../lib/gcc/pic32c/6.2.1/../../../../pic32c/lib/v7e-m/fpv4-sp/hard\libc.a(lib_a-reent.o)
 .text.cleanup_glue
                0x00000000       0x1a c:/program files (x86)/microchip/xc32/v2.30/bin/bin/../../lib/gcc/pic32c/6.2.1/../../../../pic32c/lib/v7e-m/fpv4-sp/hard\libc.a(lib_a-reent.o)
 .text._reclaim_reent
                0x00000000       0x84 c:/program files (x86)/microchip/xc32/v2.30/bin/bin/../../lib/gcc/pic32c/6.2.1/../../../../pic32c/lib/v7e-m/fpv4-sp/hard\libc.a(lib_a-reent.o)
 .text          0x00000000        0x0 c:/program files (x86)/microchip/xc32/v2.30/bin/bin/../../lib/gcc/pic32c/6.2.1/../../../../pic32c/lib/v7e-m/fpv4-sp/hard\libpic32c.a(sbrk.o)
 .data          0x00000000        0x0 c:/program files (x86)/microchip/xc32/v2.30/bin/bin/../../lib/gcc/pic32c/6.2.1/../../../../pic32c/lib/v7e-m/fpv4-sp/hard\libpic32c.a(sbrk.o)
 .text          0x00000000        0x0 c:/program files (x86)/microchip/xc32/v2.30/bin/bin/../../lib/gcc/pic32c/6.2.1/v7e-m/fpv4-sp/hard/crtend.o
 .data          0x00000000        0x0 c:/program files (x86)/microchip/xc32/v2.30/bin/bin/../../lib/gcc/pic32c/6.2.1/v7e-m/fpv4-sp/hard/crtend.o
 .bss           0x00000000        0x0 c:/program files (x86)/microchip/xc32/v2.30/bin/bin/../../lib/gcc/pic32c/6.2.1/v7e-m/fpv4-sp/hard/crtend.o
 .eh_frame      0x00000000        0x4 c:/program files (x86)/microchip/xc32/v2.30/bin/bin/../../lib/gcc/pic32c/6.2.1/v7e-m/fpv4-sp/hard/crtend.o
 .comment       0x00000000       0x3d c:/program files (x86)/microchip/xc32/v2.30/bin/bin/../../lib/gcc/pic32c/6.2.1/v7e-m/fpv4-sp/hard/crtend.o
 .ARM.attributes
                0x00000000       0x34 c:/program files (x86)/microchip/xc32/v2.30/bin/bin/../../lib/gcc/pic32c/6.2.1/v7e-m/fpv4-sp/hard/crtend.o
 .text          0x00000000        0x0 c:/program files (x86)/microchip/xc32/v2.30/bin/bin/../../lib/gcc/pic32c/6.2.1/v7e-m/fpv4-sp/hard/crtn.o
 .data          0x00000000        0x0 c:/program files (x86)/microchip/xc32/v2.30/bin/bin/../../lib/gcc/pic32c/6.2.1/v7e-m/fpv4-sp/hard/crtn.o
 .bss           0x00000000        0x0 c:/program files (x86)/microchip/xc32/v2.30/bin/bin/../../lib/gcc/pic32c/6.2.1/v7e-m/fpv4-sp/hard/crtn.o

Memory Configuration

Name             Origin             Length             Attributes
rom              0x00000000         0x00080000         xrl
ram              0x20000000         0x00030000         xw !r
config_00804000  0x00804000         0x00000004
config_00804004  0x00804004         0x00000004
config_00804008  0x00804008         0x00000004
*default*        0x00000000         0xffffffff

Linker script and memory map

LOAD c:/program files (x86)/microchip/xc32/v2.30/bin/bin/../../lib/gcc/pic32c/6.2.1/v7e-m/fpv4-sp/hard/crti.o
LOAD c:/program files (x86)/microchip/xc32/v2.30/bin/bin/../../lib/gcc/pic32c/6.2.1/v7e-m/fpv4-sp/hard/crtbegin.o
LOAD build/LAN9253_D51_SPI_Indirect_mode/production/_ext/2070931557/drv_spi.o
LOAD build/LAN9253_D51_SPI_Indirect_mode/production/_ext/1984496892/plib_clock.o
LOAD build/LAN9253_D51_SPI_Indirect_mode/production/_ext/1865131932/plib_cmcc.o
LOAD build/LAN9253_D51_SPI_Indirect_mode/production/_ext/1865161661/plib_dmac.o
LOAD build/LAN9253_D51_SPI_Indirect_mode/production/_ext/60167341/plib_eic.o
LOAD build/LAN9253_D51_SPI_Indirect_mode/production/_ext/1986646378/plib_evsys.o
LOAD build/LAN9253_D51_SPI_Indirect_mode/production/_ext/1865468468/plib_nvic.o
LOAD build/LAN9253_D51_SPI_Indirect_mode/production/_ext/1593096446/plib_nvmctrl.o
LOAD build/LAN9253_D51_SPI_Indirect_mode/production/_ext/1865521619/plib_port.o
LOAD build/LAN9253_D51_SPI_Indirect_mode/production/_ext/1865555181/plib_qspi_spi.o
LOAD build/LAN9253_D51_SPI_Indirect_mode/production/_ext/1865555181/plib_qspi.o
LOAD build/LAN9253_D51_SPI_Indirect_mode/production/_ext/1827571544/plib_systick.o
LOAD build/LAN9253_D51_SPI_Indirect_mode/production/_ext/163028504/xc32_monitor.o
LOAD build/LAN9253_D51_SPI_Indirect_mode/production/_ext/1014039709/sys_cache.o
LOAD build/LAN9253_D51_SPI_Indirect_mode/production/_ext/14461671/sys_dma.o
LOAD build/LAN9253_D51_SPI_Indirect_mode/production/_ext/1881668453/sys_int.o
LOAD build/LAN9253_D51_SPI_Indirect_mode/production/_ext/1171490990/exceptions.o
LOAD build/LAN9253_D51_SPI_Indirect_mode/production/_ext/1171490990/initialization.o
LOAD build/LAN9253_D51_SPI_Indirect_mode/production/_ext/1171490990/interrupts.o
LOAD build/LAN9253_D51_SPI_Indirect_mode/production/_ext/1171490990/libc_syscalls.o
LOAD build/LAN9253_D51_SPI_Indirect_mode/production/_ext/1171490990/startup_xc32.o
LOAD build/LAN9253_D51_SPI_Indirect_mode/production/_ext/1171490990/tasks.o
LOAD build/LAN9253_D51_SPI_Indirect_mode/production/_ext/1671622979/Drivers.o
LOAD build/LAN9253_D51_SPI_Indirect_mode/production/_ext/108147519/ESC_Utils.o
LOAD build/LAN9253_D51_SPI_Indirect_mode/production/_ext/108147519/LAN925x.o
LOAD build/LAN9253_D51_SPI_Indirect_mode/production/_ext/108134065/bootmode.o
LOAD build/LAN9253_D51_SPI_Indirect_mode/production/_ext/108134065/coeappl.o
LOAD build/LAN9253_D51_SPI_Indirect_mode/production/_ext/108134065/ecatappl.o
LOAD build/LAN9253_D51_SPI_Indirect_mode/production/_ext/108134065/ecatcoe.o
LOAD build/LAN9253_D51_SPI_Indirect_mode/production/_ext/108134065/ecatfoe.o
LOAD build/LAN9253_D51_SPI_Indirect_mode/production/_ext/108134065/ecatslv.o
LOAD build/LAN9253_D51_SPI_Indirect_mode/production/_ext/108134065/emcy.o
LOAD build/LAN9253_D51_SPI_Indirect_mode/production/_ext/108134065/foeappl.o
LOAD build/LAN9253_D51_SPI_Indirect_mode/production/_ext/108134065/mailbox.o
LOAD build/LAN9253_D51_SPI_Indirect_mode/production/_ext/108134065/objdef.o
LOAD build/LAN9253_D51_SPI_Indirect_mode/production/_ext/108134065/sample_app.o
LOAD build/LAN9253_D51_SPI_Indirect_mode/production/_ext/108134065/sdoserv.o
LOAD build/LAN9253_D51_SPI_Indirect_mode/production/_ext/1360937237/main.o
LOAD build/LAN9253_D51_SPI_Indirect_mode/production/_ext/1360937237/app.o
LOAD build/LAN9253_D51_SPI_Indirect_mode/production/_ext/1360937237/Developer_Test.o
                0x00000001                __MPLAB_BUILD = 0x1
                0x00000200                _min_heap_size = 0x200
START GROUP
LOAD c:/program files (x86)/microchip/xc32/v2.30/bin/bin/../../lib/gcc/pic32c/6.2.1/../../../../pic32c/lib/v7e-m/fpv4-sp/hard\libpic32c.a
LOAD c:/program files (x86)/microchip/xc32/v2.30/bin/bin/../../lib/gcc/pic32c/6.2.1/v7e-m/fpv4-sp/hard\libgcc.a
LOAD c:/program files (x86)/microchip/xc32/v2.30/bin/bin/../../lib/gcc/pic32c/6.2.1/../../../../pic32c/lib/v7e-m/fpv4-sp/hard\libc.a
LOAD c:/program files (x86)/microchip/xc32/v2.30/bin/bin/../../lib/gcc/pic32c/6.2.1/../../../../pic32c/lib/v7e-m/fpv4-sp/hard\libm.a
END GROUP
LOAD c:/program files (x86)/microchip/xc32/v2.30/bin/bin/../../lib/gcc/pic32c/6.2.1/v7e-m/fpv4-sp/hard/crtend.o
LOAD c:/program files (x86)/microchip/xc32/v2.30/bin/bin/../../lib/gcc/pic32c/6.2.1/v7e-m/fpv4-sp/hard/crtn.o
                0x00080000                __rom_end = (ORIGIN (rom) + LENGTH (rom))
                0x20030000                __ram_end = (ORIGIN (ram) + LENGTH (ram))

.config_00804000
 *(.config_00804000)

.config_00804004
 *(.config_00804004)

.config_00804008
 *(.config_00804008)

.vectors        0x00000000      0x260
                0x00000000                . = ALIGN (0x4)
                0x00000000                _sfixed = .
 *(.vectors .vectors.* .vectors_default .vectors_default.*)
 .vectors       0x00000000      0x260 build/LAN9253_D51_SPI_Indirect_mode/production/_ext/1171490990/interrupts.o
                0x00000000                exception_table
 *(.isr_vector)
 *(.reset*)
 *(.after_vectors)

.text           0x00000260       0x20
                0x00000260                . = ALIGN (0x4)
 *(.glue_7t)
 .glue_7t       0x00000260        0x0 linker stubs
 *(.glue_7)
 .glue_7        0x00000260        0x0 linker stubs
 *(.gnu.linkonce.r.*)
 *(.ARM.extab* .gnu.linkonce.armextab.*)
                0x00000260                . = ALIGN (0x4)
 *(.init)
 .init          0x00000260        0x4 c:/program files (x86)/microchip/xc32/v2.30/bin/bin/../../lib/gcc/pic32c/6.2.1/v7e-m/fpv4-sp/hard/crti.o
                0x00000260                _init
 .init          0x00000264        0x8 c:/program files (x86)/microchip/xc32/v2.30/bin/bin/../../lib/gcc/pic32c/6.2.1/v7e-m/fpv4-sp/hard/crtn.o
                0x0000026c                . = ALIGN (0x4)
                0x0000026c                __preinit_array_start = .
 *(.preinit_array)
                0x0000026c                __preinit_array_end = .
                0x0000026c                . = ALIGN (0x4)
                0x0000026c                __init_array_start = .
 *(SORT(.init_array.*))
 *(.init_array)
 .init_array    0x0000026c        0x4 c:/program files (x86)/microchip/xc32/v2.30/bin/bin/../../lib/gcc/pic32c/6.2.1/v7e-m/fpv4-sp/hard/crtbegin.o
                0x00000270                __init_array_end = .
                0x00000270                . = ALIGN (0x4)
 *crtbegin.o(.ctors)
 *(EXCLUDE_FILE(*crtend.o) .ctors)
 *(SORT(.ctors.*))
 *crtend.o(.ctors)
                0x00000270                . = ALIGN (0x4)
 *(.fini)
 .fini          0x00000270        0x4 c:/program files (x86)/microchip/xc32/v2.30/bin/bin/../../lib/gcc/pic32c/6.2.1/v7e-m/fpv4-sp/hard/crti.o
                0x00000270                _fini
 .fini          0x00000274        0x8 c:/program files (x86)/microchip/xc32/v2.30/bin/bin/../../lib/gcc/pic32c/6.2.1/v7e-m/fpv4-sp/hard/crtn.o
                0x0000027c                . = ALIGN (0x4)
                0x0000027c                __fini_array_start = .
 *(.fini_array)
 .fini_array    0x0000027c        0x4 c:/program files (x86)/microchip/xc32/v2.30/bin/bin/../../lib/gcc/pic32c/6.2.1/v7e-m/fpv4-sp/hard/crtbegin.o
 *(SORT(.fini_array.*))
                0x00000280                __fini_array_end = .
 *crtbegin.o(.dtors)
 *(EXCLUDE_FILE(*crtend.o) .dtors)
 *(SORT(.dtors.*))
 *crtend.o(.dtors)
                0x00000280                . = ALIGN (0x4)
                0x00000280                _efixed = .
                [!provide]                PROVIDE (__exidx_start, .)

.ARM.exidx
 *(.ARM.exidx* .gnu.linkonce.armexidx.*)
                [!provide]                PROVIDE (__exidx_end, .)
                0x00000280                . = ALIGN (0x4)
                0x00000280                _etext = .

.bss            0x20000000     0x3dac
                0x20000000                . = ALIGN (0x4)
                0x20000000                __bss_start__ = .
                0x20000000                _sbss = .
                0x20000000                _szero = .
 *(COMMON)
 COMMON         0x20000000       0x1c build/LAN9253_D51_SPI_Indirect_mode/production/_ext/2070931557/drv_spi.o
                0x20000000                transferTxHandle
                0x20000004                transferRxHandle
                0x20000008                setup
 COMMON         0x2000001c       0x20 build/LAN9253_D51_SPI_Indirect_mode/production/_ext/1865161661/plib_dmac.o
                0x2000001c                dmacChannelObj
 COMMON         0x2000003c       0xc0 build/LAN9253_D51_SPI_Indirect_mode/production/_ext/60167341/plib_eic.o
                0x2000003c                eicCallbackObject
 COMMON         0x200000fc       0x28 build/LAN9253_D51_SPI_Indirect_mode/production/_ext/1865555181/plib_qspi_spi.o
                0x200000fc                qspiObj
 COMMON         0x20000124        0xc build/LAN9253_D51_SPI_Indirect_mode/production/_ext/1827571544/plib_systick.o
                0x20000124                systick
 COMMON         0x20000130        0x8 build/LAN9253_D51_SPI_Indirect_mode/production/_ext/1171490990/initialization.o
                0x20000130                handle
                0x20000134                sysObj
 COMMON         0x20000138      0x800 build/LAN9253_D51_SPI_Indirect_mode/production/_ext/1671622979/Drivers.o
                0x20000138                gau8DmaBuff
 COMMON         0x20000938        0x2 build/LAN9253_D51_SPI_Indirect_mode/production/_ext/108147519/LAN925x.o
                0x20000938                gEscALEvent
 *fill*         0x2000093a        0x2 
 COMMON         0x2000093c        0x8 build/LAN9253_D51_SPI_Indirect_mode/production/_ext/108134065/coeappl.o
                0x2000093c                u32LastDc32Value
                0x20000940                u32CheckForDcOverrunCnt
 COMMON         0x20000944     0x123c build/LAN9253_D51_SPI_Indirect_mode/production/_ext/108134065/ecatappl.o
                0x20000944                bMinCycleTimeMeasurementStarted
                0x20000948                u32CycleTimeStartValue
                0x2000094c                bRunApplication
                0x20000950                u32SystemTimeReadFailure
                0x20000954                bEcatWaitForInputUpdate
                0x20000958                u32MinCycleTimeValue
                0x2000095c                aPdOutputData
                0x2000125c                pAPPL_FoeError
                0x20001260                pAPPL_FoeReadData
                0x20001264                pAPPL_MainLoop
                0x20001268                bEtherCATErrorLed
                0x2000126c                u32MinCycleTimeStartValue
                0x20001270                aPdInputData
                0x20001b70                bEtherCATRunLed
                0x20001b74                pAPPL_FoeWriteData
                0x20001b78                pAPPL_FoeRead
                0x20001b7c                pAPPL_FoeWrite
 COMMON         0x20001b80        0x4 build/LAN9253_D51_SPI_Indirect_mode/production/_ext/108134065/ecatcoe.o
                0x20001b80                pCoeSendStored
 COMMON         0x20001b84       0x16 build/LAN9253_D51_SPI_Indirect_mode/production/_ext/108134065/ecatfoe.o
                0x20001b84                u32FileOffset
                0x20001b88                u16FileAccessState
                0x20001b8c                u32PacketNo
                0x20001b90                pFoeSendStored
                0x20001b94                u32LastFileOffset
                0x20001b98                u16FoeMaxSendBlockSize
 *fill*         0x20001b9a        0x2 
 COMMON         0x20001b9c       0x52 build/LAN9253_D51_SPI_Indirect_mode/production/_ext/108134065/ecatslv.o
                0x20001b9c                b3BufferMode
                0x20001b9e                nEcatStateTrans
                0x20001ba0                EcatWdCounter
                0x20001ba2                bApplEsmPending
                0x20001ba3                nAlStatus
                0x20001ba4                nPdOutputSize
                0x20001ba6                u16LocalErrorCode
                0x20001ba8                Sync0WdCounter
                0x20001baa                bLocalErrorFlag
                0x20001bac                LatchInputSync0Counter
                0x20001bae                i16WaitForPllRunningCnt
                0x20001bb0                nEscAddrOutputData
                0x20001bb2                Sync0WdValue
                0x20001bb4                u8EcatRunLed
                0x20001bb6                i16WaitForPllRunningTimeout
                0x20001bb8                Sync1WdValue
                0x20001bba                u16ALEventMask
                0x20001bbc                bDcRunning
                0x20001bc0                u32dummy
                0x20001bc4                SyncManInfo
                0x20001bcc                b32BitDc
                0x20001bce                LatchInputSync0Value
                0x20001bd0                bEcatWaitForAlControlRes
                0x20001bd2                nPdInputSize
                0x20001bd4                u16SmSync0Value
                0x20001bd6                nMaxEscAddress
                0x20001bd8                bEcatFirstOutputsReceived
                0x20001bd9                bSmSyncSequenceValid
                0x20001bda                EsmTimeoutCounter
                0x20001bdc                bBootMode
                0x20001bdd                bDcSyncActive
                0x20001bde                bEcatOutputUpdateRunning
                0x20001be0                Sync1WdCounter
                0x20001be2                EcatWdValue
                0x20001be4                bEcatInputUpdateRunning
                0x20001be5                bEscIntEnabled
                0x20001be6                bWdTrigger
                0x20001be8                u16SmSync0Counter
                0x20001bea                nMaxSyncMan
                0x20001beb                u8EcatErrorLed
                0x20001bec                nEscAddrInputData
 *fill*         0x20001bee        0x2 
 COMMON         0x20001bf0       0x28 build/LAN9253_D51_SPI_Indirect_mode/production/_ext/108134065/emcy.o
                0x20001bf0                sSendEmcyQueue
                0x20001c00                asEmcy
                0x20001c08                sEmptyEmcyQueue
 COMMON         0x20001c18       0x94 build/LAN9253_D51_SPI_Indirect_mode/production/_ext/108134065/mailbox.o
                0x20001c18                u8MbxReadCounter
                0x20001c1c                sMbxSendQueue
                0x20001c50                sMbxReceiveQueue
                0x20001c84                bNoMbxMemoryAvailable
                0x20001c85                bSendMbxIsFull
                0x20001c86                bMbxRunning
                0x20001c88                u16EscAddrReceiveMbx
                0x20001c8c                psStoreMbx
                0x20001c90                u16SendMbxSize
                0x20001c94                psReadMbx
                0x20001c98                bReceiveMbxIsLocked
                0x20001c9a                u16EscAddrSendMbx
                0x20001c9c                psWriteMbx
                0x20001ca0                u8MbxWriteCounter
                0x20001ca1                u8MailboxSendReqStored
                0x20001ca2                u16ReceiveMbxSize
                0x20001ca4                bMbxRepeatToggle
                0x20001ca8                psRepeatMbx
 COMMON         0x20001cac       0x8e build/LAN9253_D51_SPI_Indirect_mode/production/_ext/108134065/objdef.o
                0x20001cac                sSyncManInPar
                0x20001cf0                sSyncManOutPar
                0x20001d34                bSyncSetByUser
                0x20001d38                sCycleDiag
 *fill*         0x20001d3a        0x2 
 COMMON         0x20001d3c     0x2016 build/LAN9253_D51_SPI_Indirect_mode/production/_ext/108134065/sample_app.o
                0x20001d3c                aFileData
                0x20003d3c                aFileName
 *fill*         0x20003d52        0x2 
 COMMON         0x20003d54       0x4d build/LAN9253_D51_SPI_Indirect_mode/production/_ext/108134065/sdoserv.o
                0x20003d54                nSdoInfoIndex
                0x20003d58                pStoreData
                0x20003d5c                nSdoSegBytesToHandle
                0x20003d60                bSdoSegAccess
                0x20003d61                bSdoSegFollows
                0x20003d64                nSdoSegCompleteSize
                0x20003d68                pSdoPendFunc
                0x20003d6c                u8PendingSdo
                0x20003d6d                bStoreCompleteAccess
                0x20003d6e                bSdoSegLastToggle
                0x20003d6f                nSdoSegService
                0x20003d70                pSdoInfoObjEntry
                0x20003d74                nSdoInfoFragmentsLeft
                0x20003d78                pSdoResStored
                0x20003d7c                u32StoreDataSize
                0x20003d80                pSdoSegData
                0x20003d84                nSdoSegIndex
                0x20003d88                aSdoInfoHeader
                0x20003d98                pSdoSegObjEntry
                0x20003d9c                nSdoSegSubindex
                0x20003d9e                u16StoreIndex
                0x20003da0                u8StoreSubindex
 *fill*         0x20003da1        0x3 
 COMMON         0x20003da4        0x1 build/LAN9253_D51_SPI_Indirect_mode/production/_ext/1360937237/app.o
                0x20003da4                appData
 *fill*         0x20003da5        0x3 
 COMMON         0x20003da8        0x4 c:/program files (x86)/microchip/xc32/v2.30/bin/bin/../../lib/gcc/pic32c/6.2.1/../../../../pic32c/lib/v7e-m/fpv4-sp/hard\libc.a(lib_a-reent.o)
                0x20003da8                errno
                0x20003dac                . = ALIGN (0x4)
                0x20003dac                __bss_end__ = .
                0x20003dac                _ebss = .
                0x20003dac                _ezero = .
                0x20003dac                . = ALIGN (0x4)
                0x20003dac                _end = .
                0x2002ffff                _ram_end_ = ((ORIGIN (ram) + LENGTH (ram)) - 0x1)
OUTPUT(dist/LAN9253_D51_SPI_Indirect_mode/production/ESF_EVB_LAN9253.production.elf elf32-littlearm)
LOAD stack
LOAD data_init

.ARM.attributes
                0x00000000       0x30
 .ARM.attributes
                0x00000000       0x22 c:/program files (x86)/microchip/xc32/v2.30/bin/bin/../../lib/gcc/pic32c/6.2.1/v7e-m/fpv4-sp/hard/crti.o
 .ARM.attributes
                0x00000022       0x34 c:/program files (x86)/microchip/xc32/v2.30/bin/bin/../../lib/gcc/pic32c/6.2.1/v7e-m/fpv4-sp/hard/crtbegin.o
 .ARM.attributes
                0x00000056       0x39 build/LAN9253_D51_SPI_Indirect_mode/production/_ext/2070931557/drv_spi.o
 .ARM.attributes
                0x0000008f       0x39 build/LAN9253_D51_SPI_Indirect_mode/production/_ext/1984496892/plib_clock.o
 .ARM.attributes
                0x000000c8       0x39 build/LAN9253_D51_SPI_Indirect_mode/production/_ext/1865161661/plib_dmac.o
 .ARM.attributes
                0x00000101       0x39 build/LAN9253_D51_SPI_Indirect_mode/production/_ext/60167341/plib_eic.o
 .ARM.attributes
                0x0000013a       0x39 build/LAN9253_D51_SPI_Indirect_mode/production/_ext/1986646378/plib_evsys.o
 .ARM.attributes
                0x00000173       0x39 build/LAN9253_D51_SPI_Indirect_mode/production/_ext/1865468468/plib_nvic.o
 .ARM.attributes
                0x000001ac       0x39 build/LAN9253_D51_SPI_Indirect_mode/production/_ext/1593096446/plib_nvmctrl.o
 .ARM.attributes
                0x000001e5       0x39 build/LAN9253_D51_SPI_Indirect_mode/production/_ext/1865521619/plib_port.o
 .ARM.attributes
                0x0000021e       0x39 build/LAN9253_D51_SPI_Indirect_mode/production/_ext/1865555181/plib_qspi_spi.o
 .ARM.attributes
                0x00000257       0x39 build/LAN9253_D51_SPI_Indirect_mode/production/_ext/1827571544/plib_systick.o
 .ARM.attributes
                0x00000290       0x39 build/LAN9253_D51_SPI_Indirect_mode/production/_ext/14461671/sys_dma.o
 .ARM.attributes
                0x000002c9       0x39 build/LAN9253_D51_SPI_Indirect_mode/production/_ext/1881668453/sys_int.o
 .ARM.attributes
                0x00000302       0x39 build/LAN9253_D51_SPI_Indirect_mode/production/_ext/1171490990/exceptions.o
 .ARM.attributes
                0x0000033b       0x39 build/LAN9253_D51_SPI_Indirect_mode/production/_ext/1171490990/initialization.o
 .ARM.attributes
                0x00000374       0x39 build/LAN9253_D51_SPI_Indirect_mode/production/_ext/1171490990/interrupts.o
 .ARM.attributes
                0x000003ad       0x39 build/LAN9253_D51_SPI_Indirect_mode/production/_ext/1171490990/startup_xc32.o
 .ARM.attributes
                0x000003e6       0x39 build/LAN9253_D51_SPI_Indirect_mode/production/_ext/1171490990/tasks.o
 .ARM.attributes
                0x0000041f       0x39 build/LAN9253_D51_SPI_Indirect_mode/production/_ext/1671622979/Drivers.o
 .ARM.attributes
                0x00000458       0x39 build/LAN9253_D51_SPI_Indirect_mode/production/_ext/108147519/ESC_Utils.o
 .ARM.attributes
                0x00000491       0x39 build/LAN9253_D51_SPI_Indirect_mode/production/_ext/108147519/LAN925x.o
 .ARM.attributes
                0x000004ca       0x39 build/LAN9253_D51_SPI_Indirect_mode/production/_ext/108134065/bootmode.o
 .ARM.attributes
                0x00000503       0x39 build/LAN9253_D51_SPI_Indirect_mode/production/_ext/108134065/coeappl.o
 .ARM.attributes
                0x0000053c       0x39 build/LAN9253_D51_SPI_Indirect_mode/production/_ext/108134065/ecatappl.o
 .ARM.attributes
                0x00000575       0x39 build/LAN9253_D51_SPI_Indirect_mode/production/_ext/108134065/ecatcoe.o
 .ARM.attributes
                0x000005ae       0x39 build/LAN9253_D51_SPI_Indirect_mode/production/_ext/108134065/ecatfoe.o
 .ARM.attributes
                0x000005e7       0x39 build/LAN9253_D51_SPI_Indirect_mode/production/_ext/108134065/ecatslv.o
 .ARM.attributes
                0x00000620       0x39 build/LAN9253_D51_SPI_Indirect_mode/production/_ext/108134065/emcy.o
 .ARM.attributes
                0x00000659       0x39 build/LAN9253_D51_SPI_Indirect_mode/production/_ext/108134065/foeappl.o
 .ARM.attributes
                0x00000692       0x39 build/LAN9253_D51_SPI_Indirect_mode/production/_ext/108134065/mailbox.o
 .ARM.attributes
                0x000006cb       0x39 build/LAN9253_D51_SPI_Indirect_mode/production/_ext/108134065/objdef.o
 .ARM.attributes
                0x00000704       0x39 build/LAN9253_D51_SPI_Indirect_mode/production/_ext/108134065/sample_app.o
 .ARM.attributes
                0x0000073d       0x39 build/LAN9253_D51_SPI_Indirect_mode/production/_ext/108134065/sdoserv.o
 .ARM.attributes
                0x00000776       0x39 build/LAN9253_D51_SPI_Indirect_mode/production/_ext/1360937237/main.o
 .ARM.attributes
                0x000007af       0x39 build/LAN9253_D51_SPI_Indirect_mode/production/_ext/1360937237/app.o
 .ARM.attributes
                0x000007e8       0x34 c:/program files (x86)/microchip/xc32/v2.30/bin/bin/../../lib/gcc/pic32c/6.2.1/../../../../pic32c/lib/v7e-m/fpv4-sp/hard\libpic32c.a(data_init.o)
 .ARM.attributes
                0x0000081c       0x34 c:/program files (x86)/microchip/xc32/v2.30/bin/bin/../../lib/gcc/pic32c/6.2.1/../../../../pic32c/lib/v7e-m/fpv4-sp/hard\libc.a(lib_a-init.o)
 .ARM.attributes
                0x00000850       0x34 c:/program files (x86)/microchip/xc32/v2.30/bin/bin/../../lib/gcc/pic32c/6.2.1/../../../../pic32c/lib/v7e-m/fpv4-sp/hard\libc.a(lib_a-malloc.o)
 .ARM.attributes
                0x00000884       0x34 c:/program files (x86)/microchip/xc32/v2.30/bin/bin/../../lib/gcc/pic32c/6.2.1/../../../../pic32c/lib/v7e-m/fpv4-sp/hard\libc.a(lib_a-mallocr.o)
 .ARM.attributes
                0x000008b8       0x34 c:/program files (x86)/microchip/xc32/v2.30/bin/bin/../../lib/gcc/pic32c/6.2.1/../../../../pic32c/lib/v7e-m/fpv4-sp/hard\libc.a(lib_a-memcpy-stub.o)
 .ARM.attributes
                0x000008ec       0x34 c:/program files (x86)/microchip/xc32/v2.30/bin/bin/../../lib/gcc/pic32c/6.2.1/../../../../pic32c/lib/v7e-m/fpv4-sp/hard\libc.a(lib_a-memset.o)
 .ARM.attributes
                0x00000920       0x34 c:/program files (x86)/microchip/xc32/v2.30/bin/bin/../../lib/gcc/pic32c/6.2.1/../../../../pic32c/lib/v7e-m/fpv4-sp/hard\libc.a(lib_a-mlock.o)
 .ARM.attributes
                0x00000954       0x34 c:/program files (x86)/microchip/xc32/v2.30/bin/bin/../../lib/gcc/pic32c/6.2.1/../../../../pic32c/lib/v7e-m/fpv4-sp/hard\libc.a(lib_a-sbrkr.o)
 .ARM.attributes
                0x00000988       0x1b c:/program files (x86)/microchip/xc32/v2.30/bin/bin/../../lib/gcc/pic32c/6.2.1/../../../../pic32c/lib/v7e-m/fpv4-sp/hard\libc.a(lib_a-strlen.o)
 .ARM.attributes
                0x000009a3       0x34 c:/program files (x86)/microchip/xc32/v2.30/bin/bin/../../lib/gcc/pic32c/6.2.1/../../../../pic32c/lib/v7e-m/fpv4-sp/hard\libc.a(lib_a-freer.o)
 .ARM.attributes
                0x000009d7       0x34 c:/program files (x86)/microchip/xc32/v2.30/bin/bin/../../lib/gcc/pic32c/6.2.1/../../../../pic32c/lib/v7e-m/fpv4-sp/hard\libc.a(lib_a-impure.o)
 .ARM.attributes
                0x00000a0b       0x34 c:/program files (x86)/microchip/xc32/v2.30/bin/bin/../../lib/gcc/pic32c/6.2.1/../../../../pic32c/lib/v7e-m/fpv4-sp/hard\libc.a(lib_a-reent.o)
 .ARM.attributes
                0x00000a3f       0x34 c:/program files (x86)/microchip/xc32/v2.30/bin/bin/../../lib/gcc/pic32c/6.2.1/../../../../pic32c/lib/v7e-m/fpv4-sp/hard\libpic32c.a(sbrk.o)
 .ARM.attributes
                0x00000a73       0x22 c:/program files (x86)/microchip/xc32/v2.30/bin/bin/../../lib/gcc/pic32c/6.2.1/v7e-m/fpv4-sp/hard/crtn.o

.comment        0x00000000       0x3c
 .comment       0x00000000       0x3c c:/program files (x86)/microchip/xc32/v2.30/bin/bin/../../lib/gcc/pic32c/6.2.1/v7e-m/fpv4-sp/hard/crtbegin.o
                                 0x3d (size before relaxing)
 .comment       0x0000003c       0x3d build/LAN9253_D51_SPI_Indirect_mode/production/_ext/2070931557/drv_spi.o
 .comment       0x0000003c       0x3d build/LAN9253_D51_SPI_Indirect_mode/production/_ext/1984496892/plib_clock.o
 .comment       0x0000003c       0x3d build/LAN9253_D51_SPI_Indirect_mode/production/_ext/1865161661/plib_dmac.o
 .comment       0x0000003c       0x3d build/LAN9253_D51_SPI_Indirect_mode/production/_ext/60167341/plib_eic.o
 .comment       0x0000003c       0x3d build/LAN9253_D51_SPI_Indirect_mode/production/_ext/1986646378/plib_evsys.o
 .comment       0x0000003c       0x3d build/LAN9253_D51_SPI_Indirect_mode/production/_ext/1865468468/plib_nvic.o
 .comment       0x0000003c       0x3d build/LAN9253_D51_SPI_Indirect_mode/production/_ext/1593096446/plib_nvmctrl.o
 .comment       0x0000003c       0x3d build/LAN9253_D51_SPI_Indirect_mode/production/_ext/1865521619/plib_port.o
 .comment       0x0000003c       0x3d build/LAN9253_D51_SPI_Indirect_mode/production/_ext/1865555181/plib_qspi_spi.o
 .comment       0x0000003c       0x3d build/LAN9253_D51_SPI_Indirect_mode/production/_ext/1827571544/plib_systick.o
 .comment       0x0000003c       0x3d build/LAN9253_D51_SPI_Indirect_mode/production/_ext/14461671/sys_dma.o
 .comment       0x0000003c       0x3d build/LAN9253_D51_SPI_Indirect_mode/production/_ext/1881668453/sys_int.o
 .comment       0x0000003c       0x3d build/LAN9253_D51_SPI_Indirect_mode/production/_ext/1171490990/exceptions.o
 .comment       0x0000003c       0x3d build/LAN9253_D51_SPI_Indirect_mode/production/_ext/1171490990/initialization.o
 .comment       0x0000003c       0x3d build/LAN9253_D51_SPI_Indirect_mode/production/_ext/1171490990/interrupts.o
 .comment       0x0000003c       0x3d build/LAN9253_D51_SPI_Indirect_mode/production/_ext/1171490990/startup_xc32.o
 .comment       0x0000003c       0x3d build/LAN9253_D51_SPI_Indirect_mode/production/_ext/1171490990/tasks.o
 .comment       0x0000003c       0x3d build/LAN9253_D51_SPI_Indirect_mode/production/_ext/1671622979/Drivers.o
 .comment       0x0000003c       0x3d build/LAN9253_D51_SPI_Indirect_mode/production/_ext/108147519/ESC_Utils.o
 .comment       0x0000003c       0x3d build/LAN9253_D51_SPI_Indirect_mode/production/_ext/108147519/LAN925x.o
 .comment       0x0000003c       0x3d build/LAN9253_D51_SPI_Indirect_mode/production/_ext/108134065/bootmode.o
 .comment       0x0000003c       0x3d build/LAN9253_D51_SPI_Indirect_mode/production/_ext/108134065/coeappl.o
 .comment       0x0000003c       0x3d build/LAN9253_D51_SPI_Indirect_mode/production/_ext/108134065/ecatappl.o
 .comment       0x0000003c       0x3d build/LAN9253_D51_SPI_Indirect_mode/production/_ext/108134065/ecatcoe.o
 .comment       0x0000003c       0x3d build/LAN9253_D51_SPI_Indirect_mode/production/_ext/108134065/ecatfoe.o
 .comment       0x0000003c       0x3d build/LAN9253_D51_SPI_Indirect_mode/production/_ext/108134065/ecatslv.o
 .comment       0x0000003c       0x3d build/LAN9253_D51_SPI_Indirect_mode/production/_ext/108134065/emcy.o
 .comment       0x0000003c       0x3d build/LAN9253_D51_SPI_Indirect_mode/production/_ext/108134065/foeappl.o
 .comment       0x0000003c       0x3d build/LAN9253_D51_SPI_Indirect_mode/production/_ext/108134065/mailbox.o
 .comment       0x0000003c       0x3d build/LAN9253_D51_SPI_Indirect_mode/production/_ext/108134065/objdef.o
 .comment       0x0000003c       0x3d build/LAN9253_D51_SPI_Indirect_mode/production/_ext/108134065/sample_app.o
 .comment       0x0000003c       0x3d build/LAN9253_D51_SPI_Indirect_mode/production/_ext/108134065/sdoserv.o
 .comment       0x0000003c       0x3d build/LAN9253_D51_SPI_Indirect_mode/production/_ext/1360937237/main.o
 .comment       0x0000003c       0x3d build/LAN9253_D51_SPI_Indirect_mode/production/_ext/1360937237/app.o
 .comment       0x0000003c       0x3d c:/program files (x86)/microchip/xc32/v2.30/bin/bin/../../lib/gcc/pic32c/6.2.1/../../../../pic32c/lib/v7e-m/fpv4-sp/hard\libpic32c.a(data_init.o)
 .comment       0x0000003c       0x3d c:/program files (x86)/microchip/xc32/v2.30/bin/bin/../../lib/gcc/pic32c/6.2.1/../../../../pic32c/lib/v7e-m/fpv4-sp/hard\libc.a(lib_a-init.o)
 .comment       0x0000003c       0x3d c:/program files (x86)/microchip/xc32/v2.30/bin/bin/../../lib/gcc/pic32c/6.2.1/../../../../pic32c/lib/v7e-m/fpv4-sp/hard\libc.a(lib_a-malloc.o)
 .comment       0x0000003c       0x3d c:/program files (x86)/microchip/xc32/v2.30/bin/bin/../../lib/gcc/pic32c/6.2.1/../../../../pic32c/lib/v7e-m/fpv4-sp/hard\libc.a(lib_a-mallocr.o)
 .comment       0x0000003c       0x3d c:/program files (x86)/microchip/xc32/v2.30/bin/bin/../../lib/gcc/pic32c/6.2.1/../../../../pic32c/lib/v7e-m/fpv4-sp/hard\libc.a(lib_a-memcpy-stub.o)
 .comment       0x0000003c       0x3d c:/program files (x86)/microchip/xc32/v2.30/bin/bin/../../lib/gcc/pic32c/6.2.1/../../../../pic32c/lib/v7e-m/fpv4-sp/hard\libc.a(lib_a-memset.o)
 .comment       0x0000003c       0x3d c:/program files (x86)/microchip/xc32/v2.30/bin/bin/../../lib/gcc/pic32c/6.2.1/../../../../pic32c/lib/v7e-m/fpv4-sp/hard\libc.a(lib_a-mlock.o)
 .comment       0x0000003c       0x3d c:/program files (x86)/microchip/xc32/v2.30/bin/bin/../../lib/gcc/pic32c/6.2.1/../../../../pic32c/lib/v7e-m/fpv4-sp/hard\libc.a(lib_a-sbrkr.o)
 .comment       0x0000003c       0x3d c:/program files (x86)/microchip/xc32/v2.30/bin/bin/../../lib/gcc/pic32c/6.2.1/../../../../pic32c/lib/v7e-m/fpv4-sp/hard\libc.a(lib_a-freer.o)
 .comment       0x0000003c       0x3d c:/program files (x86)/microchip/xc32/v2.30/bin/bin/../../lib/gcc/pic32c/6.2.1/../../../../pic32c/lib/v7e-m/fpv4-sp/hard\libc.a(lib_a-impure.o)
 .comment       0x0000003c       0x3d c:/program files (x86)/microchip/xc32/v2.30/bin/bin/../../lib/gcc/pic32c/6.2.1/../../../../pic32c/lib/v7e-m/fpv4-sp/hard\libc.a(lib_a-reent.o)
 .comment       0x0000003c       0x3d c:/program files (x86)/microchip/xc32/v2.30/bin/bin/../../lib/gcc/pic32c/6.2.1/../../../../pic32c/lib/v7e-m/fpv4-sp/hard\libpic32c.a(sbrk.o)

.debug_info     0x00000000    0x5da8d
 .debug_info    0x00000000     0x4c7a build/LAN9253_D51_SPI_Indirect_mode/production/_ext/2070931557/drv_spi.o
 .debug_info    0x00004c7a      0xb8b build/LAN9253_D51_SPI_Indirect_mode/production/_ext/1984496892/plib_clock.o
 .debug_info    0x00005805     0x2c23 build/LAN9253_D51_SPI_Indirect_mode/production/_ext/1865161661/plib_dmac.o
 .debug_info    0x00008428      0x7f9 build/LAN9253_D51_SPI_Indirect_mode/production/_ext/60167341/plib_eic.o
 .debug_info    0x00008c21      0x374 build/LAN9253_D51_SPI_Indirect_mode/production/_ext/1986646378/plib_evsys.o
 .debug_info    0x00008f95     0x1107 build/LAN9253_D51_SPI_Indirect_mode/production/_ext/1865468468/plib_nvic.o
 .debug_info    0x0000a09c     0x16d4 build/LAN9253_D51_SPI_Indirect_mode/production/_ext/1593096446/plib_nvmctrl.o
 .debug_info    0x0000b770      0x830 build/LAN9253_D51_SPI_Indirect_mode/production/_ext/1865521619/plib_port.o
 .debug_info    0x0000bfa0     0x21f4 build/LAN9253_D51_SPI_Indirect_mode/production/_ext/1865555181/plib_qspi_spi.o
 .debug_info    0x0000e194      0x6cf build/LAN9253_D51_SPI_Indirect_mode/production/_ext/1827571544/plib_systick.o
 .debug_info    0x0000e863     0x1488 build/LAN9253_D51_SPI_Indirect_mode/production/_ext/14461671/sys_dma.o
 .debug_info    0x0000fceb     0x110d build/LAN9253_D51_SPI_Indirect_mode/production/_ext/1881668453/sys_int.o
 .debug_info    0x00010df8     0x19ed build/LAN9253_D51_SPI_Indirect_mode/production/_ext/1171490990/exceptions.o
 .debug_info    0x000127e5     0x3251 build/LAN9253_D51_SPI_Indirect_mode/production/_ext/1171490990/initialization.o
 .debug_info    0x00015a36     0x2cc9 build/LAN9253_D51_SPI_Indirect_mode/production/_ext/1171490990/interrupts.o
 .debug_info    0x000186ff     0x1df6 build/LAN9253_D51_SPI_Indirect_mode/production/_ext/1171490990/startup_xc32.o
 .debug_info    0x0001a4f5     0x191d build/LAN9253_D51_SPI_Indirect_mode/production/_ext/1171490990/tasks.o
 .debug_info    0x0001be12     0x45c9 build/LAN9253_D51_SPI_Indirect_mode/production/_ext/1671622979/Drivers.o
 .debug_info    0x000203db     0x1b54 build/LAN9253_D51_SPI_Indirect_mode/production/_ext/108147519/ESC_Utils.o
 .debug_info    0x00021f2f     0x280b build/LAN9253_D51_SPI_Indirect_mode/production/_ext/108147519/LAN925x.o
 .debug_info    0x0002473a     0x1266 build/LAN9253_D51_SPI_Indirect_mode/production/_ext/108134065/bootmode.o
 .debug_info    0x000259a0     0x5aed build/LAN9253_D51_SPI_Indirect_mode/production/_ext/108134065/coeappl.o
 .debug_info    0x0002b48d     0x5389 build/LAN9253_D51_SPI_Indirect_mode/production/_ext/108134065/ecatappl.o
 .debug_info    0x00030816     0x167e build/LAN9253_D51_SPI_Indirect_mode/production/_ext/108134065/ecatcoe.o
 .debug_info    0x00031e94     0x23ee build/LAN9253_D51_SPI_Indirect_mode/production/_ext/108134065/ecatfoe.o
 .debug_info    0x00034282     0x5994 build/LAN9253_D51_SPI_Indirect_mode/production/_ext/108134065/ecatslv.o
 .debug_info    0x00039c16     0x2476 build/LAN9253_D51_SPI_Indirect_mode/production/_ext/108134065/emcy.o
 .debug_info    0x0003c08c     0x284c build/LAN9253_D51_SPI_Indirect_mode/production/_ext/108134065/foeappl.o
 .debug_info    0x0003e8d8     0x2b33 build/LAN9253_D51_SPI_Indirect_mode/production/_ext/108134065/mailbox.o
 .debug_info    0x0004140b     0x3141 build/LAN9253_D51_SPI_Indirect_mode/production/_ext/108134065/objdef.o
 .debug_info    0x0004454c     0x5812 build/LAN9253_D51_SPI_Indirect_mode/production/_ext/108134065/sample_app.o
 .debug_info    0x00049d5e     0x3446 build/LAN9253_D51_SPI_Indirect_mode/production/_ext/108134065/sdoserv.o
 .debug_info    0x0004d1a4     0x190c build/LAN9253_D51_SPI_Indirect_mode/production/_ext/1360937237/main.o
 .debug_info    0x0004eab0     0x5195 build/LAN9253_D51_SPI_Indirect_mode/production/_ext/1360937237/app.o
 .debug_info    0x00053c45      0x2a2 c:/program files (x86)/microchip/xc32/v2.30/bin/bin/../../lib/gcc/pic32c/6.2.1/../../../../pic32c/lib/v7e-m/fpv4-sp/hard\libpic32c.a(data_init.o)
 .debug_info    0x00053ee7      0x41a c:/program files (x86)/microchip/xc32/v2.30/bin/bin/../../lib/gcc/pic32c/6.2.1/../../../../pic32c/lib/v7e-m/fpv4-sp/hard\libc.a(lib_a-init.o)
 .debug_info    0x00054301      0xe58 c:/program files (x86)/microchip/xc32/v2.30/bin/bin/../../lib/gcc/pic32c/6.2.1/../../../../pic32c/lib/v7e-m/fpv4-sp/hard\libc.a(lib_a-malloc.o)
 .debug_info    0x00055159     0x14ca c:/program files (x86)/microchip/xc32/v2.30/bin/bin/../../lib/gcc/pic32c/6.2.1/../../../../pic32c/lib/v7e-m/fpv4-sp/hard\libc.a(lib_a-mallocr.o)
 .debug_info    0x00056623      0xe2e c:/program files (x86)/microchip/xc32/v2.30/bin/bin/../../lib/gcc/pic32c/6.2.1/../../../../pic32c/lib/v7e-m/fpv4-sp/hard\libc.a(lib_a-memcpy-stub.o)
 .debug_info    0x00057451     0x156f c:/program files (x86)/microchip/xc32/v2.30/bin/bin/../../lib/gcc/pic32c/6.2.1/../../../../pic32c/lib/v7e-m/fpv4-sp/hard\libc.a(lib_a-memset.o)
 .debug_info    0x000589c0      0xdf2 c:/program files (x86)/microchip/xc32/v2.30/bin/bin/../../lib/gcc/pic32c/6.2.1/../../../../pic32c/lib/v7e-m/fpv4-sp/hard\libc.a(lib_a-mlock.o)
 .debug_info    0x000597b2      0xea5 c:/program files (x86)/microchip/xc32/v2.30/bin/bin/../../lib/gcc/pic32c/6.2.1/../../../../pic32c/lib/v7e-m/fpv4-sp/hard\libc.a(lib_a-sbrkr.o)
 .debug_info    0x0005a657      0x125 c:/program files (x86)/microchip/xc32/v2.30/bin/bin/../../lib/gcc/pic32c/6.2.1/../../../../pic32c/lib/v7e-m/fpv4-sp/hard\libc.a(lib_a-strlen.o)
 .debug_info    0x0005a77c     0x137d c:/program files (x86)/microchip/xc32/v2.30/bin/bin/../../lib/gcc/pic32c/6.2.1/../../../../pic32c/lib/v7e-m/fpv4-sp/hard\libc.a(lib_a-freer.o)
 .debug_info    0x0005baf9      0xdb5 c:/program files (x86)/microchip/xc32/v2.30/bin/bin/../../lib/gcc/pic32c/6.2.1/../../../../pic32c/lib/v7e-m/fpv4-sp/hard\libc.a(lib_a-impure.o)
 .debug_info    0x0005c8ae      0xf59 c:/program files (x86)/microchip/xc32/v2.30/bin/bin/../../lib/gcc/pic32c/6.2.1/../../../../pic32c/lib/v7e-m/fpv4-sp/hard\libc.a(lib_a-reent.o)
 .debug_info    0x0005d807      0x286 c:/program files (x86)/microchip/xc32/v2.30/bin/bin/../../lib/gcc/pic32c/6.2.1/../../../../pic32c/lib/v7e-m/fpv4-sp/hard\libpic32c.a(sbrk.o)

.debug_abbrev   0x00000000     0x6268
 .debug_abbrev  0x00000000      0x454 build/LAN9253_D51_SPI_Indirect_mode/production/_ext/2070931557/drv_spi.o
 .debug_abbrev  0x00000454       0xfd build/LAN9253_D51_SPI_Indirect_mode/production/_ext/1984496892/plib_clock.o
 .debug_abbrev  0x00000551      0x345 build/LAN9253_D51_SPI_Indirect_mode/production/_ext/1865161661/plib_dmac.o
 .debug_abbrev  0x00000896      0x15d build/LAN9253_D51_SPI_Indirect_mode/production/_ext/60167341/plib_eic.o
 .debug_abbrev  0x000009f3       0x5e build/LAN9253_D51_SPI_Indirect_mode/production/_ext/1986646378/plib_evsys.o
 .debug_abbrev  0x00000a51      0x14d build/LAN9253_D51_SPI_Indirect_mode/production/_ext/1865468468/plib_nvic.o
 .debug_abbrev  0x00000b9e      0x25d build/LAN9253_D51_SPI_Indirect_mode/production/_ext/1593096446/plib_nvmctrl.o
 .debug_abbrev  0x00000dfb      0x151 build/LAN9253_D51_SPI_Indirect_mode/production/_ext/1865521619/plib_port.o
 .debug_abbrev  0x00000f4c      0x29a build/LAN9253_D51_SPI_Indirect_mode/production/_ext/1865555181/plib_qspi_spi.o
 .debug_abbrev  0x000011e6      0x15c build/LAN9253_D51_SPI_Indirect_mode/production/_ext/1827571544/plib_systick.o
 .debug_abbrev  0x00001342      0x1e7 build/LAN9253_D51_SPI_Indirect_mode/production/_ext/14461671/sys_dma.o
 .debug_abbrev  0x00001529      0x206 build/LAN9253_D51_SPI_Indirect_mode/production/_ext/1881668453/sys_int.o
 .debug_abbrev  0x0000172f      0x1d1 build/LAN9253_D51_SPI_Indirect_mode/production/_ext/1171490990/exceptions.o
 .debug_abbrev  0x00001900      0x23a build/LAN9253_D51_SPI_Indirect_mode/production/_ext/1171490990/initialization.o
 .debug_abbrev  0x00001b3a      0x1d1 build/LAN9253_D51_SPI_Indirect_mode/production/_ext/1171490990/interrupts.o
 .debug_abbrev  0x00001d0b      0x2a9 build/LAN9253_D51_SPI_Indirect_mode/production/_ext/1171490990/startup_xc32.o
 .debug_abbrev  0x00001fb4      0x1d1 build/LAN9253_D51_SPI_Indirect_mode/production/_ext/1171490990/tasks.o
 .debug_abbrev  0x00002185      0x409 build/LAN9253_D51_SPI_Indirect_mode/production/_ext/1671622979/Drivers.o
 .debug_abbrev  0x0000258e      0x232 build/LAN9253_D51_SPI_Indirect_mode/production/_ext/108147519/ESC_Utils.o
 .debug_abbrev  0x000027c0      0x2c3 build/LAN9253_D51_SPI_Indirect_mode/production/_ext/108147519/LAN925x.o
 .debug_abbrev  0x00002a83      0x1f9 build/LAN9253_D51_SPI_Indirect_mode/production/_ext/108134065/bootmode.o
 .debug_abbrev  0x00002c7c      0x300 build/LAN9253_D51_SPI_Indirect_mode/production/_ext/108134065/coeappl.o
 .debug_abbrev  0x00002f7c      0x2b2 build/LAN9253_D51_SPI_Indirect_mode/production/_ext/108134065/ecatappl.o
 .debug_abbrev  0x0000322e      0x1ee build/LAN9253_D51_SPI_Indirect_mode/production/_ext/108134065/ecatcoe.o
 .debug_abbrev  0x0000341c      0x283 build/LAN9253_D51_SPI_Indirect_mode/production/_ext/108134065/ecatfoe.o
 .debug_abbrev  0x0000369f      0x2fb build/LAN9253_D51_SPI_Indirect_mode/production/_ext/108134065/ecatslv.o
 .debug_abbrev  0x0000399a      0x2c7 build/LAN9253_D51_SPI_Indirect_mode/production/_ext/108134065/emcy.o
 .debug_abbrev  0x00003c61      0x292 build/LAN9253_D51_SPI_Indirect_mode/production/_ext/108134065/foeappl.o
 .debug_abbrev  0x00003ef3      0x2ba build/LAN9253_D51_SPI_Indirect_mode/production/_ext/108134065/mailbox.o
 .debug_abbrev  0x000041ad      0x2ec build/LAN9253_D51_SPI_Indirect_mode/production/_ext/108134065/objdef.o
 .debug_abbrev  0x00004499      0x375 build/LAN9253_D51_SPI_Indirect_mode/production/_ext/108134065/sample_app.o
 .debug_abbrev  0x0000480e      0x309 build/LAN9253_D51_SPI_Indirect_mode/production/_ext/108134065/sdoserv.o
 .debug_abbrev  0x00004b17      0x1d3 build/LAN9253_D51_SPI_Indirect_mode/production/_ext/1360937237/main.o
 .debug_abbrev  0x00004cea      0x2b8 build/LAN9253_D51_SPI_Indirect_mode/production/_ext/1360937237/app.o
 .debug_abbrev  0x00004fa2       0x2a c:/program files (x86)/microchip/xc32/v2.30/bin/bin/../../lib/gcc/pic32c/6.2.1/../../../../pic32c/lib/v7e-m/fpv4-sp/hard\libpic32c.a(data_init.o)
 .debug_abbrev  0x00004fcc       0xa3 c:/program files (x86)/microchip/xc32/v2.30/bin/bin/../../lib/gcc/pic32c/6.2.1/../../../../pic32c/lib/v7e-m/fpv4-sp/hard\libc.a(lib_a-init.o)
 .debug_abbrev  0x0000506f      0x1f8 c:/program files (x86)/microchip/xc32/v2.30/bin/bin/../../lib/gcc/pic32c/6.2.1/../../../../pic32c/lib/v7e-m/fpv4-sp/hard\libc.a(lib_a-malloc.o)
 .debug_abbrev  0x00005267      0x29b c:/program files (x86)/microchip/xc32/v2.30/bin/bin/../../lib/gcc/pic32c/6.2.1/../../../../pic32c/lib/v7e-m/fpv4-sp/hard\libc.a(lib_a-mallocr.o)
 .debug_abbrev  0x00005502      0x1c1 c:/program files (x86)/microchip/xc32/v2.30/bin/bin/../../lib/gcc/pic32c/6.2.1/../../../../pic32c/lib/v7e-m/fpv4-sp/hard\libc.a(lib_a-memcpy-stub.o)
 .debug_abbrev  0x000056c3      0x1b5 c:/program files (x86)/microchip/xc32/v2.30/bin/bin/../../lib/gcc/pic32c/6.2.1/../../../../pic32c/lib/v7e-m/fpv4-sp/hard\libc.a(lib_a-memset.o)
 .debug_abbrev  0x00005878      0x1aa c:/program files (x86)/microchip/xc32/v2.30/bin/bin/../../lib/gcc/pic32c/6.2.1/../../../../pic32c/lib/v7e-m/fpv4-sp/hard\libc.a(lib_a-mlock.o)
 .debug_abbrev  0x00005a22      0x1ed c:/program files (x86)/microchip/xc32/v2.30/bin/bin/../../lib/gcc/pic32c/6.2.1/../../../../pic32c/lib/v7e-m/fpv4-sp/hard\libc.a(lib_a-sbrkr.o)
 .debug_abbrev  0x00005c0f       0x14 c:/program files (x86)/microchip/xc32/v2.30/bin/bin/../../lib/gcc/pic32c/6.2.1/../../../../pic32c/lib/v7e-m/fpv4-sp/hard\libc.a(lib_a-strlen.o)
 .debug_abbrev  0x00005c23      0x24d c:/program files (x86)/microchip/xc32/v2.30/bin/bin/../../lib/gcc/pic32c/6.2.1/../../../../pic32c/lib/v7e-m/fpv4-sp/hard\libc.a(lib_a-freer.o)
 .debug_abbrev  0x00005e70      0x176 c:/program files (x86)/microchip/xc32/v2.30/bin/bin/../../lib/gcc/pic32c/6.2.1/../../../../pic32c/lib/v7e-m/fpv4-sp/hard\libc.a(lib_a-impure.o)
 .debug_abbrev  0x00005fe6      0x258 c:/program files (x86)/microchip/xc32/v2.30/bin/bin/../../lib/gcc/pic32c/6.2.1/../../../../pic32c/lib/v7e-m/fpv4-sp/hard\libc.a(lib_a-reent.o)
 .debug_abbrev  0x0000623e       0x2a c:/program files (x86)/microchip/xc32/v2.30/bin/bin/../../lib/gcc/pic32c/6.2.1/../../../../pic32c/lib/v7e-m/fpv4-sp/hard\libpic32c.a(sbrk.o)

.debug_loc      0x00000000     0x76e8
 .debug_loc     0x00000000      0xca8 build/LAN9253_D51_SPI_Indirect_mode/production/_ext/2070931557/drv_spi.o
 .debug_loc     0x00000ca8      0x208 build/LAN9253_D51_SPI_Indirect_mode/production/_ext/1984496892/plib_clock.o
 .debug_loc     0x00000eb0      0x5c4 build/LAN9253_D51_SPI_Indirect_mode/production/_ext/1865161661/plib_dmac.o
 .debug_loc     0x00001474      0x1dc build/LAN9253_D51_SPI_Indirect_mode/production/_ext/60167341/plib_eic.o
 .debug_loc     0x00001650       0x44 build/LAN9253_D51_SPI_Indirect_mode/production/_ext/1986646378/plib_evsys.o
 .debug_loc     0x00001694      0x140 build/LAN9253_D51_SPI_Indirect_mode/production/_ext/1865468468/plib_nvic.o
 .debug_loc     0x000017d4      0x5c0 build/LAN9253_D51_SPI_Indirect_mode/production/_ext/1593096446/plib_nvmctrl.o
 .debug_loc     0x00001d94      0x324 build/LAN9253_D51_SPI_Indirect_mode/production/_ext/1865521619/plib_port.o
 .debug_loc     0x000020b8      0x28c build/LAN9253_D51_SPI_Indirect_mode/production/_ext/1865555181/plib_qspi_spi.o
 .debug_loc     0x00002344      0x31c build/LAN9253_D51_SPI_Indirect_mode/production/_ext/1827571544/plib_systick.o
 .debug_loc     0x00002660       0xa0 build/LAN9253_D51_SPI_Indirect_mode/production/_ext/14461671/sys_dma.o
 .debug_loc     0x00002700      0x2b0 build/LAN9253_D51_SPI_Indirect_mode/production/_ext/1881668453/sys_int.o
 .debug_loc     0x000029b0      0x108 build/LAN9253_D51_SPI_Indirect_mode/production/_ext/1171490990/exceptions.o
 .debug_loc     0x00002ab8       0x50 build/LAN9253_D51_SPI_Indirect_mode/production/_ext/1171490990/initialization.o
 .debug_loc     0x00002b08      0x11c build/LAN9253_D51_SPI_Indirect_mode/production/_ext/1171490990/startup_xc32.o
 .debug_loc     0x00002c24       0x2c build/LAN9253_D51_SPI_Indirect_mode/production/_ext/1171490990/tasks.o
 .debug_loc     0x00002c50      0xdfc build/LAN9253_D51_SPI_Indirect_mode/production/_ext/1671622979/Drivers.o
 .debug_loc     0x00003a4c      0x130 build/LAN9253_D51_SPI_Indirect_mode/production/_ext/108147519/ESC_Utils.o
 .debug_loc     0x00003b7c      0x4b0 build/LAN9253_D51_SPI_Indirect_mode/production/_ext/108147519/LAN925x.o
 .debug_loc     0x0000402c      0x158 build/LAN9253_D51_SPI_Indirect_mode/production/_ext/108134065/bootmode.o
 .debug_loc     0x00004184      0x370 build/LAN9253_D51_SPI_Indirect_mode/production/_ext/108134065/coeappl.o
 .debug_loc     0x000044f4      0x2e0 build/LAN9253_D51_SPI_Indirect_mode/production/_ext/108134065/ecatappl.o
 .debug_loc     0x000047d4       0xe4 build/LAN9253_D51_SPI_Indirect_mode/production/_ext/108134065/ecatcoe.o
 .debug_loc     0x000048b8       0xe4 build/LAN9253_D51_SPI_Indirect_mode/production/_ext/108134065/ecatfoe.o
 .debug_loc     0x0000499c      0x682 build/LAN9253_D51_SPI_Indirect_mode/production/_ext/108134065/ecatslv.o
 .debug_loc     0x0000501e      0x2f4 build/LAN9253_D51_SPI_Indirect_mode/production/_ext/108134065/emcy.o
 .debug_loc     0x00005312      0x1e0 build/LAN9253_D51_SPI_Indirect_mode/production/_ext/108134065/foeappl.o
 .debug_loc     0x000054f2      0x428 build/LAN9253_D51_SPI_Indirect_mode/production/_ext/108134065/mailbox.o
 .debug_loc     0x0000591a      0x40e build/LAN9253_D51_SPI_Indirect_mode/production/_ext/108134065/objdef.o
 .debug_loc     0x00005d28      0x5d4 build/LAN9253_D51_SPI_Indirect_mode/production/_ext/108134065/sample_app.o
 .debug_loc     0x000062fc      0x210 build/LAN9253_D51_SPI_Indirect_mode/production/_ext/108134065/sdoserv.o
 .debug_loc     0x0000650c       0x2c build/LAN9253_D51_SPI_Indirect_mode/production/_ext/1360937237/main.o
 .debug_loc     0x00006538      0x148 build/LAN9253_D51_SPI_Indirect_mode/production/_ext/1360937237/app.o
 .debug_loc     0x00006680       0x74 c:/program files (x86)/microchip/xc32/v2.30/bin/bin/../../lib/gcc/pic32c/6.2.1/../../../../pic32c/lib/v7e-m/fpv4-sp/hard\libc.a(lib_a-init.o)
 .debug_loc     0x000066f4       0x58 c:/program files (x86)/microchip/xc32/v2.30/bin/bin/../../lib/gcc/pic32c/6.2.1/../../../../pic32c/lib/v7e-m/fpv4-sp/hard\libc.a(lib_a-malloc.o)
 .debug_loc     0x0000674c      0x875 c:/program files (x86)/microchip/xc32/v2.30/bin/bin/../../lib/gcc/pic32c/6.2.1/../../../../pic32c/lib/v7e-m/fpv4-sp/hard\libc.a(lib_a-mallocr.o)
 .debug_loc     0x00006fc1       0xb2 c:/program files (x86)/microchip/xc32/v2.30/bin/bin/../../lib/gcc/pic32c/6.2.1/../../../../pic32c/lib/v7e-m/fpv4-sp/hard\libc.a(lib_a-memcpy-stub.o)
 .debug_loc     0x00007073       0x4c c:/program files (x86)/microchip/xc32/v2.30/bin/bin/../../lib/gcc/pic32c/6.2.1/../../../../pic32c/lib/v7e-m/fpv4-sp/hard\libc.a(lib_a-memset.o)
 .debug_loc     0x000070bf       0x6d c:/program files (x86)/microchip/xc32/v2.30/bin/bin/../../lib/gcc/pic32c/6.2.1/../../../../pic32c/lib/v7e-m/fpv4-sp/hard\libc.a(lib_a-sbrkr.o)
 .debug_loc     0x0000712c      0x42d c:/program files (x86)/microchip/xc32/v2.30/bin/bin/../../lib/gcc/pic32c/6.2.1/../../../../pic32c/lib/v7e-m/fpv4-sp/hard\libc.a(lib_a-freer.o)
 .debug_loc     0x00007559      0x18f c:/program files (x86)/microchip/xc32/v2.30/bin/bin/../../lib/gcc/pic32c/6.2.1/../../../../pic32c/lib/v7e-m/fpv4-sp/hard\libc.a(lib_a-reent.o)

.debug_aranges  0x00000000      0xf88
 .debug_aranges
                0x00000000      0x150 build/LAN9253_D51_SPI_Indirect_mode/production/_ext/2070931557/drv_spi.o
 .debug_aranges
                0x00000150       0x58 build/LAN9253_D51_SPI_Indirect_mode/production/_ext/1984496892/plib_clock.o
 .debug_aranges
                0x000001a8       0xa8 build/LAN9253_D51_SPI_Indirect_mode/production/_ext/1865161661/plib_dmac.o
 .debug_aranges
                0x00000250       0x50 build/LAN9253_D51_SPI_Indirect_mode/production/_ext/60167341/plib_eic.o
 .debug_aranges
                0x000002a0       0x20 build/LAN9253_D51_SPI_Indirect_mode/production/_ext/1986646378/plib_evsys.o
 .debug_aranges
                0x000002c0       0x38 build/LAN9253_D51_SPI_Indirect_mode/production/_ext/1865468468/plib_nvic.o
 .debug_aranges
                0x000002f8       0xb0 build/LAN9253_D51_SPI_Indirect_mode/production/_ext/1593096446/plib_nvmctrl.o
 .debug_aranges
                0x000003a8       0x60 build/LAN9253_D51_SPI_Indirect_mode/production/_ext/1865521619/plib_port.o
 .debug_aranges
                0x00000408       0x58 build/LAN9253_D51_SPI_Indirect_mode/production/_ext/1865555181/plib_qspi_spi.o
 .debug_aranges
                0x00000460       0x70 build/LAN9253_D51_SPI_Indirect_mode/production/_ext/1827571544/plib_systick.o
 .debug_aranges
                0x000004d0       0x28 build/LAN9253_D51_SPI_Indirect_mode/production/_ext/14461671/sys_dma.o
 .debug_aranges
                0x000004f8       0x58 build/LAN9253_D51_SPI_Indirect_mode/production/_ext/1881668453/sys_int.o
 .debug_aranges
                0x00000550       0x48 build/LAN9253_D51_SPI_Indirect_mode/production/_ext/1171490990/exceptions.o
 .debug_aranges
                0x00000598       0x20 build/LAN9253_D51_SPI_Indirect_mode/production/_ext/1171490990/initialization.o
 .debug_aranges
                0x000005b8       0x20 build/LAN9253_D51_SPI_Indirect_mode/production/_ext/1171490990/interrupts.o
 .debug_aranges
                0x000005d8       0x38 build/LAN9253_D51_SPI_Indirect_mode/production/_ext/1171490990/startup_xc32.o
 .debug_aranges
                0x00000610       0x20 build/LAN9253_D51_SPI_Indirect_mode/production/_ext/1171490990/tasks.o
 .debug_aranges
                0x00000630      0x190 build/LAN9253_D51_SPI_Indirect_mode/production/_ext/1671622979/Drivers.o
 .debug_aranges
                0x000007c0       0x40 build/LAN9253_D51_SPI_Indirect_mode/production/_ext/108147519/ESC_Utils.o
 .debug_aranges
                0x00000800       0x90 build/LAN9253_D51_SPI_Indirect_mode/production/_ext/108147519/LAN925x.o
 .debug_aranges
                0x00000890       0x38 build/LAN9253_D51_SPI_Indirect_mode/production/_ext/108134065/bootmode.o
 .debug_aranges
                0x000008c8       0x70 build/LAN9253_D51_SPI_Indirect_mode/production/_ext/108134065/coeappl.o
 .debug_aranges
                0x00000938       0x70 build/LAN9253_D51_SPI_Indirect_mode/production/_ext/108134065/ecatappl.o
 .debug_aranges
                0x000009a8       0x30 build/LAN9253_D51_SPI_Indirect_mode/production/_ext/108134065/ecatcoe.o
 .debug_aranges
                0x000009d8       0x30 build/LAN9253_D51_SPI_Indirect_mode/production/_ext/108134065/ecatfoe.o
 .debug_aranges
                0x00000a08       0xc8 build/LAN9253_D51_SPI_Indirect_mode/production/_ext/108134065/ecatslv.o
 .debug_aranges
                0x00000ad0       0x60 build/LAN9253_D51_SPI_Indirect_mode/production/_ext/108134065/emcy.o
 .debug_aranges
                0x00000b30       0x48 build/LAN9253_D51_SPI_Indirect_mode/production/_ext/108134065/foeappl.o
 .debug_aranges
                0x00000b78       0x80 build/LAN9253_D51_SPI_Indirect_mode/production/_ext/108134065/mailbox.o
 .debug_aranges
                0x00000bf8       0x78 build/LAN9253_D51_SPI_Indirect_mode/production/_ext/108134065/objdef.o
 .debug_aranges
                0x00000c70       0xb8 build/LAN9253_D51_SPI_Indirect_mode/production/_ext/108134065/sample_app.o
 .debug_aranges
                0x00000d28       0x50 build/LAN9253_D51_SPI_Indirect_mode/production/_ext/108134065/sdoserv.o
 .debug_aranges
                0x00000d78       0x20 build/LAN9253_D51_SPI_Indirect_mode/production/_ext/1360937237/main.o
 .debug_aranges
                0x00000d98       0x40 build/LAN9253_D51_SPI_Indirect_mode/production/_ext/1360937237/app.o
 .debug_aranges
                0x00000dd8       0x20 c:/program files (x86)/microchip/xc32/v2.30/bin/bin/../../lib/gcc/pic32c/6.2.1/../../../../pic32c/lib/v7e-m/fpv4-sp/hard\libpic32c.a(data_init.o)
 .debug_aranges
                0x00000df8       0x20 c:/program files (x86)/microchip/xc32/v2.30/bin/bin/../../lib/gcc/pic32c/6.2.1/../../../../pic32c/lib/v7e-m/fpv4-sp/hard\libc.a(lib_a-init.o)
 .debug_aranges
                0x00000e18       0x28 c:/program files (x86)/microchip/xc32/v2.30/bin/bin/../../lib/gcc/pic32c/6.2.1/../../../../pic32c/lib/v7e-m/fpv4-sp/hard\libc.a(lib_a-malloc.o)
 .debug_aranges
                0x00000e40       0x20 c:/program files (x86)/microchip/xc32/v2.30/bin/bin/../../lib/gcc/pic32c/6.2.1/../../../../pic32c/lib/v7e-m/fpv4-sp/hard\libc.a(lib_a-mallocr.o)
 .debug_aranges
                0x00000e60       0x20 c:/program files (x86)/microchip/xc32/v2.30/bin/bin/../../lib/gcc/pic32c/6.2.1/../../../../pic32c/lib/v7e-m/fpv4-sp/hard\libc.a(lib_a-memcpy-stub.o)
 .debug_aranges
                0x00000e80       0x20 c:/program files (x86)/microchip/xc32/v2.30/bin/bin/../../lib/gcc/pic32c/6.2.1/../../../../pic32c/lib/v7e-m/fpv4-sp/hard\libc.a(lib_a-memset.o)
 .debug_aranges
                0x00000ea0       0x20 c:/program files (x86)/microchip/xc32/v2.30/bin/bin/../../lib/gcc/pic32c/6.2.1/../../../../pic32c/lib/v7e-m/fpv4-sp/hard\libc.a(lib_a-mlock.o)
 .debug_aranges
                0x00000ec0       0x20 c:/program files (x86)/microchip/xc32/v2.30/bin/bin/../../lib/gcc/pic32c/6.2.1/../../../../pic32c/lib/v7e-m/fpv4-sp/hard\libc.a(lib_a-sbrkr.o)
 .debug_aranges
                0x00000ee0       0x20 c:/program files (x86)/microchip/xc32/v2.30/bin/bin/../../lib/gcc/pic32c/6.2.1/../../../../pic32c/lib/v7e-m/fpv4-sp/hard\libc.a(lib_a-strlen.o)
 .debug_aranges
                0x00000f00       0x28 c:/program files (x86)/microchip/xc32/v2.30/bin/bin/../../lib/gcc/pic32c/6.2.1/../../../../pic32c/lib/v7e-m/fpv4-sp/hard\libc.a(lib_a-freer.o)
 .debug_aranges
                0x00000f28       0x18 c:/program files (x86)/microchip/xc32/v2.30/bin/bin/../../lib/gcc/pic32c/6.2.1/../../../../pic32c/lib/v7e-m/fpv4-sp/hard\libc.a(lib_a-impure.o)
 .debug_aranges
                0x00000f40       0x28 c:/program files (x86)/microchip/xc32/v2.30/bin/bin/../../lib/gcc/pic32c/6.2.1/../../../../pic32c/lib/v7e-m/fpv4-sp/hard\libc.a(lib_a-reent.o)
 .debug_aranges
                0x00000f68       0x20 c:/program files (x86)/microchip/xc32/v2.30/bin/bin/../../lib/gcc/pic32c/6.2.1/../../../../pic32c/lib/v7e-m/fpv4-sp/hard\libpic32c.a(sbrk.o)

.debug_ranges   0x00000000      0xd98
 .debug_ranges  0x00000000      0x140 build/LAN9253_D51_SPI_Indirect_mode/production/_ext/2070931557/drv_spi.o
 .debug_ranges  0x00000140       0x48 build/LAN9253_D51_SPI_Indirect_mode/production/_ext/1984496892/plib_clock.o
 .debug_ranges  0x00000188       0x98 build/LAN9253_D51_SPI_Indirect_mode/production/_ext/1865161661/plib_dmac.o
 .debug_ranges  0x00000220       0x40 build/LAN9253_D51_SPI_Indirect_mode/production/_ext/60167341/plib_eic.o
 .debug_ranges  0x00000260       0x10 build/LAN9253_D51_SPI_Indirect_mode/production/_ext/1986646378/plib_evsys.o
 .debug_ranges  0x00000270       0x28 build/LAN9253_D51_SPI_Indirect_mode/production/_ext/1865468468/plib_nvic.o
 .debug_ranges  0x00000298       0xa0 build/LAN9253_D51_SPI_Indirect_mode/production/_ext/1593096446/plib_nvmctrl.o
 .debug_ranges  0x00000338       0x50 build/LAN9253_D51_SPI_Indirect_mode/production/_ext/1865521619/plib_port.o
 .debug_ranges  0x00000388       0x48 build/LAN9253_D51_SPI_Indirect_mode/production/_ext/1865555181/plib_qspi_spi.o
 .debug_ranges  0x000003d0       0x60 build/LAN9253_D51_SPI_Indirect_mode/production/_ext/1827571544/plib_systick.o
 .debug_ranges  0x00000430       0x18 build/LAN9253_D51_SPI_Indirect_mode/production/_ext/14461671/sys_dma.o
 .debug_ranges  0x00000448       0x48 build/LAN9253_D51_SPI_Indirect_mode/production/_ext/1881668453/sys_int.o
 .debug_ranges  0x00000490       0x38 build/LAN9253_D51_SPI_Indirect_mode/production/_ext/1171490990/exceptions.o
 .debug_ranges  0x000004c8       0x10 build/LAN9253_D51_SPI_Indirect_mode/production/_ext/1171490990/initialization.o
 .debug_ranges  0x000004d8       0x10 build/LAN9253_D51_SPI_Indirect_mode/production/_ext/1171490990/interrupts.o
 .debug_ranges  0x000004e8       0x28 build/LAN9253_D51_SPI_Indirect_mode/production/_ext/1171490990/startup_xc32.o
 .debug_ranges  0x00000510       0x10 build/LAN9253_D51_SPI_Indirect_mode/production/_ext/1171490990/tasks.o
 .debug_ranges  0x00000520      0x180 build/LAN9253_D51_SPI_Indirect_mode/production/_ext/1671622979/Drivers.o
 .debug_ranges  0x000006a0       0x30 build/LAN9253_D51_SPI_Indirect_mode/production/_ext/108147519/ESC_Utils.o
 .debug_ranges  0x000006d0       0x80 build/LAN9253_D51_SPI_Indirect_mode/production/_ext/108147519/LAN925x.o
 .debug_ranges  0x00000750       0x28 build/LAN9253_D51_SPI_Indirect_mode/production/_ext/108134065/bootmode.o
 .debug_ranges  0x00000778       0x78 build/LAN9253_D51_SPI_Indirect_mode/production/_ext/108134065/coeappl.o
 .debug_ranges  0x000007f0       0x78 build/LAN9253_D51_SPI_Indirect_mode/production/_ext/108134065/ecatappl.o
 .debug_ranges  0x00000868       0x20 build/LAN9253_D51_SPI_Indirect_mode/production/_ext/108134065/ecatcoe.o
 .debug_ranges  0x00000888       0x80 build/LAN9253_D51_SPI_Indirect_mode/production/_ext/108134065/ecatfoe.o
 .debug_ranges  0x00000908       0xb8 build/LAN9253_D51_SPI_Indirect_mode/production/_ext/108134065/ecatslv.o
 .debug_ranges  0x000009c0       0x50 build/LAN9253_D51_SPI_Indirect_mode/production/_ext/108134065/emcy.o
 .debug_ranges  0x00000a10       0x38 build/LAN9253_D51_SPI_Indirect_mode/production/_ext/108134065/foeappl.o
 .debug_ranges  0x00000a48       0x70 build/LAN9253_D51_SPI_Indirect_mode/production/_ext/108134065/mailbox.o
 .debug_ranges  0x00000ab8       0x80 build/LAN9253_D51_SPI_Indirect_mode/production/_ext/108134065/objdef.o
 .debug_ranges  0x00000b38       0xa8 build/LAN9253_D51_SPI_Indirect_mode/production/_ext/108134065/sample_app.o
 .debug_ranges  0x00000be0       0x68 build/LAN9253_D51_SPI_Indirect_mode/production/_ext/108134065/sdoserv.o
 .debug_ranges  0x00000c48       0x10 build/LAN9253_D51_SPI_Indirect_mode/production/_ext/1360937237/main.o
 .debug_ranges  0x00000c58       0x30 build/LAN9253_D51_SPI_Indirect_mode/production/_ext/1360937237/app.o
 .debug_ranges  0x00000c88       0x10 c:/program files (x86)/microchip/xc32/v2.30/bin/bin/../../lib/gcc/pic32c/6.2.1/../../../../pic32c/lib/v7e-m/fpv4-sp/hard\libpic32c.a(data_init.o)
 .debug_ranges  0x00000c98       0x10 c:/program files (x86)/microchip/xc32/v2.30/bin/bin/../../lib/gcc/pic32c/6.2.1/../../../../pic32c/lib/v7e-m/fpv4-sp/hard\libc.a(lib_a-init.o)
 .debug_ranges  0x00000ca8       0x18 c:/program files (x86)/microchip/xc32/v2.30/bin/bin/../../lib/gcc/pic32c/6.2.1/../../../../pic32c/lib/v7e-m/fpv4-sp/hard\libc.a(lib_a-malloc.o)
 .debug_ranges  0x00000cc0       0x28 c:/program files (x86)/microchip/xc32/v2.30/bin/bin/../../lib/gcc/pic32c/6.2.1/../../../../pic32c/lib/v7e-m/fpv4-sp/hard\libc.a(lib_a-mallocr.o)
 .debug_ranges  0x00000ce8       0x10 c:/program files (x86)/microchip/xc32/v2.30/bin/bin/../../lib/gcc/pic32c/6.2.1/../../../../pic32c/lib/v7e-m/fpv4-sp/hard\libc.a(lib_a-memcpy-stub.o)
 .debug_ranges  0x00000cf8       0x10 c:/program files (x86)/microchip/xc32/v2.30/bin/bin/../../lib/gcc/pic32c/6.2.1/../../../../pic32c/lib/v7e-m/fpv4-sp/hard\libc.a(lib_a-memset.o)
 .debug_ranges  0x00000d08       0x10 c:/program files (x86)/microchip/xc32/v2.30/bin/bin/../../lib/gcc/pic32c/6.2.1/../../../../pic32c/lib/v7e-m/fpv4-sp/hard\libc.a(lib_a-mlock.o)
 .debug_ranges  0x00000d18       0x10 c:/program files (x86)/microchip/xc32/v2.30/bin/bin/../../lib/gcc/pic32c/6.2.1/../../../../pic32c/lib/v7e-m/fpv4-sp/hard\libc.a(lib_a-sbrkr.o)
 .debug_ranges  0x00000d28       0x18 c:/program files (x86)/microchip/xc32/v2.30/bin/bin/../../lib/gcc/pic32c/6.2.1/../../../../pic32c/lib/v7e-m/fpv4-sp/hard\libc.a(lib_a-freer.o)
 .debug_ranges  0x00000d40       0x48 c:/program files (x86)/microchip/xc32/v2.30/bin/bin/../../lib/gcc/pic32c/6.2.1/../../../../pic32c/lib/v7e-m/fpv4-sp/hard\libc.a(lib_a-reent.o)
 .debug_ranges  0x00000d88       0x10 c:/program files (x86)/microchip/xc32/v2.30/bin/bin/../../lib/gcc/pic32c/6.2.1/../../../../pic32c/lib/v7e-m/fpv4-sp/hard\libpic32c.a(sbrk.o)

.debug_line     0x00000000     0xaacd
 .debug_line    0x00000000      0xaf1 build/LAN9253_D51_SPI_Indirect_mode/production/_ext/2070931557/drv_spi.o
 .debug_line    0x00000af1      0x246 build/LAN9253_D51_SPI_Indirect_mode/production/_ext/1984496892/plib_clock.o
 .debug_line    0x00000d37      0x588 build/LAN9253_D51_SPI_Indirect_mode/production/_ext/1865161661/plib_dmac.o
 .debug_line    0x000012bf      0x20e build/LAN9253_D51_SPI_Indirect_mode/production/_ext/60167341/plib_eic.o
 .debug_line    0x000014cd      0x13b build/LAN9253_D51_SPI_Indirect_mode/production/_ext/1986646378/plib_evsys.o
 .debug_line    0x00001608      0x1da build/LAN9253_D51_SPI_Indirect_mode/production/_ext/1865468468/plib_nvic.o
 .debug_line    0x000017e2      0x379 build/LAN9253_D51_SPI_Indirect_mode/production/_ext/1593096446/plib_nvmctrl.o
 .debug_line    0x00001b5b      0x219 build/LAN9253_D51_SPI_Indirect_mode/production/_ext/1865521619/plib_port.o
 .debug_line    0x00001d74      0x4b0 build/LAN9253_D51_SPI_Indirect_mode/production/_ext/1865555181/plib_qspi_spi.o
 .debug_line    0x00002224      0x216 build/LAN9253_D51_SPI_Indirect_mode/production/_ext/1827571544/plib_systick.o
 .debug_line    0x0000243a      0x203 build/LAN9253_D51_SPI_Indirect_mode/production/_ext/14461671/sys_dma.o
 .debug_line    0x0000263d      0x291 build/LAN9253_D51_SPI_Indirect_mode/production/_ext/1881668453/sys_int.o
 .debug_line    0x000028ce      0x39e build/LAN9253_D51_SPI_Indirect_mode/production/_ext/1171490990/exceptions.o
 .debug_line    0x00002c6c      0x421 build/LAN9253_D51_SPI_Indirect_mode/production/_ext/1171490990/initialization.o
 .debug_line    0x0000308d      0x379 build/LAN9253_D51_SPI_Indirect_mode/production/_ext/1171490990/interrupts.o
 .debug_line    0x00003406      0x407 build/LAN9253_D51_SPI_Indirect_mode/production/_ext/1171490990/startup_xc32.o
 .debug_line    0x0000380d      0x348 build/LAN9253_D51_SPI_Indirect_mode/production/_ext/1171490990/tasks.o
 .debug_line    0x00003b55      0xa4a build/LAN9253_D51_SPI_Indirect_mode/production/_ext/1671622979/Drivers.o
 .debug_line    0x0000459f      0x402 build/LAN9253_D51_SPI_Indirect_mode/production/_ext/108147519/ESC_Utils.o
 .debug_line    0x000049a1      0x5af build/LAN9253_D51_SPI_Indirect_mode/production/_ext/108147519/LAN925x.o
 .debug_line    0x00004f50      0x19b build/LAN9253_D51_SPI_Indirect_mode/production/_ext/108134065/bootmode.o
 .debug_line    0x000050eb      0x50c build/LAN9253_D51_SPI_Indirect_mode/production/_ext/108134065/coeappl.o
 .debug_line    0x000055f7      0x56e build/LAN9253_D51_SPI_Indirect_mode/production/_ext/108134065/ecatappl.o
 .debug_line    0x00005b65      0x1b0 build/LAN9253_D51_SPI_Indirect_mode/production/_ext/108134065/ecatcoe.o
 .debug_line    0x00005d15      0x42c build/LAN9253_D51_SPI_Indirect_mode/production/_ext/108134065/ecatfoe.o
 .debug_line    0x00006141      0x9b3 build/LAN9253_D51_SPI_Indirect_mode/production/_ext/108134065/ecatslv.o
 .debug_line    0x00006af4      0x448 build/LAN9253_D51_SPI_Indirect_mode/production/_ext/108134065/emcy.o
 .debug_line    0x00006f3c      0x414 build/LAN9253_D51_SPI_Indirect_mode/production/_ext/108134065/foeappl.o
 .debug_line    0x00007350      0x596 build/LAN9253_D51_SPI_Indirect_mode/production/_ext/108134065/mailbox.o
 .debug_line    0x000078e6      0x71c build/LAN9253_D51_SPI_Indirect_mode/production/_ext/108134065/objdef.o
 .debug_line    0x00008002      0x5ac build/LAN9253_D51_SPI_Indirect_mode/production/_ext/108134065/sample_app.o
 .debug_line    0x000085ae      0x5fa build/LAN9253_D51_SPI_Indirect_mode/production/_ext/108134065/sdoserv.o
 .debug_line    0x00008ba8      0x34b build/LAN9253_D51_SPI_Indirect_mode/production/_ext/1360937237/main.o
 .debug_line    0x00008ef3      0x46c build/LAN9253_D51_SPI_Indirect_mode/production/_ext/1360937237/app.o
 .debug_line    0x0000935f       0xd8 c:/program files (x86)/microchip/xc32/v2.30/bin/bin/../../lib/gcc/pic32c/6.2.1/../../../../pic32c/lib/v7e-m/fpv4-sp/hard\libpic32c.a(data_init.o)
 .debug_line    0x00009437      0x11d c:/program files (x86)/microchip/xc32/v2.30/bin/bin/../../lib/gcc/pic32c/6.2.1/../../../../pic32c/lib/v7e-m/fpv4-sp/hard\libc.a(lib_a-init.o)
 .debug_line    0x00009554      0x21e c:/program files (x86)/microchip/xc32/v2.30/bin/bin/../../lib/gcc/pic32c/6.2.1/../../../../pic32c/lib/v7e-m/fpv4-sp/hard\libc.a(lib_a-malloc.o)
 .debug_line    0x00009772      0x347 c:/program files (x86)/microchip/xc32/v2.30/bin/bin/../../lib/gcc/pic32c/6.2.1/../../../../pic32c/lib/v7e-m/fpv4-sp/hard\libc.a(lib_a-mallocr.o)
 .debug_line    0x00009ab9      0x218 c:/program files (x86)/microchip/xc32/v2.30/bin/bin/../../lib/gcc/pic32c/6.2.1/../../../../pic32c/lib/v7e-m/fpv4-sp/hard\libc.a(lib_a-memcpy-stub.o)
 .debug_line    0x00009cd1      0x2ae c:/program files (x86)/microchip/xc32/v2.30/bin/bin/../../lib/gcc/pic32c/6.2.1/../../../../pic32c/lib/v7e-m/fpv4-sp/hard\libc.a(lib_a-memset.o)
 .debug_line    0x00009f7f      0x18d c:/program files (x86)/microchip/xc32/v2.30/bin/bin/../../lib/gcc/pic32c/6.2.1/../../../../pic32c/lib/v7e-m/fpv4-sp/hard\libc.a(lib_a-mlock.o)
 .debug_line    0x0000a10c      0x212 c:/program files (x86)/microchip/xc32/v2.30/bin/bin/../../lib/gcc/pic32c/6.2.1/../../../../pic32c/lib/v7e-m/fpv4-sp/hard\libc.a(lib_a-sbrkr.o)
 .debug_line    0x0000a31e       0xb1 c:/program files (x86)/microchip/xc32/v2.30/bin/bin/../../lib/gcc/pic32c/6.2.1/../../../../pic32c/lib/v7e-m/fpv4-sp/hard\libc.a(lib_a-strlen.o)
 .debug_line    0x0000a3cf      0x2a1 c:/program files (x86)/microchip/xc32/v2.30/bin/bin/../../lib/gcc/pic32c/6.2.1/../../../../pic32c/lib/v7e-m/fpv4-sp/hard\libc.a(lib_a-freer.o)
 .debug_line    0x0000a670      0x17e c:/program files (x86)/microchip/xc32/v2.30/bin/bin/../../lib/gcc/pic32c/6.2.1/../../../../pic32c/lib/v7e-m/fpv4-sp/hard\libc.a(lib_a-impure.o)
 .debug_line    0x0000a7ee      0x23d c:/program files (x86)/microchip/xc32/v2.30/bin/bin/../../lib/gcc/pic32c/6.2.1/../../../../pic32c/lib/v7e-m/fpv4-sp/hard\libc.a(lib_a-reent.o)
 .debug_line    0x0000aa2b       0xa2 c:/program files (x86)/microchip/xc32/v2.30/bin/bin/../../lib/gcc/pic32c/6.2.1/../../../../pic32c/lib/v7e-m/fpv4-sp/hard\libpic32c.a(sbrk.o)

.debug_str      0x00000000      0xa50
 .debug_str     0x00000000      0x192 build/LAN9253_D51_SPI_Indirect_mode/production/_ext/2070931557/drv_spi.o
 .debug_str     0x00000192       0x1e build/LAN9253_D51_SPI_Indirect_mode/production/_ext/1984496892/plib_clock.o
 .debug_str     0x000001b0       0x5a build/LAN9253_D51_SPI_Indirect_mode/production/_ext/1865161661/plib_dmac.o
 .debug_str     0x0000020a        0x9 build/LAN9253_D51_SPI_Indirect_mode/production/_ext/60167341/plib_eic.o
 .debug_str     0x00000213        0x0 build/LAN9253_D51_SPI_Indirect_mode/production/_ext/1986646378/plib_evsys.o
 .debug_str     0x00000213        0xa build/LAN9253_D51_SPI_Indirect_mode/production/_ext/1865468468/plib_nvic.o
 .debug_str     0x0000021d       0x29 build/LAN9253_D51_SPI_Indirect_mode/production/_ext/1593096446/plib_nvmctrl.o
 .debug_str     0x00000246        0xb build/LAN9253_D51_SPI_Indirect_mode/production/_ext/1865521619/plib_port.o
 .debug_str     0x00000251       0x62 build/LAN9253_D51_SPI_Indirect_mode/production/_ext/1865555181/plib_qspi_spi.o
 .debug_str     0x000002b3        0x9 build/LAN9253_D51_SPI_Indirect_mode/production/_ext/1827571544/plib_systick.o
 .debug_str     0x000002bc        0xe build/LAN9253_D51_SPI_Indirect_mode/production/_ext/14461671/sys_dma.o
 .debug_str     0x000002ca       0x10 build/LAN9253_D51_SPI_Indirect_mode/production/_ext/1881668453/sys_int.o
 .debug_str     0x000002da        0xe build/LAN9253_D51_SPI_Indirect_mode/production/_ext/1171490990/exceptions.o
 .debug_str     0x000002e8       0x1b build/LAN9253_D51_SPI_Indirect_mode/production/_ext/1171490990/initialization.o
 .debug_str     0x00000303        0xe build/LAN9253_D51_SPI_Indirect_mode/production/_ext/1171490990/interrupts.o
 .debug_str     0x00000311        0xe build/LAN9253_D51_SPI_Indirect_mode/production/_ext/1171490990/startup_xc32.o
 .debug_str     0x0000031f        0xe build/LAN9253_D51_SPI_Indirect_mode/production/_ext/1171490990/tasks.o
 .debug_str     0x0000032d       0xf8 build/LAN9253_D51_SPI_Indirect_mode/production/_ext/1671622979/Drivers.o
 .debug_str     0x00000425        0xe build/LAN9253_D51_SPI_Indirect_mode/production/_ext/108147519/ESC_Utils.o
 .debug_str     0x00000433       0x55 build/LAN9253_D51_SPI_Indirect_mode/production/_ext/108147519/LAN925x.o
 .debug_str     0x00000488        0xe build/LAN9253_D51_SPI_Indirect_mode/production/_ext/108134065/bootmode.o
 .debug_str     0x00000496       0x48 build/LAN9253_D51_SPI_Indirect_mode/production/_ext/108134065/coeappl.o
 .debug_str     0x000004de       0x42 build/LAN9253_D51_SPI_Indirect_mode/production/_ext/108134065/ecatappl.o
 .debug_str     0x00000520       0x35 build/LAN9253_D51_SPI_Indirect_mode/production/_ext/108134065/ecatcoe.o
 .debug_str     0x00000555       0x24 build/LAN9253_D51_SPI_Indirect_mode/production/_ext/108134065/ecatfoe.o
 .debug_str     0x00000579       0x6b build/LAN9253_D51_SPI_Indirect_mode/production/_ext/108134065/ecatslv.o
 .debug_str     0x000005e4       0x2d build/LAN9253_D51_SPI_Indirect_mode/production/_ext/108134065/emcy.o
 .debug_str     0x00000611       0x31 build/LAN9253_D51_SPI_Indirect_mode/production/_ext/108134065/foeappl.o
 .debug_str     0x00000642       0x50 build/LAN9253_D51_SPI_Indirect_mode/production/_ext/108134065/mailbox.o
 .debug_str     0x00000692       0xa5 build/LAN9253_D51_SPI_Indirect_mode/production/_ext/108134065/objdef.o
 .debug_str     0x00000737       0x5c build/LAN9253_D51_SPI_Indirect_mode/production/_ext/108134065/sample_app.o
 .debug_str     0x00000793       0xa8 build/LAN9253_D51_SPI_Indirect_mode/production/_ext/108134065/sdoserv.o
 .debug_str     0x0000083b        0xe build/LAN9253_D51_SPI_Indirect_mode/production/_ext/1360937237/main.o
 .debug_str     0x00000849       0x24 build/LAN9253_D51_SPI_Indirect_mode/production/_ext/1360937237/app.o
 .debug_str     0x0000086d        0x0 c:/program files (x86)/microchip/xc32/v2.30/bin/bin/../../lib/gcc/pic32c/6.2.1/../../../../pic32c/lib/v7e-m/fpv4-sp/hard\libpic32c.a(data_init.o)
 .debug_str     0x0000086d        0x0 c:/program files (x86)/microchip/xc32/v2.30/bin/bin/../../lib/gcc/pic32c/6.2.1/../../../../pic32c/lib/v7e-m/fpv4-sp/hard\libc.a(lib_a-init.o)
 .debug_str     0x0000086d       0x18 c:/program files (x86)/microchip/xc32/v2.30/bin/bin/../../lib/gcc/pic32c/6.2.1/../../../../pic32c/lib/v7e-m/fpv4-sp/hard\libc.a(lib_a-malloc.o)
 .debug_str     0x00000885       0x36 c:/program files (x86)/microchip/xc32/v2.30/bin/bin/../../lib/gcc/pic32c/6.2.1/../../../../pic32c/lib/v7e-m/fpv4-sp/hard\libc.a(lib_a-mallocr.o)
 .debug_str     0x000008bb        0xe c:/program files (x86)/microchip/xc32/v2.30/bin/bin/../../lib/gcc/pic32c/6.2.1/../../../../pic32c/lib/v7e-m/fpv4-sp/hard\libc.a(lib_a-memcpy-stub.o)
 .debug_str     0x000008c9      0x119 c:/program files (x86)/microchip/xc32/v2.30/bin/bin/../../lib/gcc/pic32c/6.2.1/../../../../pic32c/lib/v7e-m/fpv4-sp/hard\libc.a(lib_a-memset.o)
 .debug_str     0x000009e2        0xe c:/program files (x86)/microchip/xc32/v2.30/bin/bin/../../lib/gcc/pic32c/6.2.1/../../../../pic32c/lib/v7e-m/fpv4-sp/hard\libc.a(lib_a-mlock.o)
 .debug_str     0x000009f0        0xe c:/program files (x86)/microchip/xc32/v2.30/bin/bin/../../lib/gcc/pic32c/6.2.1/../../../../pic32c/lib/v7e-m/fpv4-sp/hard\libc.a(lib_a-sbrkr.o)
 .debug_str     0x000009fe       0x36 c:/program files (x86)/microchip/xc32/v2.30/bin/bin/../../lib/gcc/pic32c/6.2.1/../../../../pic32c/lib/v7e-m/fpv4-sp/hard\libc.a(lib_a-freer.o)
 .debug_str     0x00000a34        0xe c:/program files (x86)/microchip/xc32/v2.30/bin/bin/../../lib/gcc/pic32c/6.2.1/../../../../pic32c/lib/v7e-m/fpv4-sp/hard\libc.a(lib_a-impure.o)
 .debug_str     0x00000a42        0xe c:/program files (x86)/microchip/xc32/v2.30/bin/bin/../../lib/gcc/pic32c/6.2.1/../../../../pic32c/lib/v7e-m/fpv4-sp/hard\libc.a(lib_a-reent.o)
 .debug_str     0x00000a50        0x0 c:/program files (x86)/microchip/xc32/v2.30/bin/bin/../../lib/gcc/pic32c/6.2.1/../../../../pic32c/lib/v7e-m/fpv4-sp/hard\libpic32c.a(sbrk.o)

.debug_frame    0x00000000     0x3408
 .debug_frame   0x00000000      0x5c4 build/LAN9253_D51_SPI_Indirect_mode/production/_ext/2070931557/drv_spi.o
 .debug_frame   0x000005c4      0x10c build/LAN9253_D51_SPI_Indirect_mode/production/_ext/1984496892/plib_clock.o
 .debug_frame   0x000006d0      0x2ac build/LAN9253_D51_SPI_Indirect_mode/production/_ext/1865161661/plib_dmac.o
 .debug_frame   0x0000097c       0xfc build/LAN9253_D51_SPI_Indirect_mode/production/_ext/60167341/plib_eic.o
 .debug_frame   0x00000a78       0x30 build/LAN9253_D51_SPI_Indirect_mode/production/_ext/1986646378/plib_evsys.o
 .debug_frame   0x00000aa8       0xa4 build/LAN9253_D51_SPI_Indirect_mode/production/_ext/1865468468/plib_nvic.o
 .debug_frame   0x00000b4c      0x2ac build/LAN9253_D51_SPI_Indirect_mode/production/_ext/1593096446/plib_nvmctrl.o
 .debug_frame   0x00000df8      0x170 build/LAN9253_D51_SPI_Indirect_mode/production/_ext/1865521619/plib_port.o
 .debug_frame   0x00000f68      0x138 build/LAN9253_D51_SPI_Indirect_mode/production/_ext/1865555181/plib_qspi_spi.o
 .debug_frame   0x000010a0      0x184 build/LAN9253_D51_SPI_Indirect_mode/production/_ext/1827571544/plib_systick.o
 .debug_frame   0x00001224       0x58 build/LAN9253_D51_SPI_Indirect_mode/production/_ext/14461671/sys_dma.o
 .debug_frame   0x0000127c      0x140 build/LAN9253_D51_SPI_Indirect_mode/production/_ext/1881668453/sys_int.o
 .debug_frame   0x000013bc       0xa0 build/LAN9253_D51_SPI_Indirect_mode/production/_ext/1171490990/exceptions.o
 .debug_frame   0x0000145c       0x34 build/LAN9253_D51_SPI_Indirect_mode/production/_ext/1171490990/initialization.o
 .debug_frame   0x00001490       0x20 build/LAN9253_D51_SPI_Indirect_mode/production/_ext/1171490990/interrupts.o
 .debug_frame   0x000014b0       0x98 build/LAN9253_D51_SPI_Indirect_mode/production/_ext/1171490990/startup_xc32.o
 .debug_frame   0x00001548       0x2c build/LAN9253_D51_SPI_Indirect_mode/production/_ext/1171490990/tasks.o
 .debug_frame   0x00001574      0x6a8 build/LAN9253_D51_SPI_Indirect_mode/production/_ext/1671622979/Drivers.o
 .debug_frame   0x00001c1c       0xb4 build/LAN9253_D51_SPI_Indirect_mode/production/_ext/108147519/ESC_Utils.o
 .debug_frame   0x00001cd0      0x22c build/LAN9253_D51_SPI_Indirect_mode/production/_ext/108147519/LAN925x.o
 .debug_frame   0x00001efc       0xa8 build/LAN9253_D51_SPI_Indirect_mode/production/_ext/108134065/bootmode.o
 .debug_frame   0x00001fa4      0x1a8 build/LAN9253_D51_SPI_Indirect_mode/production/_ext/108134065/coeappl.o
 .debug_frame   0x0000214c      0x180 build/LAN9253_D51_SPI_Indirect_mode/production/_ext/108134065/ecatappl.o
 .debug_frame   0x000022cc       0x78 build/LAN9253_D51_SPI_Indirect_mode/production/_ext/108134065/ecatcoe.o
 .debug_frame   0x00002344       0x7c build/LAN9253_D51_SPI_Indirect_mode/production/_ext/108134065/ecatfoe.o
 .debug_frame   0x000023c0      0x320 build/LAN9253_D51_SPI_Indirect_mode/production/_ext/108134065/ecatslv.o
 .debug_frame   0x000026e0      0x160 build/LAN9253_D51_SPI_Indirect_mode/production/_ext/108134065/emcy.o
 .debug_frame   0x00002840       0xec build/LAN9253_D51_SPI_Indirect_mode/production/_ext/108134065/foeappl.o
 .debug_frame   0x0000292c      0x1ec build/LAN9253_D51_SPI_Indirect_mode/production/_ext/108134065/mailbox.o
 .debug_frame   0x00002b18      0x1e8 build/LAN9253_D51_SPI_Indirect_mode/production/_ext/108134065/objdef.o
 .debug_frame   0x00002d00      0x2c4 build/LAN9253_D51_SPI_Indirect_mode/production/_ext/108134065/sample_app.o
 .debug_frame   0x00002fc4      0x120 build/LAN9253_D51_SPI_Indirect_mode/production/_ext/108134065/sdoserv.o
 .debug_frame   0x000030e4       0x2c build/LAN9253_D51_SPI_Indirect_mode/production/_ext/1360937237/main.o
 .debug_frame   0x00003110       0xb4 build/LAN9253_D51_SPI_Indirect_mode/production/_ext/1360937237/app.o
 .debug_frame   0x000031c4       0x2c c:/program files (x86)/microchip/xc32/v2.30/bin/bin/../../lib/gcc/pic32c/6.2.1/../../../../pic32c/lib/v7e-m/fpv4-sp/hard\libpic32c.a(data_init.o)
 .debug_frame   0x000031f0       0x2c c:/program files (x86)/microchip/xc32/v2.30/bin/bin/../../lib/gcc/pic32c/6.2.1/../../../../pic32c/lib/v7e-m/fpv4-sp/hard\libc.a(lib_a-init.o)
 .debug_frame   0x0000321c       0x30 c:/program files (x86)/microchip/xc32/v2.30/bin/bin/../../lib/gcc/pic32c/6.2.1/../../../../pic32c/lib/v7e-m/fpv4-sp/hard\libc.a(lib_a-malloc.o)
 .debug_frame   0x0000324c       0x40 c:/program files (x86)/microchip/xc32/v2.30/bin/bin/../../lib/gcc/pic32c/6.2.1/../../../../pic32c/lib/v7e-m/fpv4-sp/hard\libc.a(lib_a-mallocr.o)
 .debug_frame   0x0000328c       0x28 c:/program files (x86)/microchip/xc32/v2.30/bin/bin/../../lib/gcc/pic32c/6.2.1/../../../../pic32c/lib/v7e-m/fpv4-sp/hard\libc.a(lib_a-memcpy-stub.o)
 .debug_frame   0x000032b4       0x20 c:/program files (x86)/microchip/xc32/v2.30/bin/bin/../../lib/gcc/pic32c/6.2.1/../../../../pic32c/lib/v7e-m/fpv4-sp/hard\libc.a(lib_a-memset.o)
 .debug_frame   0x000032d4       0x30 c:/program files (x86)/microchip/xc32/v2.30/bin/bin/../../lib/gcc/pic32c/6.2.1/../../../../pic32c/lib/v7e-m/fpv4-sp/hard\libc.a(lib_a-mlock.o)
 .debug_frame   0x00003304       0x2c c:/program files (x86)/microchip/xc32/v2.30/bin/bin/../../lib/gcc/pic32c/6.2.1/../../../../pic32c/lib/v7e-m/fpv4-sp/hard\libc.a(lib_a-sbrkr.o)
 .debug_frame   0x00003330       0x5c c:/program files (x86)/microchip/xc32/v2.30/bin/bin/../../lib/gcc/pic32c/6.2.1/../../../../pic32c/lib/v7e-m/fpv4-sp/hard\libc.a(lib_a-freer.o)
 .debug_frame   0x0000338c       0x5c c:/program files (x86)/microchip/xc32/v2.30/bin/bin/../../lib/gcc/pic32c/6.2.1/../../../../pic32c/lib/v7e-m/fpv4-sp/hard\libc.a(lib_a-reent.o)
 .debug_frame   0x000033e8       0x20 c:/program files (x86)/microchip/xc32/v2.30/bin/bin/../../lib/gcc/pic32c/6.2.1/../../../../pic32c/lib/v7e-m/fpv4-sp/hard\libpic32c.a(sbrk.o)

.stack          0x20005588      0x100
 .stack         0x20005588      0x100 stack

.data.impure_data%1
                0x20003db0      0x418
 .data.impure_data
                0x20003db0      0x418 c:/program files (x86)/microchip/xc32/v2.30/bin/bin/../../lib/gcc/pic32c/6.2.1/../../../../pic32c/lib/v7e-m/fpv4-sp/hard\libc.a(lib_a-impure.o)

.data.__malloc_av_%2
                0x200041c8      0x408
 .data.__malloc_av_
                0x200041c8      0x408 c:/program files (x86)/microchip/xc32/v2.30/bin/bin/../../lib/gcc/pic32c/6.2.1/../../../../pic32c/lib/v7e-m/fpv4-sp/hard\libc.a(lib_a-mallocr.o)
                0x200041c8                __malloc_av_

.data.OutputsProcessDataMapping0x1601%3
                0x200045d0      0x204
 .data.OutputsProcessDataMapping0x1601
                0x200045d0      0x204 build/LAN9253_D51_SPI_Indirect_mode/production/_ext/108134065/sample_app.o
                0x200045d0                OutputsProcessDataMapping0x1601

.data.InputsProcessDataMapping0x1A00%4
                0x200047d4      0x204
 .data.InputsProcessDataMapping0x1A00
                0x200047d4      0x204 build/LAN9253_D51_SPI_Indirect_mode/production/_ext/108134065/sample_app.o
                0x200047d4                InputsProcessDataMapping0x1A00

.data.Inputs0x6000%5
                0x200049d8      0x204
 .data.Inputs0x6000
                0x200049d8      0x204 build/LAN9253_D51_SPI_Indirect_mode/production/_ext/108134065/sample_app.o
                0x200049d8                Inputs0x6000

.data.Outputs0x7010%6
                0x20004bdc      0x204
 .data.Outputs0x7010
                0x20004bdc      0x204 build/LAN9253_D51_SPI_Indirect_mode/production/_ext/108134065/sample_app.o
                0x20004bdc                Outputs0x7010

.data.GenObjDic%7
                0x20004de0      0x1e0
 .data.GenObjDic
                0x20004de0      0x1e0 build/LAN9253_D51_SPI_Indirect_mode/production/_ext/108134065/coeappl.o
                0x20004de0                GenObjDic

.data.ApplicationObjDic%8
                0x20004fc0      0x118
 .data.ApplicationObjDic
                0x20004fc0      0x118 build/LAN9253_D51_SPI_Indirect_mode/production/_ext/108134065/coeappl.o
                0x20004fc0                ApplicationObjDic

.bss.drvSPI0TransferObjPool%9
                0x200050d8       0x90
 .bss.drvSPI0TransferObjPool
                0x200050d8       0x90 build/LAN9253_D51_SPI_Indirect_mode/production/_ext/1171490990/initialization.o

.bss.gDrvSPIObj%10
                0x20005168       0x6c
 .bss.gDrvSPIObj
                0x20005168       0x6c build/LAN9253_D51_SPI_Indirect_mode/production/_ext/2070931557/drv_spi.o

.bss.drvSPI0ClientObjPool%11
                0x200051d4       0x28
 .bss.drvSPI0ClientObjPool
                0x200051d4       0x28 build/LAN9253_D51_SPI_Indirect_mode/production/_ext/1171490990/initialization.o

.bss.__malloc_current_mallinfo%12
                0x200051fc       0x28
 .bss.__malloc_current_mallinfo
                0x200051fc       0x28 c:/program files (x86)/microchip/xc32/v2.30/bin/bin/../../lib/gcc/pic32c/6.2.1/../../../../pic32c/lib/v7e-m/fpv4-sp/hard\libc.a(lib_a-mallocr.o)
                0x200051fc                __malloc_current_mallinfo

.data.gau8DummyCntArr%13
                0x20005224       0x27
 .data.gau8DummyCntArr
                0x20005224       0x27 build/LAN9253_D51_SPI_Indirect_mode/production/_ext/108147519/LAN925x.o
                0x20005224                gau8DummyCntArr

.bss.txDummyData%14
                0x20005250       0x20
 .bss.txDummyData
                0x20005250       0x20 build/LAN9253_D51_SPI_Indirect_mode/production/_ext/2070931557/drv_spi.o

.bss._write_back_section%15
                0x20005270       0x20
 .bss._write_back_section
                0x20005270       0x20 build/LAN9253_D51_SPI_Indirect_mode/production/_ext/1865161661/plib_dmac.o

.bss.descriptor_section%16
                0x20005290       0x20
 .bss.descriptor_section
                0x20005290       0x20 build/LAN9253_D51_SPI_Indirect_mode/production/_ext/1865161661/plib_dmac.o

.bss%17         0x200052b0       0x1c
 .bss           0x200052b0       0x1c c:/program files (x86)/microchip/xc32/v2.30/bin/bin/../../lib/gcc/pic32c/6.2.1/v7e-m/fpv4-sp/hard/crtbegin.o

.data.acDevicename%18
                0x200052cc       0x16
 .data.acDevicename
                0x200052cc       0x16 build/LAN9253_D51_SPI_Indirect_mode/production/_ext/108134065/coeappl.o
                0x200052cc                acDevicename

.data.sIdentity%19
                0x200052e4       0x14
 .data.sIdentity
                0x200052e4       0x14 build/LAN9253_D51_SPI_Indirect_mode/production/_ext/108134065/coeappl.o
                0x200052e4                sIdentity

.data.aSubindexDesc%20
                0x200052f8        0xd
 .data.aSubindexDesc
                0x200052f8        0xd build/LAN9253_D51_SPI_Indirect_mode/production/_ext/108134065/objdef.o
                0x200052f8                aSubindexDesc

.data.sErrorSettings%21
                0x20005308        0xc
 .data.sErrorSettings
                0x20005308        0xc build/LAN9253_D51_SPI_Indirect_mode/production/_ext/108134065/objdef.o
                0x20005308                sErrorSettings

.bss.u64Timestamp%22
                0x20005318        0x8
 .bss.u64Timestamp
                0x20005318        0x8 build/LAN9253_D51_SPI_Indirect_mode/production/_ext/108134065/coeappl.o
                0x20005318                u64Timestamp

.data.sSyncmanagertype%23
                0x20005320        0x6
 .data.sSyncmanagertype
                0x20005320        0x6 build/LAN9253_D51_SPI_Indirect_mode/production/_ext/108134065/coeappl.o
                0x20005320                sSyncmanagertype

.data.u32Devicetype%24
                0x20003dac        0x4
 .data.u32Devicetype
                0x20003dac        0x4 build/LAN9253_D51_SPI_Indirect_mode/production/_ext/108134065/coeappl.o
                0x20003dac                u32Devicetype

.data.acHardwareversion%25
                0x20005314        0x4
 .data.acHardwareversion
                0x20005314        0x4 build/LAN9253_D51_SPI_Indirect_mode/production/_ext/108134065/coeappl.o
                0x20005314                acHardwareversion

.data.acSoftwareversion%26
                0x2000524c        0x4
 .data.acSoftwareversion
                0x2000524c        0x4 build/LAN9253_D51_SPI_Indirect_mode/production/_ext/108134065/coeappl.o
                0x2000524c                acSoftwareversion

.bss.ObjDicList%27
                0x20005328        0x4
 .bss.ObjDicList
                0x20005328        0x4 build/LAN9253_D51_SPI_Indirect_mode/production/_ext/108134065/coeappl.o
                0x20005328                ObjDicList

.bss.SMActivate%28
                0x2000532c        0x4
 .bss.SMActivate
                0x2000532c        0x4 build/LAN9253_D51_SPI_Indirect_mode/production/_ext/108134065/ecatslv.o
                0x2000532c                SMActivate

.data.sRxPDOassign%29
                0x20005330        0x4
 .data.sRxPDOassign
                0x20005330        0x4 build/LAN9253_D51_SPI_Indirect_mode/production/_ext/108134065/sample_app.o
                0x20005330                sRxPDOassign

.data.sTxPDOassign%30
                0x20005334        0x4
 .data.sTxPDOassign
                0x20005334        0x4 build/LAN9253_D51_SPI_Indirect_mode/production/_ext/108134065/sample_app.o
                0x20005334                sTxPDOassign

.bss.gTriggerCounterValMeasure%31
                0x20005338        0x4
 .bss.gTriggerCounterValMeasure
                0x20005338        0x4 build/LAN9253_D51_SPI_Indirect_mode/production/_ext/108134065/sample_app.o
                0x20005338                gTriggerCounterValMeasure

.data.gFOETestFrameSize%32
                0x2000533c        0x4
 .data.gFOETestFrameSize
                0x2000533c        0x4 build/LAN9253_D51_SPI_Indirect_mode/production/_ext/108134065/sample_app.o
                0x2000533c                gFOETestFrameSize

.bss.nFileWriteOffset%33
                0x20005340        0x4
 .bss.nFileWriteOffset
                0x20005340        0x4 build/LAN9253_D51_SPI_Indirect_mode/production/_ext/108134065/sample_app.o
                0x20005340                nFileWriteOffset

.bss.nFileStartWriteAddress%34
                0x20005344        0x4
 .bss.nFileStartWriteAddress
                0x20005344        0x4 build/LAN9253_D51_SPI_Indirect_mode/production/_ext/108134065/sample_app.o
                0x20005344                nFileStartWriteAddress

.bss.u32FileSize%35
                0x20005348        0x4
 .bss.u32FileSize
                0x20005348        0x4 build/LAN9253_D51_SPI_Indirect_mode/production/_ext/108134065/sample_app.o
                0x20005348                u32FileSize

.bss.__malloc_max_sbrked_mem%36
                0x2000534c        0x4
 .bss.__malloc_max_sbrked_mem
                0x2000534c        0x4 c:/program files (x86)/microchip/xc32/v2.30/bin/bin/../../lib/gcc/pic32c/6.2.1/../../../../pic32c/lib/v7e-m/fpv4-sp/hard\libc.a(lib_a-mallocr.o)
                0x2000534c                __malloc_max_sbrked_mem

.bss.__malloc_max_total_mem%37
                0x20005350        0x4
 .bss.__malloc_max_total_mem
                0x20005350        0x4 c:/program files (x86)/microchip/xc32/v2.30/bin/bin/../../lib/gcc/pic32c/6.2.1/../../../../pic32c/lib/v7e-m/fpv4-sp/hard\libc.a(lib_a-mallocr.o)
                0x20005350                __malloc_max_total_mem

.bss.__malloc_top_pad%38
                0x20005354        0x4
 .bss.__malloc_top_pad
                0x20005354        0x4 c:/program files (x86)/microchip/xc32/v2.30/bin/bin/../../lib/gcc/pic32c/6.2.1/../../../../pic32c/lib/v7e-m/fpv4-sp/hard\libc.a(lib_a-mallocr.o)
                0x20005354                __malloc_top_pad

.data.__malloc_sbrk_base%39
                0x20005358        0x4
 .data.__malloc_sbrk_base
                0x20005358        0x4 c:/program files (x86)/microchip/xc32/v2.30/bin/bin/../../lib/gcc/pic32c/6.2.1/../../../../pic32c/lib/v7e-m/fpv4-sp/hard\libc.a(lib_a-mallocr.o)
                0x20005358                __malloc_sbrk_base

.data.__malloc_trim_threshold%40
                0x2000535c        0x4
 .data.__malloc_trim_threshold
                0x2000535c        0x4 c:/program files (x86)/microchip/xc32/v2.30/bin/bin/../../lib/gcc/pic32c/6.2.1/../../../../pic32c/lib/v7e-m/fpv4-sp/hard\libc.a(lib_a-mallocr.o)
                0x2000535c                __malloc_trim_threshold

.data._impure_ptr%41
                0x20005360        0x4
 .data._impure_ptr
                0x20005360        0x4 c:/program files (x86)/microchip/xc32/v2.30/bin/bin/../../lib/gcc/pic32c/6.2.1/../../../../pic32c/lib/v7e-m/fpv4-sp/hard\libc.a(lib_a-impure.o)
                0x20005360                _impure_ptr

.bss%42         0x20005364        0x4
 .bss           0x20005364        0x4 c:/program files (x86)/microchip/xc32/v2.30/bin/bin/../../lib/gcc/pic32c/6.2.1/../../../../pic32c/lib/v7e-m/fpv4-sp/hard\libpic32c.a(sbrk.o)

.bss.nvm_error%43
                0x200052e2        0x2
 .bss.nvm_error
                0x200052e2        0x2 build/LAN9253_D51_SPI_Indirect_mode/production/_ext/1593096446/plib_nvmctrl.o

.bss.u16ErrorRegister%44
                0x20005326        0x2
 .bss.u16ErrorRegister
                0x20005326        0x2 build/LAN9253_D51_SPI_Indirect_mode/production/_ext/108134065/coeappl.o
                0x20005326                u16ErrorRegister

.data.gis_Tx_DMAComplete%45
                0x2000524b        0x1
 .data.gis_Tx_DMAComplete
                0x2000524b        0x1 build/LAN9253_D51_SPI_Indirect_mode/production/_ext/2070931557/drv_spi.o
                0x2000524b                gis_Tx_DMAComplete

.data.gis_Rx_DMAComplete%46
                0x20005305        0x1
 .data.gis_Rx_DMAComplete
                0x20005305        0x1 build/LAN9253_D51_SPI_Indirect_mode/production/_ext/2070931557/drv_spi.o
                0x20005305                gis_Rx_DMAComplete

.bss.isLastByteTransferInProgress.9878%47
                0x20005306        0x1
 .bss.isLastByteTransferInProgress.9878
                0x20005306        0x1 build/LAN9253_D51_SPI_Indirect_mode/production/_ext/1865555181/plib_qspi_spi.o

.bss.gchEtherCATQSPITransmission%48
                0x20005307        0x1
 .bss.gchEtherCATQSPITransmission
                0x20005307        0x1 build/LAN9253_D51_SPI_Indirect_mode/production/_ext/1671622979/Drivers.o
                0x20005307                gchEtherCATQSPITransmission

.bss.gbALEvtOpEnabled%49
                0x20005368        0x1
 .bss.gbALEvtOpEnabled
                0x20005368        0x1 build/LAN9253_D51_SPI_Indirect_mode/production/_ext/108147519/LAN925x.o
                0x20005368                gbALEvtOpEnabled

.bss.bInitFinished%50
                0x20005369        0x1
 .bss.bInitFinished
                0x20005369        0x1 build/LAN9253_D51_SPI_Indirect_mode/production/_ext/108134065/ecatappl.o
                0x20005369                bInitFinished

.bss.EepromLoaded%51
                0x2000536a        0x1
 .bss.EepromLoaded
                0x2000536a        0x1 build/LAN9253_D51_SPI_Indirect_mode/production/_ext/108134065/ecatslv.o
                0x2000536a                EepromLoaded

.bss.gFirmwareDownload_Started%52
                0x2000536b        0x1
 .bss.gFirmwareDownload_Started
                0x2000536b        0x1 build/LAN9253_D51_SPI_Indirect_mode/production/_ext/108134065/sample_app.o
                0x2000536b                gFirmwareDownload_Started

.bss.gFirmwareDownload_Finished%53
                0x2000536c        0x1
 .bss.gFirmwareDownload_Finished
                0x2000536c        0x1 build/LAN9253_D51_SPI_Indirect_mode/production/_ext/108134065/sample_app.o
                0x2000536c                gFirmwareDownload_Finished

.bss.bSdoInWork%54
                0x2000536d        0x1
 .bss.bSdoInWork
                0x2000536d        0x1 build/LAN9253_D51_SPI_Indirect_mode/production/_ext/108134065/sdoserv.o
                0x2000536d                bSdoInWork

.eh_frame%z1    0x00000000        0x0
 .eh_frame      0x00000000        0x0 c:/program files (x86)/microchip/xc32/v2.30/bin/bin/../../lib/gcc/pic32c/6.2.1/v7e-m/fpv4-sp/hard/crtbegin.o

.dinit%55       0x00000280     0x1750
 .dinit         0x00000280     0x1750 data_init

.text.StartInputHandler%56
                0x000019d0      0x7e4
 .text.StartInputHandler
                0x000019d0      0x7e4 build/LAN9253_D51_SPI_Indirect_mode/production/_ext/108134065/ecatslv.o
                0x000019d0                StartInputHandler

.text.AL_ControlInd%57
                0x000021b4      0x790
 .text.AL_ControlInd
                0x000021b4      0x790 build/LAN9253_D51_SPI_Indirect_mode/production/_ext/108134065/ecatslv.o
                0x000021b4                AL_ControlInd

.text.OBJ_Write%58
                0x00002944      0x710
 .text.OBJ_Write
                0x00002944      0x710 build/LAN9253_D51_SPI_Indirect_mode/production/_ext/108134065/objdef.o
                0x00002944                OBJ_Write

.rodata.aName0x1601%59
                0x00003054      0x6a0
 .rodata.aName0x1601
                0x00003054      0x6a0 build/LAN9253_D51_SPI_Indirect_mode/production/_ext/108134065/coeappl.o
                0x00003054                aName0x1601

.rodata.aName0x1A00%60
                0x000036f4      0x6a0
 .rodata.aName0x1A00
                0x000036f4      0x6a0 build/LAN9253_D51_SPI_Indirect_mode/production/_ext/108134065/coeappl.o
                0x000036f4                aName0x1A00

.text.OBJ_Read%61
                0x00003d94      0x67c
 .text.OBJ_Read
                0x00003d94      0x67c build/LAN9253_D51_SPI_Indirect_mode/production/_ext/108134065/objdef.o
                0x00003d94                OBJ_Read

.text.SDOS_SdoInd%62
                0x00004410      0x5e4
 .text.SDOS_SdoInd
                0x00004410      0x5e4 build/LAN9253_D51_SPI_Indirect_mode/production/_ext/108134065/sdoserv.o
                0x00004410                SDOS_SdoInd

.rodata.aName0x7010%63
                0x000049f4      0x520
 .rodata.aName0x7010
                0x000049f4      0x520 build/LAN9253_D51_SPI_Indirect_mode/production/_ext/108134065/coeappl.o
                0x000049f4                aName0x7010

.rodata.aName0x6000%64
                0x00004f14      0x51c
 .rodata.aName0x6000
                0x00004f14      0x51c build/LAN9253_D51_SPI_Indirect_mode/production/_ext/108134065/coeappl.o
                0x00004f14                aName0x6000

.text.FOE_ServiceInd%65
                0x00005430      0x488
 .text.FOE_ServiceInd
                0x00005430      0x488 build/LAN9253_D51_SPI_Indirect_mode/production/_ext/108134065/ecatfoe.o
                0x00005430                FOE_ServiceInd

.text._malloc_r%66
                0x000058b8      0x438
 .text._malloc_r
                0x000058b8      0x438 c:/program files (x86)/microchip/xc32/v2.30/bin/bin/../../lib/gcc/pic32c/6.2.1/../../../../pic32c/lib/v7e-m/fpv4-sp/hard\libc.a(lib_a-mallocr.o)
                0x000058b8                _malloc_r

.text.SDOS_SdoInfoInd%67
                0x00005cf0      0x434
 .text.SDOS_SdoInfoInd
                0x00005cf0      0x434 build/LAN9253_D51_SPI_Indirect_mode/production/_ext/108134065/sdoserv.o
                0x00005cf0                SDOS_SdoInfoInd

.text.SdoDownloadSegmentInd%68
                0x00006124      0x3b4
 .text.SdoDownloadSegmentInd
                0x00006124      0x3b4 build/LAN9253_D51_SPI_Indirect_mode/production/_ext/108134065/sdoserv.o

.text.CheckSmSettings%69
                0x000064d8      0x3a0
 .text.CheckSmSettings
                0x000064d8      0x3a0 build/LAN9253_D51_SPI_Indirect_mode/production/_ext/108134065/ecatslv.o
                0x000064d8                CheckSmSettings

.rodata.asEntryDesc0x1601%70
                0x00006878      0x308
 .rodata.asEntryDesc0x1601
                0x00006878      0x308 build/LAN9253_D51_SPI_Indirect_mode/production/_ext/108134065/coeappl.o
                0x00006878                asEntryDesc0x1601

.rodata.asEntryDesc0x1A00%71
                0x00006b80      0x308
 .rodata.asEntryDesc0x1A00
                0x00006b80      0x308 build/LAN9253_D51_SPI_Indirect_mode/production/_ext/108134065/coeappl.o
                0x00006b80                asEntryDesc0x1A00

.rodata.asEntryDesc0x6000%72
                0x00006e88      0x308
 .rodata.asEntryDesc0x6000
                0x00006e88      0x308 build/LAN9253_D51_SPI_Indirect_mode/production/_ext/108134065/coeappl.o
                0x00006e88                asEntryDesc0x6000

.rodata.asEntryDesc0x7010%73
                0x00007190      0x308
 .rodata.asEntryDesc0x7010
                0x00007190      0x308 build/LAN9253_D51_SPI_Indirect_mode/production/_ext/108134065/coeappl.o
                0x00007190                asEntryDesc0x7010

.text.AL_ControlRes%74
                0x00007498      0x2bc
 .text.AL_ControlRes
                0x00007498      0x2bc build/LAN9253_D51_SPI_Indirect_mode/production/_ext/108134065/ecatslv.o
                0x00007498                AL_ControlRes

.text.SdoUploadSegmentInd%75
                0x00007754      0x260
 .text.SdoUploadSegmentInd
                0x00007754      0x260 build/LAN9253_D51_SPI_Indirect_mode/production/_ext/108134065/sdoserv.o

.text._DRV_SPI_StartDMATransfer%76
                0x000079b4      0x20c
 .text._DRV_SPI_StartDMATransfer
                0x000079b4      0x20c build/LAN9253_D51_SPI_Indirect_mode/production/_ext/2070931557/drv_spi.o

.text.SendSmFailedEmergency%77
                0x00007bc0      0x1e0
 .text.SendSmFailedEmergency
                0x00007bc0      0x1e0 build/LAN9253_D51_SPI_Indirect_mode/production/_ext/108134065/ecatslv.o
                0x00007bc0                SendSmFailedEmergency

.text.SdoRes%78
                0x00007da0      0x1bc
 .text.SdoRes   0x00007da0      0x1bc build/LAN9253_D51_SPI_Indirect_mode/production/_ext/108134065/sdoserv.o
                0x00007da0                SdoRes

.text.CheckSyncTypeValue%79
                0x00007f5c      0x1b4
 .text.CheckSyncTypeValue
                0x00007f5c      0x1b4 build/LAN9253_D51_SPI_Indirect_mode/production/_ext/108134065/objdef.o
                0x00007f5c                CheckSyncTypeValue

.text.ECAT_Main%80
                0x00008110      0x1a8
 .text.ECAT_Main
                0x00008110      0x1a8 build/LAN9253_D51_SPI_Indirect_mode/production/_ext/108134065/ecatslv.o
                0x00008110                ECAT_Main

.text.QSPI_Handler%81
                0x000082b8      0x1a0
 .text.QSPI_Handler
                0x000082b8      0x1a0 build/LAN9253_D51_SPI_Indirect_mode/production/_ext/1865555181/plib_qspi_spi.o
                0x000082b8                QSPI_Handler

.text.DRV_SPI_Initialize%82
                0x00008458      0x19c
 .text.DRV_SPI_Initialize
                0x00008458      0x19c build/LAN9253_D51_SPI_Indirect_mode/production/_ext/2070931557/drv_spi.o
                0x00008458                DRV_SPI_Initialize

.text.DRV_SPI_Open%83
                0x000085f4      0x19c
 .text.DRV_SPI_Open
                0x000085f4      0x19c build/LAN9253_D51_SPI_Indirect_mode/production/_ext/2070931557/drv_spi.o
                0x000085f4                DRV_SPI_Open

.text._DRV_SPI_RX_DMA_CallbackHandler%84
                0x00008790      0x190
 .text._DRV_SPI_RX_DMA_CallbackHandler
                0x00008790      0x190 build/LAN9253_D51_SPI_Indirect_mode/production/_ext/2070931557/drv_spi.o
                0x00008790                _DRV_SPI_RX_DMA_CallbackHandler

.text.DRV_SPI_WriteReadTransferAdd%85
                0x00008920      0x17c
 .text.DRV_SPI_WriteReadTransferAdd
                0x00008920      0x17c build/LAN9253_D51_SPI_Indirect_mode/production/_ext/2070931557/drv_spi.o
                0x00008920                DRV_SPI_WriteReadTransferAdd

.text.QSPI_WriteRead%86
                0x00008a9c      0x17c
 .text.QSPI_WriteRead
                0x00008a9c      0x17c build/LAN9253_D51_SPI_Indirect_mode/production/_ext/1865555181/plib_qspi_spi.o
                0x00008a9c                QSPI_WriteRead

.text.OBJ_GetEntryOffset%87
                0x00008c18      0x178
 .text.OBJ_GetEntryOffset
                0x00008c18      0x178 build/LAN9253_D51_SPI_Indirect_mode/production/_ext/108134065/objdef.o
                0x00008c18                OBJ_GetEntryOffset

.text._free_r%88
                0x00008d90      0x178
 .text._free_r  0x00008d90      0x178 c:/program files (x86)/microchip/xc32/v2.30/bin/bin/../../lib/gcc/pic32c/6.2.1/../../../../pic32c/lib/v7e-m/fpv4-sp/hard\libc.a(lib_a-freer.o)
                0x00008d90                _free_r

.text.LAN9252SPI_DMA_FastReadPDRAM%89
                0x00008f08      0x174
 .text.LAN9252SPI_DMA_FastReadPDRAM
                0x00008f08      0x174 build/LAN9253_D51_SPI_Indirect_mode/production/_ext/1671622979/Drivers.o
                0x00008f08                LAN9252SPI_DMA_FastReadPDRAM

.text.APPL_GenerateMapping%90
                0x0000907c      0x174
 .text.APPL_GenerateMapping
                0x0000907c      0x174 build/LAN9253_D51_SPI_Indirect_mode/production/_ext/108134065/sample_app.o
                0x0000907c                APPL_GenerateMapping

.text.ECAT_Init%91
                0x000091f0      0x170
 .text.ECAT_Init
                0x000091f0      0x170 build/LAN9253_D51_SPI_Indirect_mode/production/_ext/108134065/ecatslv.o
                0x000091f0                ECAT_Init

.text.SetALStatus%92
                0x00009360      0x164
 .text.SetALStatus
                0x00009360      0x164 build/LAN9253_D51_SPI_Indirect_mode/production/_ext/108134065/ecatslv.o
                0x00009360                SetALStatus

.text.MBX_CheckAndCopyMailbox%93
                0x000094c4      0x164
 .text.MBX_CheckAndCopyMailbox
                0x000094c4      0x164 build/LAN9253_D51_SPI_Indirect_mode/production/_ext/108134065/mailbox.o
                0x000094c4                MBX_CheckAndCopyMailbox

.text.COE_ObjInit%94
                0x00009628      0x160
 .text.COE_ObjInit
                0x00009628      0x160 build/LAN9253_D51_SPI_Indirect_mode/production/_ext/108134065/coeappl.o
                0x00009628                COE_ObjInit

.text.Sync0_Isr%95
                0x00009788      0x15c
 .text.Sync0_Isr
                0x00009788      0x15c build/LAN9253_D51_SPI_Indirect_mode/production/_ext/108134065/ecatappl.o
                0x00009788                Sync0_Isr

.text.DMAC_ChannelTransfer%96
                0x000098e4      0x154
 .text.DMAC_ChannelTransfer
                0x000098e4      0x154 build/LAN9253_D51_SPI_Indirect_mode/production/_ext/1865161661/plib_dmac.o
                0x000098e4                DMAC_ChannelTransfer

.text.MBX_StopMailboxHandler%97
                0x00009a38      0x154
 .text.MBX_StopMailboxHandler
                0x00009a38      0x154 build/LAN9253_D51_SPI_Indirect_mode/production/_ext/108134065/mailbox.o
                0x00009a38                MBX_StopMailboxHandler

.text.PDI_Isr%98
                0x00009b8c      0x14c
 .text.PDI_Isr  0x00009b8c      0x14c build/LAN9253_D51_SPI_Indirect_mode/production/_ext/108134065/ecatappl.o
                0x00009b8c                PDI_Isr

.text.FoE_WriteData%99
                0x00009cd8      0x148
 .text.FoE_WriteData
                0x00009cd8      0x148 build/LAN9253_D51_SPI_Indirect_mode/production/_ext/108134065/sample_app.o
                0x00009cd8                FoE_WriteData

.text._DRV_SPI_PlibCallbackHandler%100
                0x00009e20      0x13c
 .text._DRV_SPI_PlibCallbackHandler
                0x00009e20      0x13c build/LAN9253_D51_SPI_Indirect_mode/production/_ext/2070931557/drv_spi.o

.text.PDRAMSetAddrLength%101
                0x00009f5c      0x13a
 .text.PDRAMSetAddrLength
                0x00009f5c      0x13a build/LAN9253_D51_SPI_Indirect_mode/production/_ext/1671622979/Drivers.o
                0x00009f5c                PDRAMSetAddrLength

.text.StopInputHandler%102
                0x0000a098      0x12c
 .text.StopInputHandler
                0x0000a098      0x12c build/LAN9253_D51_SPI_Indirect_mode/production/_ext/108134065/ecatslv.o
                0x0000a098                StopInputHandler

.text._DRV_SPI_DisableInterrupts%103
                0x0000a1c4      0x124
 .text._DRV_SPI_DisableInterrupts
                0x0000a1c4      0x124 build/LAN9253_D51_SPI_Indirect_mode/production/_ext/2070931557/drv_spi.o

.text.MBX_MailboxReadInd%104
                0x0000a2e8      0x124
 .text.MBX_MailboxReadInd
                0x0000a2e8      0x124 build/LAN9253_D51_SPI_Indirect_mode/production/_ext/108134065/mailbox.o
                0x0000a2e8                MBX_MailboxReadInd

.text.OBJ_GetObjectLength%105
                0x0000a40c      0x124
 .text.OBJ_GetObjectLength
                0x0000a40c      0x124 build/LAN9253_D51_SPI_Indirect_mode/production/_ext/108134065/objdef.o
                0x0000a40c                OBJ_GetObjectLength

.text.SDOS_SdoRes%106
                0x0000a530      0x124
 .text.SDOS_SdoRes
                0x0000a530      0x124 build/LAN9253_D51_SPI_Indirect_mode/production/_ext/108134065/sdoserv.o
                0x0000a530                SDOS_SdoRes

.text.DC_CheckWatchdog%107
                0x0000a654      0x120
 .text.DC_CheckWatchdog
                0x0000a654      0x120 build/LAN9253_D51_SPI_Indirect_mode/production/_ext/108134065/ecatslv.o
                0x0000a654                DC_CheckWatchdog

.text.OBJ_GetDesc%108
                0x0000a774      0x120
 .text.OBJ_GetDesc
                0x0000a774      0x120 build/LAN9253_D51_SPI_Indirect_mode/production/_ext/108134065/objdef.o
                0x0000a774                OBJ_GetDesc

.text._DRV_SPI_EnableInterrupts%109
                0x0000a894      0x116
 .text._DRV_SPI_EnableInterrupts
                0x0000a894      0x116 build/LAN9253_D51_SPI_Indirect_mode/production/_ext/2070931557/drv_spi.o

.text.ReBuild_SPI_SetCfg_data%110
                0x0000a9ac      0x114
 .text.ReBuild_SPI_SetCfg_data
                0x0000a9ac      0x114 build/LAN9253_D51_SPI_Indirect_mode/production/_ext/1671622979/Drivers.o
                0x0000a9ac                ReBuild_SPI_SetCfg_data

.text.MBX_StartMailboxHandler%111
                0x0000aac0      0x114
 .text.MBX_StartMailboxHandler
                0x0000aac0      0x114 build/LAN9253_D51_SPI_Indirect_mode/production/_ext/108134065/mailbox.o
                0x0000aac0                MBX_StartMailboxHandler

.text.LAN925x_Init%112
                0x0000abd4      0x10c
 .text.LAN925x_Init
                0x0000abd4      0x10c build/LAN9253_D51_SPI_Indirect_mode/production/_ext/108147519/LAN925x.o
                0x0000abd4                LAN925x_Init

.text.MBX_CopyToSendMailbox%113
                0x0000ace0      0x10c
 .text.MBX_CopyToSendMailbox
                0x0000ace0      0x10c build/LAN9253_D51_SPI_Indirect_mode/production/_ext/108134065/mailbox.o
                0x0000ace0                MBX_CopyToSendMailbox

.rodata.aName0x1C32%114
                0x0000adec      0x100
 .rodata.aName0x1C32
                0x0000adec      0x100 build/LAN9253_D51_SPI_Indirect_mode/production/_ext/108134065/coeappl.o
                0x0000adec                aName0x1C32

.rodata.aName0x1C33%115
                0x0000aeec      0x100
 .rodata.aName0x1C33
                0x0000aeec      0x100 build/LAN9253_D51_SPI_Indirect_mode/production/_ext/108134065/coeappl.o
                0x0000aeec                aName0x1C33

.text.MainInit%116
                0x0000afec      0x100
 .text.MainInit
                0x0000afec      0x100 build/LAN9253_D51_SPI_Indirect_mode/production/_ext/108134065/ecatappl.o
                0x0000afec                MainInit

.text.MBX_Init%117
                0x0000b0ec      0x100
 .text.MBX_Init
                0x0000b0ec      0x100 build/LAN9253_D51_SPI_Indirect_mode/production/_ext/108134065/mailbox.o
                0x0000b0ec                MBX_Init

.text.HW_EscWrite%118
                0x0000b1ec       0xf8
 .text.HW_EscWrite
                0x0000b1ec       0xf8 build/LAN9253_D51_SPI_Indirect_mode/production/_ext/108147519/LAN925x.o
                0x0000b1ec                HW_EscWrite

.text.OBJ_GetObjectList%119
                0x0000b2e4       0xf8
 .text.OBJ_GetObjectList
                0x0000b2e4       0xf8 build/LAN9253_D51_SPI_Indirect_mode/production/_ext/108134065/objdef.o
                0x0000b2e4                OBJ_GetObjectList

.text.HW_EscRead%120
                0x0000b3dc       0xf6
 .text.HW_EscRead
                0x0000b3dc       0xf6 build/LAN9253_D51_SPI_Indirect_mode/production/_ext/108147519/LAN925x.o
                0x0000b3dc                HW_EscRead

.text.MBX_MailboxWriteInd%121
                0x0000b4d4       0xf4
 .text.MBX_MailboxWriteInd
                0x0000b4d4       0xf4 build/LAN9253_D51_SPI_Indirect_mode/production/_ext/108134065/mailbox.o
                0x0000b4d4                MBX_MailboxWriteInd

.text.MainLoop%122
                0x0000b5c8       0xec
 .text.MainLoop
                0x0000b5c8       0xec build/LAN9253_D51_SPI_Indirect_mode/production/_ext/108134065/ecatappl.o
                0x0000b5c8                MainLoop

.text.LAN9252SPI_DMA_WritePDRAM%123
                0x0000b6b4       0xe8
 .text.LAN9252SPI_DMA_WritePDRAM
                0x0000b6b4       0xe8 build/LAN9253_D51_SPI_Indirect_mode/production/_ext/1671622979/Drivers.o
                0x0000b6b4                LAN9252SPI_DMA_WritePDRAM

.text.COE_AddObjectToDic%124
                0x0000b79c       0xe8
 .text.COE_AddObjectToDic
                0x0000b79c       0xe8 build/LAN9253_D51_SPI_Indirect_mode/production/_ext/108134065/coeappl.o
                0x0000b79c                COE_AddObjectToDic

.text.COE_Main%125
                0x0000b884       0xe8
 .text.COE_Main
                0x0000b884       0xe8 build/LAN9253_D51_SPI_Indirect_mode/production/_ext/108134065/coeappl.o
                0x0000b884                COE_Main

.text.EIC_Initialize%126
                0x0000b96c       0xe4
 .text.EIC_Initialize
                0x0000b96c       0xe4 build/LAN9253_D51_SPI_Indirect_mode/production/_ext/60167341/plib_eic.o
                0x0000b96c                EIC_Initialize

.text.MBX_MailboxSendReq%127
                0x0000ba50       0xdc
 .text.MBX_MailboxSendReq
                0x0000ba50       0xdc build/LAN9253_D51_SPI_Indirect_mode/production/_ext/108134065/mailbox.o
                0x0000ba50                MBX_MailboxSendReq

.text._DRV_SPI_FreeTransferObjGet%128
                0x0000bb2c       0xd4
 .text._DRV_SPI_FreeTransferObjGet
                0x0000bb2c       0xd4 build/LAN9253_D51_SPI_Indirect_mode/production/_ext/2070931557/drv_spi.o

.text.DMAC_Initialize%129
                0x0000bc00       0xcc
 .text.DMAC_Initialize
                0x0000bc00       0xcc build/LAN9253_D51_SPI_Indirect_mode/production/_ext/1865161661/plib_dmac.o
                0x0000bc00                DMAC_Initialize

.text.SODS_ClearPendingResponse%130
                0x0000bccc       0xcc
 .text.SODS_ClearPendingResponse
                0x0000bccc       0xcc build/LAN9253_D51_SPI_Indirect_mode/production/_ext/108134065/sdoserv.o
                0x0000bccc                SODS_ClearPendingResponse

.text.DRV_SPI_TransferSetup%131
                0x0000bd98       0xc8
 .text.DRV_SPI_TransferSetup
                0x0000bd98       0xc8 build/LAN9253_D51_SPI_Indirect_mode/production/_ext/2070931557/drv_spi.o
                0x0000bd98                DRV_SPI_TransferSetup

.rodata.asEntryDesc0x1C3x%132
                0x0000be60       0xc8
 .rodata.asEntryDesc0x1C3x
                0x0000be60       0xc8 build/LAN9253_D51_SPI_Indirect_mode/production/_ext/108134065/coeappl.o
                0x0000be60                asEntryDesc0x1C3x

.text.GetDummyBytesRequired%133
                0x0000bf28       0xc6
 .text.GetDummyBytesRequired
                0x0000bf28       0xc6 build/LAN9253_D51_SPI_Indirect_mode/production/_ext/108147519/ESC_Utils.o
                0x0000bf28                GetDummyBytesRequired

.text.FoE_Read%134
                0x0000bff0       0xbc
 .text.FoE_Read
                0x0000bff0       0xbc build/LAN9253_D51_SPI_Indirect_mode/production/_ext/108134065/sample_app.o
                0x0000bff0                FoE_Read

.text.LAN9252SPI_DMA_FastRead%135
                0x0000c0ac       0xb8
 .text.LAN9252SPI_DMA_FastRead
                0x0000c0ac       0xb8 build/LAN9253_D51_SPI_Indirect_mode/production/_ext/1671622979/Drivers.o
                0x0000c0ac                LAN9252SPI_DMA_FastRead

.text.MBX_Main%136
                0x0000c164       0xb8
 .text.MBX_Main
                0x0000c164       0xb8 build/LAN9253_D51_SPI_Indirect_mode/production/_ext/108134065/mailbox.o
                0x0000c164                MBX_Main

.text._DRV_SPI_UpdateTransferSetupAndAssertCS%137
                0x0000c21c       0xb4
 .text._DRV_SPI_UpdateTransferSetupAndAssertCS
                0x0000c21c       0xb4 build/LAN9253_D51_SPI_Indirect_mode/production/_ext/2070931557/drv_spi.o

.text.LAN9252SPI_DMA_Read%138
                0x0000c2d0       0xb0
 .text.LAN9252SPI_DMA_Read
                0x0000c2d0       0xb0 build/LAN9253_D51_SPI_Indirect_mode/production/_ext/1671622979/Drivers.o
                0x0000c2d0                LAN9252SPI_DMA_Read

.text.PDO_OutputMapping%139
                0x0000c380       0xb0
 .text.PDO_OutputMapping
                0x0000c380       0xb0 build/LAN9253_D51_SPI_Indirect_mode/production/_ext/108134065/ecatappl.o
                0x0000c380                PDO_OutputMapping

.text.ECAT_CheckTimer%140
                0x0000c430       0xb0
 .text.ECAT_CheckTimer
                0x0000c430       0xb0 build/LAN9253_D51_SPI_Indirect_mode/production/_ext/108134065/ecatappl.o
                0x0000c430                ECAT_CheckTimer

.text.EMCY_Init%141
                0x0000c4e0       0xa8
 .text.EMCY_Init
                0x0000c4e0       0xa8 build/LAN9253_D51_SPI_Indirect_mode/production/_ext/108134065/emcy.o
                0x0000c4e0                EMCY_Init

.text.EscWrite%142
                0x0000c588       0xa4
 .text.EscWrite
                0x0000c588       0xa4 build/LAN9253_D51_SPI_Indirect_mode/production/_ext/108147519/LAN925x.o
                0x0000c588                EscWrite

.text.EMCY_SendEmergency%143
                0x0000c62c       0xa4
 .text.EMCY_SendEmergency
                0x0000c62c       0xa4 build/LAN9253_D51_SPI_Indirect_mode/production/_ext/108134065/emcy.o
                0x0000c62c                EMCY_SendEmergency

.text.EscRead%144
                0x0000c6d0       0xa2
 .text.EscRead  0x0000c6d0       0xa2 build/LAN9253_D51_SPI_Indirect_mode/production/_ext/108147519/LAN925x.o
                0x0000c6d0                EscRead

.text._DRV_SPI_DriverHandleValidate%145
                0x0000c774       0x9c
 .text._DRV_SPI_DriverHandleValidate
                0x0000c774       0x9c build/LAN9253_D51_SPI_Indirect_mode/production/_ext/2070931557/drv_spi.o

.text._DMAC_interruptHandler%146
                0x0000c810       0x9c
 .text._DMAC_interruptHandler
                0x0000c810       0x9c build/LAN9253_D51_SPI_Indirect_mode/production/_ext/1865161661/plib_dmac.o
                0x0000c810                _DMAC_interruptHandler

.text.LAN9252SPI_DMA_Write%147
                0x0000c8ac       0x9c
 .text.LAN9252SPI_DMA_Write
                0x0000c8ac       0x9c build/LAN9253_D51_SPI_Indirect_mode/production/_ext/1671622979/Drivers.o
                0x0000c8ac                LAN9252SPI_DMA_Write

.text.COE_SyncTimeStamp%148
                0x0000c948       0x9c
 .text.COE_SyncTimeStamp
                0x0000c948       0x9c build/LAN9253_D51_SPI_Indirect_mode/production/_ext/108134065/coeappl.o
                0x0000c948                COE_SyncTimeStamp

.text.QSPI_TransferSetup%149
                0x0000c9e4       0x98
 .text.QSPI_TransferSetup
                0x0000c9e4       0x98 build/LAN9253_D51_SPI_Indirect_mode/production/_ext/1865555181/plib_qspi_spi.o
                0x0000c9e4                QSPI_TransferSetup

.text.OBJ_GetNoOfObjects%150
                0x0000ca7c       0x98
 .text.OBJ_GetNoOfObjects
                0x0000ca7c       0x98 build/LAN9253_D51_SPI_Indirect_mode/production/_ext/108134065/objdef.o
                0x0000ca7c                OBJ_GetNoOfObjects

.text.RoundUpMultipleOf%151
                0x0000cb14       0x96
 .text.RoundUpMultipleOf
                0x0000cb14       0x96 build/LAN9253_D51_SPI_Indirect_mode/production/_ext/108147519/ESC_Utils.o

.text.PDO_InputMapping%152
                0x0000cbac       0x94
 .text.PDO_InputMapping
                0x0000cbac       0x94 build/LAN9253_D51_SPI_Indirect_mode/production/_ext/108134065/ecatappl.o
                0x0000cbac                PDO_InputMapping

.text.OBJ_CopyNumberToString%153
                0x0000cc40       0x94
 .text.OBJ_CopyNumberToString
                0x0000cc40       0x94 build/LAN9253_D51_SPI_Indirect_mode/production/_ext/108134065/objdef.o
                0x0000cc40                OBJ_CopyNumberToString

.text.FoE_Write%154
                0x0000ccd4       0x94
 .text.FoE_Write
                0x0000ccd4       0x94 build/LAN9253_D51_SPI_Indirect_mode/production/_ext/108134065/sample_app.o
                0x0000ccd4                FoE_Write

.text._malloc_trim_r%155
                0x0000cd68       0x94
 .text._malloc_trim_r
                0x0000cd68       0x94 c:/program files (x86)/microchip/xc32/v2.30/bin/bin/../../lib/gcc/pic32c/6.2.1/../../../../pic32c/lib/v7e-m/fpv4-sp/hard\libc.a(lib_a-freer.o)
                0x0000cd68                _malloc_trim_r

.text._DRV_SPI_TX_DMA_CallbackHandler%156
                0x0000cdfc       0x90
 .text._DRV_SPI_TX_DMA_CallbackHandler
                0x0000cdfc       0x90 build/LAN9253_D51_SPI_Indirect_mode/production/_ext/2070931557/drv_spi.o
                0x0000cdfc                _DRV_SPI_TX_DMA_CallbackHandler

.text._SPI_initialize%157
                0x0000ce8c       0x88
 .text._SPI_initialize
                0x0000ce8c       0x88 build/LAN9253_D51_SPI_Indirect_mode/production/_ext/2070931557/drv_spi.o
                0x0000ce8c                _SPI_initialize

.text.COE_RemoveDicEntry%158
                0x0000cf14       0x80
 .text.COE_RemoveDicEntry
                0x0000cf14       0x80 build/LAN9253_D51_SPI_Indirect_mode/production/_ext/108134065/coeappl.o
                0x0000cf14                COE_RemoveDicEntry

.text.__pic32c_data_initialization%159
                0x0000cf94       0x80
 .text.__pic32c_data_initialization
                0x0000cf94       0x80 c:/program files (x86)/microchip/xc32/v2.30/bin/bin/../../lib/gcc/pic32c/6.2.1/../../../../pic32c/lib/v7e-m/fpv4-sp/hard\libpic32c.a(data_init.o)
                0x0000cf94                __pic32c_data_initialization

.text.HandleCycleTimeMeasurement%160
                0x0000d014       0x7c
 .text.HandleCycleTimeMeasurement
                0x0000d014       0x7c build/LAN9253_D51_SPI_Indirect_mode/production/_ext/108134065/ecatappl.o
                0x0000d014                HandleCycleTimeMeasurement

.text.MBX_MailboxRepeatReq%161
                0x0000d090       0x7c
 .text.MBX_MailboxRepeatReq
                0x0000d090       0x7c build/LAN9253_D51_SPI_Indirect_mode/production/_ext/108134065/mailbox.o
                0x0000d090                MBX_MailboxRepeatReq

.text.PORT_Initialize%162
                0x0000d10c       0x78
 .text.PORT_Initialize
                0x0000d10c       0x78 build/LAN9253_D51_SPI_Indirect_mode/production/_ext/1865521619/plib_port.o
                0x0000d10c                PORT_Initialize

.rodata.cAbortCode%163
                0x0000d184       0x78
 .rodata.cAbortCode
                0x0000d184       0x78 build/LAN9253_D51_SPI_Indirect_mode/production/_ext/108134065/sdoserv.o
                0x0000d184                cAbortCode

.text.APP_FlashWrite%164
                0x0000d1fc       0x78
 .text.APP_FlashWrite
                0x0000d1fc       0x78 build/LAN9253_D51_SPI_Indirect_mode/production/_ext/1360937237/app.o
                0x0000d1fc                APP_FlashWrite

.text.COE_ServiceInd%165
                0x0000d274       0x74
 .text.COE_ServiceInd
                0x0000d274       0x74 build/LAN9253_D51_SPI_Indirect_mode/production/_ext/108134065/ecatcoe.o
                0x0000d274                COE_ServiceInd

.text.StartOutputHandler%166
                0x0000d2e8       0x74
 .text.StartOutputHandler
                0x0000d2e8       0x74 build/LAN9253_D51_SPI_Indirect_mode/production/_ext/108134065/ecatslv.o
                0x0000d2e8                StartOutputHandler

.text.NVIC_Initialize%167
                0x0000d35c       0x72
 .text.NVIC_Initialize
                0x0000d35c       0x72 build/LAN9253_D51_SPI_Indirect_mode/production/_ext/1865468468/plib_nvic.o
                0x0000d35c                NVIC_Initialize

.text.GetSystemTimeDelay%168
                0x0000d3d0       0x70
 .text.GetSystemTimeDelay
                0x0000d3d0       0x70 build/LAN9253_D51_SPI_Indirect_mode/production/_ext/108134065/ecatappl.o
                0x0000d3d0                GetSystemTimeDelay

.text.DRV_SPI_TransferEventHandlerSet%169
                0x0000d440       0x6c
 .text.DRV_SPI_TransferEventHandlerSet
                0x0000d440       0x6c build/LAN9253_D51_SPI_Indirect_mode/production/_ext/2070931557/drv_spi.o
                0x0000d440                DRV_SPI_TransferEventHandlerSet

.text.FDPLL0_Initialize%170
                0x0000d4ac       0x6c
 .text.FDPLL0_Initialize
                0x0000d4ac       0x6c build/LAN9253_D51_SPI_Indirect_mode/production/_ext/1984496892/plib_clock.o

.text.FOE_Data%171
                0x0000d518       0x6c
 .text.FOE_Data
                0x0000d518       0x6c build/LAN9253_D51_SPI_Indirect_mode/production/_ext/108134065/foeappl.o
                0x0000d518                FOE_Data

.text.DMAC_ChannelSettingsSet%172
                0x0000d584       0x68
 .text.DMAC_ChannelSettingsSet
                0x0000d584       0x68 build/LAN9253_D51_SPI_Indirect_mode/production/_ext/1865161661/plib_dmac.o
                0x0000d584                DMAC_ChannelSettingsSet

.text.NVMCTRL_PageWrite%173
                0x0000d5ec       0x68
 .text.NVMCTRL_PageWrite
                0x0000d5ec       0x68 build/LAN9253_D51_SPI_Indirect_mode/production/_ext/1593096446/plib_nvmctrl.o
                0x0000d5ec                NVMCTRL_PageWrite

.text.COE_UpdateSyncErrorStatus%174
                0x0000d654       0x68
 .text.COE_UpdateSyncErrorStatus
                0x0000d654       0x68 build/LAN9253_D51_SPI_Indirect_mode/production/_ext/108134065/coeappl.o
                0x0000d654                COE_UpdateSyncErrorStatus

.text.MailboxServiceInd%175
                0x0000d6bc       0x68
 .text.MailboxServiceInd
                0x0000d6bc       0x68 build/LAN9253_D51_SPI_Indirect_mode/production/_ext/108134065/mailbox.o
                0x0000d6bc                MailboxServiceInd

.text._APP_MyTransferEventHandler%176
                0x0000d724       0x64
 .text._APP_MyTransferEventHandler
                0x0000d724       0x64 build/LAN9253_D51_SPI_Indirect_mode/production/_ext/2070931557/drv_spi.o
                0x0000d724                _APP_MyTransferEventHandler

.text.SPI_SetConfiguration%177
                0x0000d788       0x64
 .text.SPI_SetConfiguration
                0x0000d788       0x64 build/LAN9253_D51_SPI_Indirect_mode/production/_ext/1671622979/Drivers.o
                0x0000d788                SPI_SetConfiguration

.text.ECAT_CheckWatchdog%178
                0x0000d7ec       0x64
 .text.ECAT_CheckWatchdog
                0x0000d7ec       0x64 build/LAN9253_D51_SPI_Indirect_mode/production/_ext/108134065/ecatslv.o
                0x0000d7ec                ECAT_CheckWatchdog

.text.BL_FOE_Application%179
                0x0000d850       0x64
 .text.BL_FOE_Application
                0x0000d850       0x64 build/LAN9253_D51_SPI_Indirect_mode/production/_ext/108134065/sample_app.o
                0x0000d850                BL_FOE_Application

.text.APPL_Application%180
                0x0000d8b4       0x64
 .text.APPL_Application
                0x0000d8b4       0x64 build/LAN9253_D51_SPI_Indirect_mode/production/_ext/108134065/sample_app.o
                0x0000d8b4                APPL_Application

.text.DRV_SPIReceive%181
                0x0000d918       0x60
 .text.DRV_SPIReceive
                0x0000d918       0x60 build/LAN9253_D51_SPI_Indirect_mode/production/_ext/2070931557/drv_spi.o
                0x0000d918                DRV_SPIReceive

.text.DRV_SPITransfer%182
                0x0000d978       0x60
 .text.DRV_SPITransfer
                0x0000d978       0x60 build/LAN9253_D51_SPI_Indirect_mode/production/_ext/2070931557/drv_spi.o
                0x0000d978                DRV_SPITransfer

.text.DmaBuffsizeCalculate%183
                0x0000d9d8       0x5e
 .text.DmaBuffsizeCalculate
                0x0000d9d8       0x5e build/LAN9253_D51_SPI_Indirect_mode/production/_ext/1671622979/Drivers.o
                0x0000d9d8                DmaBuffsizeCalculate

.text.EIC_CallbackRegister%184
                0x0000da38       0x5c
 .text.EIC_CallbackRegister
                0x0000da38       0x5c build/LAN9253_D51_SPI_Indirect_mode/production/_ext/60167341/plib_eic.o
                0x0000da38                EIC_CallbackRegister

.text.Reset_Handler%185
                0x0000da94       0x5c
 .text.Reset_Handler
                0x0000da94       0x5c build/LAN9253_D51_SPI_Indirect_mode/production/_ext/1171490990/startup_xc32.o
                0x0000da94                Reset_Handler

.text.HW_GetALEventRegister%186
                0x0000daf0       0x5c
 .text.HW_GetALEventRegister
                0x0000daf0       0x5c build/LAN9253_D51_SPI_Indirect_mode/production/_ext/108147519/LAN925x.o
                0x0000daf0                HW_GetALEventRegister

.text.Read0x10F8%187
                0x0000db4c       0x5c
 .text.Read0x10F8
                0x0000db4c       0x5c build/LAN9253_D51_SPI_Indirect_mode/production/_ext/108134065/coeappl.o
                0x0000db4c                Read0x10F8

.text.COE_ContinueInd%188
                0x0000dba8       0x5c
 .text.COE_ContinueInd
                0x0000dba8       0x5c build/LAN9253_D51_SPI_Indirect_mode/production/_ext/108134065/ecatcoe.o
                0x0000dba8                COE_ContinueInd

.text.GetOutOfEmptyEmcyQueue%189
                0x0000dc04       0x5c
 .text.GetOutOfEmptyEmcyQueue
                0x0000dc04       0x5c build/LAN9253_D51_SPI_Indirect_mode/production/_ext/108134065/emcy.o
                0x0000dc04                GetOutOfEmptyEmcyQueue

.text.GetOutOfSendEmcyQueue%190
                0x0000dc60       0x5c
 .text.GetOutOfSendEmcyQueue
                0x0000dc60       0x5c build/LAN9253_D51_SPI_Indirect_mode/production/_ext/108134065/emcy.o
                0x0000dc60                GetOutOfSendEmcyQueue

.text.FoE_ReadData%191
                0x0000dcbc       0x5c
 .text.FoE_ReadData
                0x0000dcbc       0x5c build/LAN9253_D51_SPI_Indirect_mode/production/_ext/108134065/sample_app.o
                0x0000dcbc                FoE_ReadData

.text.APP_Tasks%192
                0x0000dd18       0x5c
 .text.APP_Tasks
                0x0000dd18       0x5c build/LAN9253_D51_SPI_Indirect_mode/production/_ext/1360937237/app.o
                0x0000dd18                APP_Tasks

.text._DRV_SPI_TransferObjAddToList%193
                0x0000dd74       0x5a
 .text._DRV_SPI_TransferObjAddToList
                0x0000dd74       0x5a build/LAN9253_D51_SPI_Indirect_mode/production/_ext/2070931557/drv_spi.o

.text.GetOutOfMbxQueue%194
                0x0000ddce       0x58
 .text.GetOutOfMbxQueue
                0x0000ddce       0x58 build/LAN9253_D51_SPI_Indirect_mode/production/_ext/108134065/mailbox.o
                0x0000ddce                GetOutOfMbxQueue

.text.OBJ_GetEntryDesc%195
                0x0000de26       0x58
 .text.OBJ_GetEntryDesc
                0x0000de26       0x58 build/LAN9253_D51_SPI_Indirect_mode/production/_ext/108134065/objdef.o
                0x0000de26                OBJ_GetEntryDesc

.text.CLOCK_Initialize%196
                0x0000de80       0x54
 .text.CLOCK_Initialize
                0x0000de80       0x54 build/LAN9253_D51_SPI_Indirect_mode/production/_ext/1984496892/plib_clock.o
                0x0000de80                CLOCK_Initialize

.text.__NVIC_SetPriority%197
                0x0000ded4       0x54
 .text.__NVIC_SetPriority
                0x0000ded4       0x54 build/LAN9253_D51_SPI_Indirect_mode/production/_ext/1865468468/plib_nvic.o

.text.ESF_PDI_Init%198
                0x0000df28       0x54
 .text.ESF_PDI_Init
                0x0000df28       0x54 build/LAN9253_D51_SPI_Indirect_mode/production/_ext/1671622979/Drivers.o
                0x0000df28                ESF_PDI_Init

.text.HW_GetALEventRegister_Isr%199
                0x0000df7c       0x54
 .text.HW_GetALEventRegister_Isr
                0x0000df7c       0x54 build/LAN9253_D51_SPI_Indirect_mode/production/_ext/108147519/LAN925x.o
                0x0000df7c                HW_GetALEventRegister_Isr

.text.PutInMbxQueue%200
                0x0000dfd0       0x52
 .text.PutInMbxQueue
                0x0000dfd0       0x52 build/LAN9253_D51_SPI_Indirect_mode/production/_ext/108134065/mailbox.o
                0x0000dfd0                PutInMbxQueue

.text._SPI_Rx%201
                0x0000e024       0x50
 .text._SPI_Rx  0x0000e024       0x50 build/LAN9253_D51_SPI_Indirect_mode/production/_ext/2070931557/drv_spi.o
                0x0000e024                _SPI_Rx

.text._SPI_Tx%202
                0x0000e074       0x50
 .text._SPI_Tx  0x0000e074       0x50 build/LAN9253_D51_SPI_Indirect_mode/production/_ext/2070931557/drv_spi.o
                0x0000e074                _SPI_Tx

.text.SYS_Initialize%203
                0x0000e0c4       0x50
 .text.SYS_Initialize
                0x0000e0c4       0x50 build/LAN9253_D51_SPI_Indirect_mode/production/_ext/1171490990/initialization.o
                0x0000e0c4                SYS_Initialize

.text.UpdateEEPROMLoadedState%204
                0x0000e114       0x4c
 .text.UpdateEEPROMLoadedState
                0x0000e114       0x4c build/LAN9253_D51_SPI_Indirect_mode/production/_ext/108134065/ecatslv.o
                0x0000e114                UpdateEEPROMLoadedState

.text.DisableSyncManChannel%205
                0x0000e160       0x4c
 .text.DisableSyncManChannel
                0x0000e160       0x4c build/LAN9253_D51_SPI_Indirect_mode/production/_ext/108134065/ecatslv.o
                0x0000e160                DisableSyncManChannel

.text.CheckIfEcatError%206
                0x0000e1ac       0x4c
 .text.CheckIfEcatError
                0x0000e1ac       0x4c build/LAN9253_D51_SPI_Indirect_mode/production/_ext/108134065/ecatslv.o
                0x0000e1ac                CheckIfEcatError

.text._DRV_SPI_ResourceLock%207
                0x0000e1f8       0x4a
 .text._DRV_SPI_ResourceLock
                0x0000e1f8       0x4a build/LAN9253_D51_SPI_Indirect_mode/production/_ext/2070931557/drv_spi.o

.text.HW_EscReadIsr%208
                0x0000e242       0x4a
 .text.HW_EscReadIsr
                0x0000e242       0x4a build/LAN9253_D51_SPI_Indirect_mode/production/_ext/108147519/LAN925x.o
                0x0000e242                HW_EscReadIsr

.text.HW_EscWriteIsr%209
                0x0000e28c       0x4a
 .text.HW_EscWriteIsr
                0x0000e28c       0x4a build/LAN9253_D51_SPI_Indirect_mode/production/_ext/108147519/LAN925x.o
                0x0000e28c                HW_EscWriteIsr

.text.EnableSyncManChannel%210
                0x0000e2d6       0x4a
 .text.EnableSyncManChannel
                0x0000e2d6       0x4a build/LAN9253_D51_SPI_Indirect_mode/production/_ext/108134065/ecatslv.o
                0x0000e2d6                EnableSyncManChannel

.text.__NVIC_SetPriorityGrouping%211
                0x0000e320       0x48
 .text.__NVIC_SetPriorityGrouping
                0x0000e320       0x48 build/LAN9253_D51_SPI_Indirect_mode/production/_ext/1865468468/plib_nvic.o

.text.FOE_Read%212
                0x0000e368       0x48
 .text.FOE_Read
                0x0000e368       0x48 build/LAN9253_D51_SPI_Indirect_mode/production/_ext/108134065/foeappl.o
                0x0000e368                FOE_Read

.text.__libc_init_array%213
                0x0000e3b0       0x48
 .text.__libc_init_array
                0x0000e3b0       0x48 c:/program files (x86)/microchip/xc32/v2.30/bin/bin/../../lib/gcc/pic32c/6.2.1/../../../../pic32c/lib/v7e-m/fpv4-sp/hard\libc.a(lib_a-init.o)
                0x0000e3b0                __libc_init_array

.text.SYS_DMA_AddressingModeSetup%214
                0x0000e3f8       0x46
 .text.SYS_DMA_AddressingModeSetup
                0x0000e3f8       0x46 build/LAN9253_D51_SPI_Indirect_mode/production/_ext/14461671/sys_dma.o
                0x0000e3f8                SYS_DMA_AddressingModeSetup

.text.ResetALEventMask%215
                0x0000e43e       0x46
 .text.ResetALEventMask
                0x0000e43e       0x46 build/LAN9253_D51_SPI_Indirect_mode/production/_ext/108134065/ecatslv.o
                0x0000e43e                ResetALEventMask

.text.SetALEventMask%216
                0x0000e484       0x46
 .text.SetALEventMask
                0x0000e484       0x46 build/LAN9253_D51_SPI_Indirect_mode/production/_ext/108134065/ecatslv.o
                0x0000e484                SetALEventMask

.text._DRV_SPI_RemoveTransferObjFromList%217
                0x0000e4ca       0x44
 .text._DRV_SPI_RemoveTransferObjFromList
                0x0000e4ca       0x44 build/LAN9253_D51_SPI_Indirect_mode/production/_ext/2070931557/drv_spi.o

.text.GCLK0_Initialize%218
                0x0000e510       0x44
 .text.GCLK0_Initialize
                0x0000e510       0x44 build/LAN9253_D51_SPI_Indirect_mode/production/_ext/1984496892/plib_clock.o

.text.__NVIC_DisableIRQ%219
                0x0000e554       0x44
 .text.__NVIC_DisableIRQ
                0x0000e554       0x44 build/LAN9253_D51_SPI_Indirect_mode/production/_ext/1881668453/sys_int.o

.text.SYS_INT_SourceDisable%220
                0x0000e598       0x44
 .text.SYS_INT_SourceDisable
                0x0000e598       0x44 build/LAN9253_D51_SPI_Indirect_mode/production/_ext/1881668453/sys_int.o
                0x0000e598                SYS_INT_SourceDisable

.text.FPU_Enable%221
                0x0000e5dc       0x44
 .text.FPU_Enable
                0x0000e5dc       0x44 build/LAN9253_D51_SPI_Indirect_mode/production/_ext/1171490990/startup_xc32.o

.text.ESC_BYTE_TEST_Register_Read%222
                0x0000e620       0x44
 .text.ESC_BYTE_TEST_Register_Read
                0x0000e620       0x44 build/LAN9253_D51_SPI_Indirect_mode/production/_ext/1671622979/Drivers.o
                0x0000e620                ESC_BYTE_TEST_Register_Read

.text.COE_ObjDictionaryInit%223
                0x0000e664       0x44
 .text.COE_ObjDictionaryInit
                0x0000e664       0x44 build/LAN9253_D51_SPI_Indirect_mode/production/_ext/108134065/coeappl.o
                0x0000e664                COE_ObjDictionaryInit

.text.Sync1_Isr%224
                0x0000e6a8       0x44
 .text.Sync1_Isr
                0x0000e6a8       0x44 build/LAN9253_D51_SPI_Indirect_mode/production/_ext/108134065/ecatappl.o
                0x0000e6a8                Sync1_Isr

.text.PutInEmptyEmcyQueue%225
                0x0000e6ec       0x44
 .text.PutInEmptyEmcyQueue
                0x0000e6ec       0x44 build/LAN9253_D51_SPI_Indirect_mode/production/_ext/108134065/emcy.o
                0x0000e6ec                PutInEmptyEmcyQueue

.text.PutInSendEmcyQueue%226
                0x0000e730       0x44
 .text.PutInSendEmcyQueue
                0x0000e730       0x44 build/LAN9253_D51_SPI_Indirect_mode/production/_ext/108134065/emcy.o
                0x0000e730                PutInSendEmcyQueue

.text.AddObjectsToObjDictionary%227
                0x0000e774       0x42
 .text.AddObjectsToObjDictionary
                0x0000e774       0x42 build/LAN9253_D51_SPI_Indirect_mode/production/_ext/108134065/coeappl.o
                0x0000e774                AddObjectsToObjDictionary

.text%228       0x0000e7b8       0x40
 .text          0x0000e7b8       0x40 c:/program files (x86)/microchip/xc32/v2.30/bin/bin/../../lib/gcc/pic32c/6.2.1/v7e-m/fpv4-sp/hard/crtbegin.o

.text.SYSTICK_TimerInitialize%229
                0x0000e7f8       0x40
 .text.SYSTICK_TimerInitialize
                0x0000e7f8       0x40 build/LAN9253_D51_SPI_Indirect_mode/production/_ext/1827571544/plib_systick.o
                0x0000e7f8                SYSTICK_TimerInitialize

.text.__NVIC_GetEnableIRQ%230
                0x0000e838       0x40
 .text.__NVIC_GetEnableIRQ
                0x0000e838       0x40 build/LAN9253_D51_SPI_Indirect_mode/production/_ext/1881668453/sys_int.o

.text.ICache_Enable%231
                0x0000e878       0x40
 .text.ICache_Enable
                0x0000e878       0x40 build/LAN9253_D51_SPI_Indirect_mode/production/_ext/1171490990/startup_xc32.o

.text.HandleDmaData%232
                0x0000e8b8       0x40
 .text.HandleDmaData
                0x0000e8b8       0x40 build/LAN9253_D51_SPI_Indirect_mode/production/_ext/1671622979/Drivers.o
                0x0000e8b8                HandleDmaData

.rodata.aName0x10F1%233
                0x0000e8f8       0x40
 .rodata.aName0x10F1
                0x0000e8f8       0x40 build/LAN9253_D51_SPI_Indirect_mode/production/_ext/108134065/coeappl.o
                0x0000e8f8                aName0x10F1

.text.COE_ClearObjDictionary%234
                0x0000e938       0x40
 .text.COE_ClearObjDictionary
                0x0000e938       0x40 build/LAN9253_D51_SPI_Indirect_mode/production/_ext/108134065/coeappl.o
                0x0000e938                COE_ClearObjDictionary

.text.SYS_DMA_DataWidthSetup%235
                0x0000e978       0x3e
 .text.SYS_DMA_DataWidthSetup
                0x0000e978       0x3e build/LAN9253_D51_SPI_Indirect_mode/production/_ext/14461671/sys_dma.o
                0x0000e978                SYS_DMA_DataWidthSetup

.text.DMAC_ChannelCallbackRegister%236
                0x0000e9b8       0x3c
 .text.DMAC_ChannelCallbackRegister
                0x0000e9b8       0x3c build/LAN9253_D51_SPI_Indirect_mode/production/_ext/1865161661/plib_dmac.o
                0x0000e9b8                DMAC_ChannelCallbackRegister

.text.__NVIC_EnableIRQ%237
                0x0000e9f4       0x78
 .text.__NVIC_EnableIRQ
                0x0000e9f4       0x3c build/LAN9253_D51_SPI_Indirect_mode/production/_ext/1865468468/plib_nvic.o
 .text.__NVIC_EnableIRQ
                0x0000ea30       0x3c build/LAN9253_D51_SPI_Indirect_mode/production/_ext/1881668453/sys_int.o

.rodata.aName0x1018%239
                0x0000ea6c       0x3c
 .rodata.aName0x1018
                0x0000ea6c       0x3c build/LAN9253_D51_SPI_Indirect_mode/production/_ext/108134065/coeappl.o
                0x0000ea6c                aName0x1018

.text.ECAT_Application%240
                0x0000eaa8       0x3c
 .text.ECAT_Application
                0x0000eaa8       0x3c build/LAN9253_D51_SPI_Indirect_mode/production/_ext/108134065/ecatappl.o
                0x0000eaa8                ECAT_Application

.text.APP_RunApplication%241
                0x0000eae4       0x3c
 .text.APP_RunApplication
                0x0000eae4       0x3c build/LAN9253_D51_SPI_Indirect_mode/production/_ext/1360937237/app.o

.text.PORT_PinSet%242
                0x0000eb20       0x38
 .text.PORT_PinSet
                0x0000eb20       0x38 build/LAN9253_D51_SPI_Indirect_mode/production/_ext/2070931557/drv_spi.o

.text.PORT_PinClear%243
                0x0000eb58       0x38
 .text.PORT_PinClear
                0x0000eb58       0x38 build/LAN9253_D51_SPI_Indirect_mode/production/_ext/2070931557/drv_spi.o

.text.QSPI_IsBusy%244
                0x0000eb90       0x38
 .text.QSPI_IsBusy
                0x0000eb90       0x38 build/LAN9253_D51_SPI_Indirect_mode/production/_ext/1865555181/plib_qspi_spi.o
                0x0000eb90                QSPI_IsBusy

.text.PORT_PinSet%245
                0x0000ebc8       0x38
 .text.PORT_PinSet
                0x0000ebc8       0x38 build/LAN9253_D51_SPI_Indirect_mode/production/_ext/1671622979/Drivers.o

.text.PORT_PinClear%246
                0x0000ec00       0x38
 .text.PORT_PinClear
                0x0000ec00       0x38 build/LAN9253_D51_SPI_Indirect_mode/production/_ext/1671622979/Drivers.o

.text.PORT_PinOutputEnable%247
                0x0000ec38       0x38
 .text.PORT_PinOutputEnable
                0x0000ec38       0x38 build/LAN9253_D51_SPI_Indirect_mode/production/_ext/1671622979/Drivers.o

.text.PORT_PinSet%248
                0x0000ec70       0x38
 .text.PORT_PinSet
                0x0000ec70       0x38 build/LAN9253_D51_SPI_Indirect_mode/production/_ext/108147519/LAN925x.o

.text.PORT_PinClear%249
                0x0000eca8       0x38
 .text.PORT_PinClear
                0x0000eca8       0x38 build/LAN9253_D51_SPI_Indirect_mode/production/_ext/108147519/LAN925x.o

.text.FOE_Write%250
                0x0000ece0       0x38
 .text.FOE_Write
                0x0000ece0       0x38 build/LAN9253_D51_SPI_Indirect_mode/production/_ext/108134065/foeappl.o
                0x0000ece0                FOE_Write

.text.FOE_Ack%251
                0x0000ed18       0x38
 .text.FOE_Ack  0x0000ed18       0x38 build/LAN9253_D51_SPI_Indirect_mode/production/_ext/108134065/foeappl.o
                0x0000ed18                FOE_Ack

.text.APP_FW_startDownload%252
                0x0000ed50       0x38
 .text.APP_FW_startDownload
                0x0000ed50       0x38 build/LAN9253_D51_SPI_Indirect_mode/production/_ext/108134065/sample_app.o
                0x0000ed50                APP_FW_startDownload

.text.OBJ_GetObjectHandle%253
                0x0000ed88       0x36
 .text.OBJ_GetObjectHandle
                0x0000ed88       0x36 build/LAN9253_D51_SPI_Indirect_mode/production/_ext/108134065/objdef.o
                0x0000ed88                OBJ_GetObjectHandle

.text.NVMCTRL_BlockErase%254
                0x0000edc0       0x34
 .text.NVMCTRL_BlockErase
                0x0000edc0       0x34 build/LAN9253_D51_SPI_Indirect_mode/production/_ext/1593096446/plib_nvmctrl.o
                0x0000edc0                NVMCTRL_BlockErase

.rodata.drvSPI0InitData%255
                0x0000edf4       0x30
 .rodata.drvSPI0InitData
                0x0000edf4       0x30 build/LAN9253_D51_SPI_Indirect_mode/production/_ext/1171490990/initialization.o
                0x0000edf4                drvSPI0InitData

.text.FOE_ContinueInd%256
                0x0000ee24       0x30
 .text.FOE_ContinueInd
                0x0000ee24       0x30 build/LAN9253_D51_SPI_Indirect_mode/production/_ext/108134065/ecatfoe.o
                0x0000ee24                FOE_ContinueInd

.text.GetSyncMan%257
                0x0000ee54       0x30
 .text.GetSyncMan
                0x0000ee54       0x30 build/LAN9253_D51_SPI_Indirect_mode/production/_ext/108134065/ecatslv.o
                0x0000ee54                GetSyncMan

.text._DRV_SPI_MAKE_HANDLE%258
                0x0000ee84       0x2c
 .text._DRV_SPI_MAKE_HANDLE
                0x0000ee84       0x2c build/LAN9253_D51_SPI_Indirect_mode/production/_ext/2070931557/drv_spi.o

.text._DRV_SPI_UPDATE_TOKEN%259
                0x0000eeb0       0x2c
 .text._DRV_SPI_UPDATE_TOKEN
                0x0000eeb0       0x2c build/LAN9253_D51_SPI_Indirect_mode/production/_ext/2070931557/drv_spi.o

.text._DRV_SPI_ResourceUnlock%260
                0x0000eedc       0x2c
 .text._DRV_SPI_ResourceUnlock
                0x0000eedc       0x2c build/LAN9253_D51_SPI_Indirect_mode/production/_ext/2070931557/drv_spi.o

.text.GCLK1_Initialize%261
                0x0000ef08       0x2c
 .text.GCLK1_Initialize
                0x0000ef08       0x2c build/LAN9253_D51_SPI_Indirect_mode/production/_ext/1984496892/plib_clock.o

.text.GCLK2_Initialize%262
                0x0000ef34       0x2c
 .text.GCLK2_Initialize
                0x0000ef34       0x2c build/LAN9253_D51_SPI_Indirect_mode/production/_ext/1984496892/plib_clock.o

.text.DMAC_ChannelSettingsGet%263
                0x0000ef60       0x2c
 .text.DMAC_ChannelSettingsGet
                0x0000ef60       0x2c build/LAN9253_D51_SPI_Indirect_mode/production/_ext/1865161661/plib_dmac.o
                0x0000ef60                DMAC_ChannelSettingsGet

.text.EIC_EXTINT_0_InterruptHandler%264
                0x0000ef8c       0x2c
 .text.EIC_EXTINT_0_InterruptHandler
                0x0000ef8c       0x2c build/LAN9253_D51_SPI_Indirect_mode/production/_ext/60167341/plib_eic.o
                0x0000ef8c                EIC_EXTINT_0_InterruptHandler

.text.EIC_EXTINT_1_InterruptHandler%265
                0x0000efb8       0x2c
 .text.EIC_EXTINT_1_InterruptHandler
                0x0000efb8       0x2c build/LAN9253_D51_SPI_Indirect_mode/production/_ext/60167341/plib_eic.o
                0x0000efb8                EIC_EXTINT_1_InterruptHandler

.text.EIC_EXTINT_7_InterruptHandler%266
                0x0000efe4       0x2c
 .text.EIC_EXTINT_7_InterruptHandler
                0x0000efe4       0x2c build/LAN9253_D51_SPI_Indirect_mode/production/_ext/60167341/plib_eic.o
                0x0000efe4                EIC_EXTINT_7_InterruptHandler

.text.SysTick_Handler%267
                0x0000f010       0x2c
 .text.SysTick_Handler
                0x0000f010       0x2c build/LAN9253_D51_SPI_Indirect_mode/production/_ext/1827571544/plib_systick.o
                0x0000f010                SysTick_Handler

.text.SYS_INT_Disable%268
                0x0000f03c       0x2c
 .text.SYS_INT_Disable
                0x0000f03c       0x2c build/LAN9253_D51_SPI_Indirect_mode/production/_ext/1881668453/sys_int.o
                0x0000f03c                SYS_INT_Disable

.text.FOE_Init%269
                0x0000f068       0x2c
 .text.FOE_Init
                0x0000f068       0x2c build/LAN9253_D51_SPI_Indirect_mode/production/_ext/108134065/ecatfoe.o
                0x0000f068                FOE_Init

.text._sbrk%270
                0x0000f094       0x2c
 .text._sbrk    0x0000f094       0x2c c:/program files (x86)/microchip/xc32/v2.30/bin/bin/../../lib/gcc/pic32c/6.2.1/../../../../pic32c/lib/v7e-m/fpv4-sp/hard\libpic32c.a(sbrk.o)
                0x0000f094                _sbrk

.text.DRV_SPI_WriteTransferAdd%271
                0x0000f0c0       0x2a
 .text.DRV_SPI_WriteTransferAdd
                0x0000f0c0       0x2a build/LAN9253_D51_SPI_Indirect_mode/production/_ext/2070931557/drv_spi.o
                0x0000f0c0                DRV_SPI_WriteTransferAdd

.text.DRV_SPI_ReadTransferAdd%272
                0x0000f0ea       0x2a
 .text.DRV_SPI_ReadTransferAdd
                0x0000f0ea       0x2a build/LAN9253_D51_SPI_Indirect_mode/production/_ext/2070931557/drv_spi.o
                0x0000f0ea                DRV_SPI_ReadTransferAdd

.text.SYS_INT_Restore%273
                0x0000f114       0x2a
 .text.SYS_INT_Restore
                0x0000f114       0x2a build/LAN9253_D51_SPI_Indirect_mode/production/_ext/1881668453/sys_int.o
                0x0000f114                SYS_INT_Restore

.text.SYS_INT_SourceRestore%274
                0x0000f13e       0x2a
 .text.SYS_INT_SourceRestore
                0x0000f13e       0x2a build/LAN9253_D51_SPI_Indirect_mode/production/_ext/1881668453/sys_int.o
                0x0000f13e                SYS_INT_SourceRestore

.text.OSCCTRL_Initialize%275
                0x0000f168       0x28
 .text.OSCCTRL_Initialize
                0x0000f168       0x28 build/LAN9253_D51_SPI_Indirect_mode/production/_ext/1984496892/plib_clock.o

.text.NVMCTRL_IsBusy%276
                0x0000f190       0x28
 .text.NVMCTRL_IsBusy
                0x0000f190       0x28 build/LAN9253_D51_SPI_Indirect_mode/production/_ext/1593096446/plib_nvmctrl.o
                0x0000f190                NVMCTRL_IsBusy

.text.QSPI_CallbackRegister%277
                0x0000f1b8       0x28
 .text.QSPI_CallbackRegister
                0x0000f1b8       0x28 build/LAN9253_D51_SPI_Indirect_mode/production/_ext/1865555181/plib_qspi_spi.o
                0x0000f1b8                QSPI_CallbackRegister

.text.SYSTICK_TimerCallbackSet%278
                0x0000f1e0       0x28
 .text.SYSTICK_TimerCallbackSet
                0x0000f1e0       0x28 build/LAN9253_D51_SPI_Indirect_mode/production/_ext/1827571544/plib_systick.o
                0x0000f1e0                SYSTICK_TimerCallbackSet

.rodata.drvSPI0remapDataBits%279
                0x0000f208       0x28
 .rodata.drvSPI0remapDataBits
                0x0000f208       0x28 build/LAN9253_D51_SPI_Indirect_mode/production/_ext/1171490990/initialization.o
                0x0000f208                drvSPI0remapDataBits

.text.ESC_IRQ_cb%280
                0x0000f230       0x28
 .text.ESC_IRQ_cb
                0x0000f230       0x28 build/LAN9253_D51_SPI_Indirect_mode/production/_ext/1671622979/Drivers.o
                0x0000f230                ESC_IRQ_cb

.text.APP_FW_StateBOOTtoINIT%281
                0x0000f258       0x28
 .text.APP_FW_StateBOOTtoINIT
                0x0000f258       0x28 build/LAN9253_D51_SPI_Indirect_mode/production/_ext/108134065/sample_app.o
                0x0000f258                APP_FW_StateBOOTtoINIT

.text.SPI_DisableQuadMode%282
                0x0000f280       0x26
 .text.SPI_DisableQuadMode
                0x0000f280       0x26 build/LAN9253_D51_SPI_Indirect_mode/production/_ext/1671622979/Drivers.o
                0x0000f280                SPI_DisableQuadMode

.text.SYSTICK_TimerStart%283
                0x0000f2a8       0x24
 .text.SYSTICK_TimerStart
                0x0000f2a8       0x24 build/LAN9253_D51_SPI_Indirect_mode/production/_ext/1827571544/plib_systick.o
                0x0000f2a8                SYSTICK_TimerStart

.text.TCM_Configure%284
                0x0000f2cc       0x24
 .text.TCM_Configure
                0x0000f2cc       0x24 build/LAN9253_D51_SPI_Indirect_mode/production/_ext/1171490990/startup_xc32.o

.text.PDI_Init_SYNC_Interrupts%285
                0x0000f2f0       0x24
 .text.PDI_Init_SYNC_Interrupts
                0x0000f2f0       0x24 build/LAN9253_D51_SPI_Indirect_mode/production/_ext/108147519/ESC_Utils.o
                0x0000f2f0                PDI_Init_SYNC_Interrupts

.text.COE_Init%286
                0x0000f314       0x24
 .text.COE_Init
                0x0000f314       0x24 build/LAN9253_D51_SPI_Indirect_mode/production/_ext/108134065/ecatcoe.o
                0x0000f314                COE_Init

.text.StopOutputHandler%287
                0x0000f338       0x24
 .text.StopOutputHandler
                0x0000f338       0x24 build/LAN9253_D51_SPI_Indirect_mode/production/_ext/108134065/ecatslv.o
                0x0000f338                StopOutputHandler

.text.EMCY_IsQueueEmpty%288
                0x0000f35c       0x24
 .text.EMCY_IsQueueEmpty
                0x0000f35c       0x24 build/LAN9253_D51_SPI_Indirect_mode/production/_ext/108134065/emcy.o
                0x0000f35c                EMCY_IsQueueEmpty

.text.FOE_Error%289
                0x0000f380       0x24
 .text.FOE_Error
                0x0000f380       0x24 build/LAN9253_D51_SPI_Indirect_mode/production/_ext/108134065/foeappl.o
                0x0000f380                FOE_Error

.text.APPL_InputMapping%290
                0x0000f3a4       0x24
 .text.APPL_InputMapping
                0x0000f3a4       0x24 build/LAN9253_D51_SPI_Indirect_mode/production/_ext/108134065/sample_app.o
                0x0000f3a4                APPL_InputMapping

.text.APPL_OutputMapping%291
                0x0000f3c8       0x24
 .text.APPL_OutputMapping
                0x0000f3c8       0x24 build/LAN9253_D51_SPI_Indirect_mode/production/_ext/108134065/sample_app.o
                0x0000f3c8                APPL_OutputMapping

.text.APP_BankSwitch%292
                0x0000f3ec       0x24
 .text.APP_BankSwitch
                0x0000f3ec       0x24 build/LAN9253_D51_SPI_Indirect_mode/production/_ext/1360937237/app.o

.text.EMCY_ContinueInd%293
                0x0000f410       0x22
 .text.EMCY_ContinueInd
                0x0000f410       0x22 build/LAN9253_D51_SPI_Indirect_mode/production/_ext/108134065/emcy.o
                0x0000f410                EMCY_ContinueInd

.text._DRV_SPI_TransferObjListGet%294
                0x0000f432       0x20
 .text._DRV_SPI_TransferObjListGet
                0x0000f432       0x20 build/LAN9253_D51_SPI_Indirect_mode/production/_ext/2070931557/drv_spi.o

.text.ECAT_SPI_Callback%295
                0x0000f454       0x20
 .text.ECAT_SPI_Callback
                0x0000f454       0x20 build/LAN9253_D51_SPI_Indirect_mode/production/_ext/1671622979/Drivers.o
                0x0000f454                ECAT_SPI_Callback

.rodata.asEntryDesc0x1018%296
                0x0000f474       0x20
 .rodata.asEntryDesc0x1018
                0x0000f474       0x20 build/LAN9253_D51_SPI_Indirect_mode/production/_ext/108134065/coeappl.o
                0x0000f474                asEntryDesc0x1018

.text.FOE_Busy%297
                0x0000f494       0x20
 .text.FOE_Busy
                0x0000f494       0x20 build/LAN9253_D51_SPI_Indirect_mode/production/_ext/108134065/foeappl.o
                0x0000f494                FOE_Busy

.rodata.cBitMask%298
                0x0000f4b4       0x20
 .rodata.cBitMask
                0x0000f4b4       0x20 build/LAN9253_D51_SPI_Indirect_mode/production/_ext/108134065/objdef.o
                0x0000f4b4                cBitMask

.text._sbrk_r%299
                0x0000f4d4       0x20
 .text._sbrk_r  0x0000f4d4       0x20 c:/program files (x86)/microchip/xc32/v2.30/bin/bin/../../lib/gcc/pic32c/6.2.1/../../../../pic32c/lib/v7e-m/fpv4-sp/hard\libc.a(lib_a-sbrkr.o)
                0x0000f4d4                _sbrk_r

.text.SYS_PORT_PinSet%300
                0x0000f4f4       0x1c
 .text.SYS_PORT_PinSet
                0x0000f4f4       0x1c build/LAN9253_D51_SPI_Indirect_mode/production/_ext/2070931557/drv_spi.o

.text.SYS_PORT_PinClear%301
                0x0000f510       0x1c
 .text.SYS_PORT_PinClear
                0x0000f510       0x1c build/LAN9253_D51_SPI_Indirect_mode/production/_ext/2070931557/drv_spi.o

.text.NVMCTRL_Initialize%302
                0x0000f52c       0x1c
 .text.NVMCTRL_Initialize
                0x0000f52c       0x1c build/LAN9253_D51_SPI_Indirect_mode/production/_ext/1593096446/plib_nvmctrl.o
                0x0000f52c                NVMCTRL_Initialize

.text.NVMCTRL_BankSwap%303
                0x0000f548       0x1c
 .text.NVMCTRL_BankSwap
                0x0000f548       0x1c build/LAN9253_D51_SPI_Indirect_mode/production/_ext/1593096446/plib_nvmctrl.o
                0x0000f548                NVMCTRL_BankSwap

.text.PORT_GroupSet%304
                0x0000f564       0x1c
 .text.PORT_GroupSet
                0x0000f564       0x1c build/LAN9253_D51_SPI_Indirect_mode/production/_ext/1865521619/plib_port.o
                0x0000f564                PORT_GroupSet

.text.PORT_GroupClear%305
                0x0000f580       0x1c
 .text.PORT_GroupClear
                0x0000f580       0x1c build/LAN9253_D51_SPI_Indirect_mode/production/_ext/1865521619/plib_port.o
                0x0000f580                PORT_GroupClear

.text.PORT_GroupOutputEnable%306
                0x0000f59c       0x1c
 .text.PORT_GroupOutputEnable
                0x0000f59c       0x1c build/LAN9253_D51_SPI_Indirect_mode/production/_ext/1865521619/plib_port.o
                0x0000f59c                PORT_GroupOutputEnable

.text.CRITICAL_SECTION_ENTER%307
                0x0000f5b8       0x1c
 .text.CRITICAL_SECTION_ENTER
                0x0000f5b8       0x1c build/LAN9253_D51_SPI_Indirect_mode/production/_ext/1671622979/Drivers.o
                0x0000f5b8                CRITICAL_SECTION_ENTER

.text.CRITICAL_SECTION_LEAVE%308
                0x0000f5d4       0x1c
 .text.CRITICAL_SECTION_LEAVE
                0x0000f5d4       0x1c build/LAN9253_D51_SPI_Indirect_mode/production/_ext/1671622979/Drivers.o
                0x0000f5d4                CRITICAL_SECTION_LEAVE

.text.SPIChipSelectDisable%309
                0x0000f5f0       0x1c
 .text.SPIChipSelectDisable
                0x0000f5f0       0x1c build/LAN9253_D51_SPI_Indirect_mode/production/_ext/1671622979/Drivers.o

.text.SPIChipSelectEnable%310
                0x0000f60c       0x1c
 .text.SPIChipSelectEnable
                0x0000f60c       0x1c build/LAN9253_D51_SPI_Indirect_mode/production/_ext/1671622979/Drivers.o

.text.ECAT_SysTick_Handler%311
                0x0000f628       0x1c
 .text.ECAT_SysTick_Handler
                0x0000f628       0x1c build/LAN9253_D51_SPI_Indirect_mode/production/_ext/1671622979/Drivers.o
                0x0000f628                ECAT_SysTick_Handler

.rodata.aName0x1C12%312
                0x0000f644       0x1c
 .rodata.aName0x1C12
                0x0000f644       0x1c build/LAN9253_D51_SPI_Indirect_mode/production/_ext/108134065/coeappl.o
                0x0000f644                aName0x1C12

.rodata.aName0x1C13%313
                0x0000f660       0x1c
 .rodata.aName0x1C13
                0x0000f660       0x1c build/LAN9253_D51_SPI_Indirect_mode/production/_ext/108134065/coeappl.o
                0x0000f660                aName0x1C13

.text.OSC32KCTRL_Initialize%314
                0x0000f67c       0x18
 .text.OSC32KCTRL_Initialize
                0x0000f67c       0x18 build/LAN9253_D51_SPI_Indirect_mode/production/_ext/1984496892/plib_clock.o

.rodata.drvSPI0InterruptSources%315
                0x0000f694       0x18
 .rodata.drvSPI0InterruptSources
                0x0000f694       0x18 build/LAN9253_D51_SPI_Indirect_mode/production/_ext/1171490990/initialization.o
                0x0000f694                drvSPI0InterruptSources

.text.PDI_Init_SYSTick_Interrupt%316
                0x0000f6ac       0x18
 .text.PDI_Init_SYSTick_Interrupt
                0x0000f6ac       0x18 build/LAN9253_D51_SPI_Indirect_mode/production/_ext/1671622979/Drivers.o

.text.PDI_IRQ_Interrupt%317
                0x0000f6c4       0x18
 .text.PDI_IRQ_Interrupt
                0x0000f6c4       0x18 build/LAN9253_D51_SPI_Indirect_mode/production/_ext/108147519/ESC_Utils.o
                0x0000f6c4                PDI_IRQ_Interrupt

.text.COE_GetObjectDictionary%318
                0x0000f6dc       0x18
 .text.COE_GetObjectDictionary
                0x0000f6dc       0x18 build/LAN9253_D51_SPI_Indirect_mode/production/_ext/108134065/coeappl.o
                0x0000f6dc                COE_GetObjectDictionary

.text.BackToInitTransition%319
                0x0000f6f4       0x18
 .text.BackToInitTransition
                0x0000f6f4       0x18 build/LAN9253_D51_SPI_Indirect_mode/production/_ext/108134065/ecatslv.o
                0x0000f6f4                BackToInitTransition

.text.OBJ_GetObjDesc%320
                0x0000f70c       0x18
 .text.OBJ_GetObjDesc
                0x0000f70c       0x18 build/LAN9253_D51_SPI_Indirect_mode/production/_ext/108134065/objdef.o
                0x0000f70c                OBJ_GetObjDesc

.text.APP_FW_GetDownloadStateFinished%321
                0x0000f724       0x18
 .text.APP_FW_GetDownloadStateFinished
                0x0000f724       0x18 build/LAN9253_D51_SPI_Indirect_mode/production/_ext/108134065/sample_app.o
                0x0000f724                APP_FW_GetDownloadStateFinished

.text.APP_Initialize%322
                0x0000f73c       0x18
 .text.APP_Initialize
                0x0000f73c       0x18 build/LAN9253_D51_SPI_Indirect_mode/production/_ext/1360937237/app.o
                0x0000f73c                APP_Initialize

.text.BL_Start%323
                0x0000f754       0x16
 .text.BL_Start
                0x0000f754       0x16 build/LAN9253_D51_SPI_Indirect_mode/production/_ext/108134065/bootmode.o
                0x0000f754                BL_Start

.text.EMCY_GetEmcyBuffer%324
                0x0000f76a       0x16
 .text.EMCY_GetEmcyBuffer
                0x0000f76a       0x16 build/LAN9253_D51_SPI_Indirect_mode/production/_ext/108134065/emcy.o
                0x0000f76a                EMCY_GetEmcyBuffer

.text.APPL_AckErrorInd%325
                0x0000f780       0x16
 .text.APPL_AckErrorInd
                0x0000f780       0x16 build/LAN9253_D51_SPI_Indirect_mode/production/_ext/108134065/sample_app.o
                0x0000f780                APPL_AckErrorInd

.text.APPL_StartInputHandler%326
                0x0000f796       0x16
 .text.APPL_StartInputHandler
                0x0000f796       0x16 build/LAN9253_D51_SPI_Indirect_mode/production/_ext/108134065/sample_app.o
                0x0000f796                APPL_StartInputHandler

.text.memcpy%327
                0x0000f7ac       0x16
 .text.memcpy   0x0000f7ac       0x16 c:/program files (x86)/microchip/xc32/v2.30/bin/bin/../../lib/gcc/pic32c/6.2.1/../../../../pic32c/lib/v7e-m/fpv4-sp/hard\libc.a(lib_a-memcpy-stub.o)
                0x0000f7ac                memcpy

.text.EtherCAT_QSPI_CallbackRegistration%328
                0x0000f7c4       0x14
 .text.EtherCAT_QSPI_CallbackRegistration
                0x0000f7c4       0x14 build/LAN9253_D51_SPI_Indirect_mode/production/_ext/1671622979/Drivers.o
                0x0000f7c4                EtherCAT_QSPI_CallbackRegistration

.text.ESC_Sync0_cb%329
                0x0000f7d8       0x14
 .text.ESC_Sync0_cb
                0x0000f7d8       0x14 build/LAN9253_D51_SPI_Indirect_mode/production/_ext/1671622979/Drivers.o
                0x0000f7d8                ESC_Sync0_cb

.text.ESC_Sync1_cb%330
                0x0000f7ec       0x14
 .text.ESC_Sync1_cb
                0x0000f7ec       0x14 build/LAN9253_D51_SPI_Indirect_mode/production/_ext/1671622979/Drivers.o
                0x0000f7ec                ESC_Sync1_cb

.rodata.aName0x1009%331
                0x0000f800       0x14
 .rodata.aName0x1009
                0x0000f800       0x14 build/LAN9253_D51_SPI_Indirect_mode/production/_ext/108134065/coeappl.o
                0x0000f800                aName0x1009

.rodata.aName0x100A%332
                0x0000f814       0x14
 .rodata.aName0x100A
                0x0000f814       0x14 build/LAN9253_D51_SPI_Indirect_mode/production/_ext/108134065/coeappl.o
                0x0000f814                aName0x100A

.rodata.asEntryDesc0x10F1%333
                0x0000f828       0x14
 .rodata.asEntryDesc0x10F1
                0x0000f828       0x14 build/LAN9253_D51_SPI_Indirect_mode/production/_ext/108134065/coeappl.o
                0x0000f828                asEntryDesc0x10F1

.rodata.aName0x10F8%334
                0x0000f83c       0x14
 .rodata.aName0x10F8
                0x0000f83c       0x14 build/LAN9253_D51_SPI_Indirect_mode/production/_ext/108134065/coeappl.o
                0x0000f83c                aName0x10F8

.rodata.aName0x1C00%335
                0x0000f850       0x14
 .rodata.aName0x1C00
                0x0000f850       0x14 build/LAN9253_D51_SPI_Indirect_mode/production/_ext/108134065/coeappl.o
                0x0000f850                aName0x1C00

.rodata.drvSPI0PlibAPI%336
                0x0000f864       0x10
 .rodata.drvSPI0PlibAPI
                0x0000f864       0x10 build/LAN9253_D51_SPI_Indirect_mode/production/_ext/1171490990/initialization.o
                0x0000f864                drvSPI0PlibAPI

.rodata.aName0x1001%337
                0x0000f874       0x10
 .rodata.aName0x1001
                0x0000f874       0x10 build/LAN9253_D51_SPI_Indirect_mode/production/_ext/108134065/coeappl.o
                0x0000f874                aName0x1001

.text.APPL_StartMailboxHandler%338
                0x0000f884       0x10
 .text.APPL_StartMailboxHandler
                0x0000f884       0x10 build/LAN9253_D51_SPI_Indirect_mode/production/_ext/108134065/sample_app.o
                0x0000f884                APPL_StartMailboxHandler

.text.APPL_StopInputHandler%339
                0x0000f894       0x10
 .text.APPL_StopInputHandler
                0x0000f894       0x10 build/LAN9253_D51_SPI_Indirect_mode/production/_ext/108134065/sample_app.o
                0x0000f894                APPL_StopInputHandler

.text.APPL_StartOutputHandler%340
                0x0000f8a4       0x10
 .text.APPL_StartOutputHandler
                0x0000f8a4       0x10 build/LAN9253_D51_SPI_Indirect_mode/production/_ext/108134065/sample_app.o
                0x0000f8a4                APPL_StartOutputHandler

.text.APPL_StopOutputHandler%341
                0x0000f8b4       0x10
 .text.APPL_StopOutputHandler
                0x0000f8b4       0x10 build/LAN9253_D51_SPI_Indirect_mode/production/_ext/108134065/sample_app.o
                0x0000f8b4                APPL_StopOutputHandler

.text.main%342  0x0000f8c4       0x10
 .text.main     0x0000f8c4       0x10 build/LAN9253_D51_SPI_Indirect_mode/production/_ext/1360937237/main.o
                0x0000f8c4                main

.text.malloc%343
                0x0000f8d4       0x10
 .text.malloc   0x0000f8d4       0x10 c:/program files (x86)/microchip/xc32/v2.30/bin/bin/../../lib/gcc/pic32c/6.2.1/../../../../pic32c/lib/v7e-m/fpv4-sp/hard\libc.a(lib_a-malloc.o)
                0x0000f8d4                malloc

.text.free%344  0x0000f8e4       0x10
 .text.free     0x0000f8e4       0x10 c:/program files (x86)/microchip/xc32/v2.30/bin/bin/../../lib/gcc/pic32c/6.2.1/../../../../pic32c/lib/v7e-m/fpv4-sp/hard\libc.a(lib_a-malloc.o)
                0x0000f8e4                free

.text.memset%345
                0x0000f8f4       0x10
 .text.memset   0x0000f8f4       0x10 c:/program files (x86)/microchip/xc32/v2.30/bin/bin/../../lib/gcc/pic32c/6.2.1/../../../../pic32c/lib/v7e-m/fpv4-sp/hard\libc.a(lib_a-memset.o)
                0x0000f8f4                memset

.text%346       0x0000f904       0x10
 .text          0x0000f904       0x10 c:/program files (x86)/microchip/xc32/v2.30/bin/bin/../../lib/gcc/pic32c/6.2.1/../../../../pic32c/lib/v7e-m/fpv4-sp/hard\libc.a(lib_a-strlen.o)
                0x0000f904                strlen

.text.DFLL_Initialize%347
                0x0000f914        0xe
 .text.DFLL_Initialize
                0x0000f914        0xe build/LAN9253_D51_SPI_Indirect_mode/production/_ext/1984496892/plib_clock.o

.text.DMAC_0_Handler%348
                0x0000f922        0xe
 .text.DMAC_0_Handler
                0x0000f922        0xe build/LAN9253_D51_SPI_Indirect_mode/production/_ext/1865161661/plib_dmac.o
                0x0000f922                DMAC_0_Handler

.text.DMAC_1_Handler%349
                0x0000f930        0xe
 .text.DMAC_1_Handler
                0x0000f930        0xe build/LAN9253_D51_SPI_Indirect_mode/production/_ext/1865161661/plib_dmac.o
                0x0000f930                DMAC_1_Handler

.text.EVSYS_Initialize%350
                0x0000f93e        0xe
 .text.EVSYS_Initialize
                0x0000f93e        0xe build/LAN9253_D51_SPI_Indirect_mode/production/_ext/1986646378/plib_evsys.o
                0x0000f93e                EVSYS_Initialize

.text.BL_Stop%351
                0x0000f94c        0xe
 .text.BL_Stop  0x0000f94c        0xe build/LAN9253_D51_SPI_Indirect_mode/production/_ext/108134065/bootmode.o
                0x0000f94c                BL_Stop

.text.APPL_StopMailboxHandler%352
                0x0000f95a        0xe
 .text.APPL_StopMailboxHandler
                0x0000f95a        0xe build/LAN9253_D51_SPI_Indirect_mode/production/_ext/108134065/sample_app.o
                0x0000f95a                APPL_StopMailboxHandler

.text.SYS_Tasks%353
                0x0000f968        0xc
 .text.SYS_Tasks
                0x0000f968        0xc build/LAN9253_D51_SPI_Indirect_mode/production/_ext/1171490990/tasks.o
                0x0000f968                SYS_Tasks

.text.PDI_Timer_Interrupt%354
                0x0000f974        0xc
 .text.PDI_Timer_Interrupt
                0x0000f974        0xc build/LAN9253_D51_SPI_Indirect_mode/production/_ext/1671622979/Drivers.o
                0x0000f974                PDI_Timer_Interrupt

.text.ESC_Init%355
                0x0000f980        0xc
 .text.ESC_Init
                0x0000f980        0xc build/LAN9253_D51_SPI_Indirect_mode/production/_ext/108147519/ESC_Utils.o
                0x0000f980                ESC_Init

.rodata.asEntryDesc0x1C12%356
                0x0000f98c        0xc
 .rodata.asEntryDesc0x1C12
                0x0000f98c        0xc build/LAN9253_D51_SPI_Indirect_mode/production/_ext/108134065/coeappl.o
                0x0000f98c                asEntryDesc0x1C12

.rodata.asEntryDesc0x1C13%357
                0x0000f998        0xc
 .rodata.asEntryDesc0x1C13
                0x0000f998        0xc build/LAN9253_D51_SPI_Indirect_mode/production/_ext/108134065/coeappl.o
                0x0000f998                asEntryDesc0x1C13

.rodata.aName0x1000%358
                0x0000f9a4        0xc
 .rodata.aName0x1000
                0x0000f9a4        0xc build/LAN9253_D51_SPI_Indirect_mode/production/_ext/108134065/coeappl.o
                0x0000f9a4                aName0x1000

.rodata.aName0x1008%359
                0x0000f9b0        0xc
 .rodata.aName0x1008
                0x0000f9b0        0xc build/LAN9253_D51_SPI_Indirect_mode/production/_ext/108134065/coeappl.o
                0x0000f9b0                aName0x1008

.rodata.asEntryDesc0x1C00%360
                0x0000f9bc        0xc
 .rodata.asEntryDesc0x1C00
                0x0000f9bc        0xc build/LAN9253_D51_SPI_Indirect_mode/production/_ext/108134065/coeappl.o
                0x0000f9bc                asEntryDesc0x1C00

.rodata.drvSPI0remapClockPolarity%361
                0x0000f9c8        0x8
 .rodata.drvSPI0remapClockPolarity
                0x0000f9c8        0x8 build/LAN9253_D51_SPI_Indirect_mode/production/_ext/1171490990/initialization.o
                0x0000f9c8                drvSPI0remapClockPolarity

.rodata.drvSPI0remapClockPhase%362
                0x0000f9d0        0x8
 .rodata.drvSPI0remapClockPhase
                0x0000f9d0        0x8 build/LAN9253_D51_SPI_Indirect_mode/production/_ext/1171490990/initialization.o
                0x0000f9d0                drvSPI0remapClockPhase

.rodata.sEntryDesc0x1000%363
                0x0000f9d8        0x8
 .rodata.sEntryDesc0x1000
                0x0000f9d8        0x8 build/LAN9253_D51_SPI_Indirect_mode/production/_ext/108134065/coeappl.o
                0x0000f9d8                sEntryDesc0x1000

.rodata.sEntryDesc0x1001%364
                0x0000f9e0        0x8
 .rodata.sEntryDesc0x1001
                0x0000f9e0        0x8 build/LAN9253_D51_SPI_Indirect_mode/production/_ext/108134065/coeappl.o
                0x0000f9e0                sEntryDesc0x1001

.rodata.sEntryDesc0x1008%365
                0x0000f9e8        0x8
 .rodata.sEntryDesc0x1008
                0x0000f9e8        0x8 build/LAN9253_D51_SPI_Indirect_mode/production/_ext/108134065/coeappl.o
                0x0000f9e8                sEntryDesc0x1008

.rodata.sEntryDesc0x1009%366
                0x0000f9f0        0x8
 .rodata.sEntryDesc0x1009
                0x0000f9f0        0x8 build/LAN9253_D51_SPI_Indirect_mode/production/_ext/108134065/coeappl.o
                0x0000f9f0                sEntryDesc0x1009

.rodata.sEntryDesc0x100A%367
                0x0000f9f8        0x8
 .rodata.sEntryDesc0x100A
                0x0000f9f8        0x8 build/LAN9253_D51_SPI_Indirect_mode/production/_ext/108134065/coeappl.o
                0x0000f9f8                sEntryDesc0x100A

.rodata.sEntryDesc0x10F8%368
                0x0000fa00        0x8
 .rodata.sEntryDesc0x10F8
                0x0000fa00        0x8 build/LAN9253_D51_SPI_Indirect_mode/production/_ext/108134065/coeappl.o
                0x0000fa00                sEntryDesc0x10F8

.rodata.acEmcyCoeHeader%369
                0x0000fa08        0x8
 .rodata.acEmcyCoeHeader
                0x0000fa08        0x8 build/LAN9253_D51_SPI_Indirect_mode/production/_ext/108134065/emcy.o
                0x0000fa08                acEmcyCoeHeader

.text.NonMaskableInt_Handler%370
                0x0000fa10        0x6
 .text.NonMaskableInt_Handler
                0x0000fa10        0x6 build/LAN9253_D51_SPI_Indirect_mode/production/_ext/1171490990/exceptions.o
                0x0000fa10                NonMaskableInt_Handler

.text.HardFault_Handler%371
                0x0000fa16        0x6
 .text.HardFault_Handler
                0x0000fa16        0x6 build/LAN9253_D51_SPI_Indirect_mode/production/_ext/1171490990/exceptions.o
                0x0000fa16                HardFault_Handler

.text.DebugMonitor_Handler%372
                0x0000fa1c        0x6
 .text.DebugMonitor_Handler
                0x0000fa1c        0x6 build/LAN9253_D51_SPI_Indirect_mode/production/_ext/1171490990/exceptions.o
                0x0000fa1c                DebugMonitor_Handler

.text.MemoryManagement_Handler%373
                0x0000fa22        0x6
 .text.MemoryManagement_Handler
                0x0000fa22        0x6 build/LAN9253_D51_SPI_Indirect_mode/production/_ext/1171490990/exceptions.o
                0x0000fa22                MemoryManagement_Handler

.text.BusFault_Handler%374
                0x0000fa28        0x6
 .text.BusFault_Handler
                0x0000fa28        0x6 build/LAN9253_D51_SPI_Indirect_mode/production/_ext/1171490990/exceptions.o
                0x0000fa28                BusFault_Handler

.text.UsageFault_Handler%375
                0x0000fa2e        0x6
 .text.UsageFault_Handler
                0x0000fa2e        0x6 build/LAN9253_D51_SPI_Indirect_mode/production/_ext/1171490990/exceptions.o
                0x0000fa2e                UsageFault_Handler

.rodata%376     0x0000fa34        0x4
 .rodata        0x0000fa34        0x4 build/LAN9253_D51_SPI_Indirect_mode/production/_ext/108134065/sample_app.o

.text.Dummy_Handler%377
                0x0000a096        0x2
 .text.Dummy_Handler
                0x0000a096        0x2 build/LAN9253_D51_SPI_Indirect_mode/production/_ext/1171490990/interrupts.o
                0x0000a096                EIC_EXTINT_9_Handler
                0x0000a096                TCC0_MC5_Handler
                0x0000a096                SVCall_Handler
                0x0000a096                SERCOM0_2_Handler
                0x0000a096                USB_SOF_HSOF_Handler
                0x0000a096                TCC4_OTHER_Handler
                0x0000a096                TCC2_MC2_Handler
                0x0000a096                EVSYS_0_Handler
                0x0000a096                TRNG_Handler
                0x0000a096                TC2_Handler
                0x0000a096                USB_TRCPT0_Handler
                0x0000a096                DAC_OTHER_Handler
                0x0000a096                AC_Handler
                0x0000a096                DAC_EMPTY_0_Handler
                0x0000a096                DMAC_OTHER_Handler
                0x0000a096                EIC_EXTINT_5_Handler
                0x0000a096                SERCOM3_1_Handler
                0x0000a096                SERCOM4_OTHER_Handler
                0x0000a096                SERCOM3_2_Handler
                0x0000a096                EIC_EXTINT_6_Handler
                0x0000a096                PendSV_Handler
                0x0000a096                TCC4_MC0_Handler
                0x0000a096                EVSYS_3_Handler
                0x0000a096                TCC2_MC0_Handler
                0x0000a096                PDEC_OTHER_Handler
                0x0000a096                TCC3_MC0_Handler
                0x0000a096                PDEC_MC1_Handler
                0x0000a096                TCC2_MC1_Handler
                0x0000a096                OSCCTRL_XOSC1_Handler
                0x0000a096                PDEC_MC0_Handler
                0x0000a096                EIC_EXTINT_4_Handler
                0x0000a096                SERCOM0_OTHER_Handler
                0x0000a096                EVSYS_OTHER_Handler
                0x0000a096                SERCOM0_0_Handler
                0x0000a096                RTC_Handler
                0x0000a096                SERCOM4_0_Handler
                0x0000a096                TCC1_MC0_Handler
                0x0000a096                SERCOM1_OTHER_Handler
                0x0000a096                TCC2_OTHER_Handler
                0x0000a096                EIC_EXTINT_11_Handler
                0x0000a096                SUPC_BODDET_Handler
                0x0000a096                EIC_EXTINT_14_Handler
                0x0000a096                OSC32KCTRL_Handler
                0x0000a096                EVSYS_1_Handler
                0x0000a096                TCC4_MC1_Handler
                0x0000a096                SUPC_OTHER_Handler
                0x0000a096                WDT_Handler
                0x0000a096                EIC_EXTINT_15_Handler
                0x0000a096                TCC3_MC1_Handler
                0x0000a096                SERCOM5_0_Handler
                0x0000a096                TC4_Handler
                0x0000a096                TC1_Handler
                0x0000a096                TCC1_MC1_Handler
                0x0000a096                TCC1_OTHER_Handler
                0x0000a096                PAC_Handler
                0x0000a096                SERCOM4_1_Handler
                0x0000a096                TC3_Handler
                0x0000a096                Dummy_Handler
                0x0000a096                DAC_RESRDY_0_Handler
                0x0000a096                SERCOM5_1_Handler
                0x0000a096                DMAC_2_Handler
                0x0000a096                TCC0_MC4_Handler
                0x0000a096                USB_TRCPT1_Handler
                0x0000a096                SERCOM0_1_Handler
                0x0000a096                TCC0_MC3_Handler
                0x0000a096                EIC_EXTINT_12_Handler
                0x0000a096                OSCCTRL_DPLL0_Handler
                0x0000a096                SERCOM5_OTHER_Handler
                0x0000a096                PM_Handler
                0x0000a096                OSCCTRL_DFLL_Handler
                0x0000a096                DAC_RESRDY_1_Handler
                0x0000a096                USB_OTHER_Handler
                0x0000a096                TCC0_OTHER_Handler
                0x0000a096                EIC_EXTINT_10_Handler
                0x0000a096                TCC1_MC3_Handler
                0x0000a096                OSCCTRL_XOSC0_Handler
                0x0000a096                TCC0_MC0_Handler
                0x0000a096                EIC_EXTINT_2_Handler
                0x0000a096                SDHC0_Handler
                0x0000a096                SERCOM1_1_Handler
                0x0000a096                I2S_Handler
                0x0000a096                PCC_Handler
                0x0000a096                TCC3_OTHER_Handler
                0x0000a096                EIC_EXTINT_13_Handler
                0x0000a096                SERCOM1_0_Handler
                0x0000a096                PUKCC_Handler
                0x0000a096                SERCOM2_1_Handler
                0x0000a096                SERCOM1_2_Handler
                0x0000a096                SERCOM3_0_Handler
                0x0000a096                SERCOM4_2_Handler
                0x0000a096                TCC1_MC2_Handler
                0x0000a096                ADC1_RESRDY_Handler
                0x0000a096                NVMCTRL_1_Handler
                0x0000a096                SERCOM5_2_Handler
                0x0000a096                SERCOM2_2_Handler
                0x0000a096                DAC_EMPTY_1_Handler
                0x0000a096                ADC1_OTHER_Handler
                0x0000a096                OSCCTRL_DPLL1_Handler
                0x0000a096                EIC_EXTINT_3_Handler
                0x0000a096                SERCOM3_OTHER_Handler
                0x0000a096                EIC_EXTINT_8_Handler
                0x0000a096                NVMCTRL_0_Handler
                0x0000a096                ADC0_RESRDY_Handler
                0x0000a096                ADC0_OTHER_Handler
                0x0000a096                MCLK_Handler
                0x0000a096                EVSYS_2_Handler
                0x0000a096                SERCOM2_OTHER_Handler
                0x0000a096                FREQM_Handler
                0x0000a096                TC0_Handler
                0x0000a096                TCC0_MC1_Handler
                0x0000a096                DMAC_3_Handler
                0x0000a096                RAMECC_Handler
                0x0000a096                TC5_Handler
                0x0000a096                SERCOM2_0_Handler
                0x0000a096                AES_Handler
                0x0000a096                ICM_Handler
                0x0000a096                TCC0_MC2_Handler

.text.__malloc_lock%378
                0x0000a9aa        0x2
 .text.__malloc_lock
                0x0000a9aa        0x2 c:/program files (x86)/microchip/xc32/v2.30/bin/bin/../../lib/gcc/pic32c/6.2.1/../../../../pic32c/lib/v7e-m/fpv4-sp/hard\libc.a(lib_a-mlock.o)
                0x0000a9aa                __malloc_lock

.text.__malloc_unlock%379
                0x0000b4d2        0x2
 .text.__malloc_unlock
                0x0000b4d2        0x2 c:/program files (x86)/microchip/xc32/v2.30/bin/bin/../../lib/gcc/pic32c/6.2.1/../../../../pic32c/lib/v7e-m/fpv4-sp/hard\libc.a(lib_a-mlock.o)
                0x0000b4d2                __malloc_unlock
