Archive member included to satisfy reference by file (symbol)

c:/program files (x86)/microchip/xc32/v2.30/bin/bin/../../lib/gcc/pic32c/6.2.1/../../../../pic32c/lib/v7e-m/fpv4-sp/hard\libpic32c.a(data_init.o)
                              build/LAN9253_D51_SQI_Indirect_mode/production/_ext/1171490990/startup_xc32.o (__pic32c_data_initialization)
c:/program files (x86)/microchip/xc32/v2.30/bin/bin/../../lib/gcc/pic32c/6.2.1/../../../../pic32c/lib/v7e-m/fpv4-sp/hard\libc.a(lib_a-init.o)
                              build/LAN9253_D51_SQI_Indirect_mode/production/_ext/1171490990/startup_xc32.o (__libc_init_array)
c:/program files (x86)/microchip/xc32/v2.30/bin/bin/../../lib/gcc/pic32c/6.2.1/../../../../pic32c/lib/v7e-m/fpv4-sp/hard\libc.a(lib_a-malloc.o)
                              build/LAN9253_D51_SQI_Indirect_mode/production/_ext/108134065/ecatcoe.o (malloc)
c:/program files (x86)/microchip/xc32/v2.30/bin/bin/../../lib/gcc/pic32c/6.2.1/../../../../pic32c/lib/v7e-m/fpv4-sp/hard\libc.a(lib_a-mallocr.o)
                              c:/program files (x86)/microchip/xc32/v2.30/bin/bin/../../lib/gcc/pic32c/6.2.1/../../../../pic32c/lib/v7e-m/fpv4-sp/hard\libc.a(lib_a-malloc.o) (_malloc_r)
c:/program files (x86)/microchip/xc32/v2.30/bin/bin/../../lib/gcc/pic32c/6.2.1/../../../../pic32c/lib/v7e-m/fpv4-sp/hard\libc.a(lib_a-memcpy-stub.o)
                              build/LAN9253_D51_SQI_Indirect_mode/production/_ext/1593096446/plib_nvmctrl.o (memcpy)
c:/program files (x86)/microchip/xc32/v2.30/bin/bin/../../lib/gcc/pic32c/6.2.1/../../../../pic32c/lib/v7e-m/fpv4-sp/hard\libc.a(lib_a-memset.o)
                              build/LAN9253_D51_SQI_Indirect_mode/production/_ext/108134065/sample_app.o (memset)
c:/program files (x86)/microchip/xc32/v2.30/bin/bin/../../lib/gcc/pic32c/6.2.1/../../../../pic32c/lib/v7e-m/fpv4-sp/hard\libc.a(lib_a-mlock.o)
                              c:/program files (x86)/microchip/xc32/v2.30/bin/bin/../../lib/gcc/pic32c/6.2.1/../../../../pic32c/lib/v7e-m/fpv4-sp/hard\libc.a(lib_a-mallocr.o) (__malloc_lock)
c:/program files (x86)/microchip/xc32/v2.30/bin/bin/../../lib/gcc/pic32c/6.2.1/../../../../pic32c/lib/v7e-m/fpv4-sp/hard\libc.a(lib_a-sbrkr.o)
                              c:/program files (x86)/microchip/xc32/v2.30/bin/bin/../../lib/gcc/pic32c/6.2.1/../../../../pic32c/lib/v7e-m/fpv4-sp/hard\libc.a(lib_a-mallocr.o) (_sbrk_r)
c:/program files (x86)/microchip/xc32/v2.30/bin/bin/../../lib/gcc/pic32c/6.2.1/../../../../pic32c/lib/v7e-m/fpv4-sp/hard\libc.a(lib_a-strlen.o)
                              build/LAN9253_D51_SQI_Indirect_mode/production/_ext/108134065/objdef.o (strlen)
c:/program files (x86)/microchip/xc32/v2.30/bin/bin/../../lib/gcc/pic32c/6.2.1/../../../../pic32c/lib/v7e-m/fpv4-sp/hard\libc.a(lib_a-freer.o)
                              c:/program files (x86)/microchip/xc32/v2.30/bin/bin/../../lib/gcc/pic32c/6.2.1/../../../../pic32c/lib/v7e-m/fpv4-sp/hard\libc.a(lib_a-malloc.o) (_free_r)
c:/program files (x86)/microchip/xc32/v2.30/bin/bin/../../lib/gcc/pic32c/6.2.1/../../../../pic32c/lib/v7e-m/fpv4-sp/hard\libc.a(lib_a-impure.o)
                              c:/program files (x86)/microchip/xc32/v2.30/bin/bin/../../lib/gcc/pic32c/6.2.1/../../../../pic32c/lib/v7e-m/fpv4-sp/hard\libc.a(lib_a-malloc.o) (_impure_ptr)
c:/program files (x86)/microchip/xc32/v2.30/bin/bin/../../lib/gcc/pic32c/6.2.1/../../../../pic32c/lib/v7e-m/fpv4-sp/hard\libc.a(lib_a-reent.o)
                              c:/program files (x86)/microchip/xc32/v2.30/bin/bin/../../lib/gcc/pic32c/6.2.1/../../../../pic32c/lib/v7e-m/fpv4-sp/hard\libc.a(lib_a-sbrkr.o) (errno)
c:/program files (x86)/microchip/xc32/v2.30/bin/bin/../../lib/gcc/pic32c/6.2.1/../../../../pic32c/lib/v7e-m/fpv4-sp/hard\libpic32c.a(sbrk.o)
                              c:/program files (x86)/microchip/xc32/v2.30/bin/bin/../../lib/gcc/pic32c/6.2.1/../../../../pic32c/lib/v7e-m/fpv4-sp/hard\libc.a(lib_a-sbrkr.o) (_sbrk)

Allocating common symbols
Common symbol       size              file

b3BufferMode        0x1               build/LAN9253_D51_SQI_Indirect_mode/production/_ext/108134065/ecatslv.o
nEcatStateTrans     0x2               build/LAN9253_D51_SQI_Indirect_mode/production/_ext/108134065/ecatslv.o
EcatWdCounter       0x2               build/LAN9253_D51_SQI_Indirect_mode/production/_ext/108134065/ecatslv.o
sSendEmcyQueue      0x10              build/LAN9253_D51_SQI_Indirect_mode/production/_ext/108134065/emcy.o
bApplEsmPending     0x1               build/LAN9253_D51_SQI_Indirect_mode/production/_ext/108134065/ecatslv.o
pCoeSendStored      0x4               build/LAN9253_D51_SQI_Indirect_mode/production/_ext/108134065/ecatcoe.o
nSdoInfoIndex       0x2               build/LAN9253_D51_SQI_Indirect_mode/production/_ext/108134065/sdoserv.o
pStoreData          0x4               build/LAN9253_D51_SQI_Indirect_mode/production/_ext/108134065/sdoserv.o
u8MbxReadCounter    0x1               build/LAN9253_D51_SQI_Indirect_mode/production/_ext/108134065/mailbox.o
nAlStatus           0x1               build/LAN9253_D51_SQI_Indirect_mode/production/_ext/108134065/ecatslv.o
nPdOutputSize       0x2               build/LAN9253_D51_SQI_Indirect_mode/production/_ext/108134065/ecatslv.o
u32FileOffset       0x4               build/LAN9253_D51_SQI_Indirect_mode/production/_ext/108134065/ecatfoe.o
u16LocalErrorCode   0x2               build/LAN9253_D51_SQI_Indirect_mode/production/_ext/108134065/ecatslv.o
nSdoSegBytesToHandle
                    0x4               build/LAN9253_D51_SQI_Indirect_mode/production/_ext/108134065/sdoserv.o
errno               0x4               c:/program files (x86)/microchip/xc32/v2.30/bin/bin/../../lib/gcc/pic32c/6.2.1/../../../../pic32c/lib/v7e-m/fpv4-sp/hard\libc.a(lib_a-reent.o)
sMbxSendQueue       0x34              build/LAN9253_D51_SQI_Indirect_mode/production/_ext/108134065/mailbox.o
gEscALEvent         0x2               build/LAN9253_D51_SQI_Indirect_mode/production/_ext/108147519/LAN925x.o
sMbxReceiveQueue    0x34              build/LAN9253_D51_SQI_Indirect_mode/production/_ext/108134065/mailbox.o
bNoMbxMemoryAvailable
                    0x1               build/LAN9253_D51_SQI_Indirect_mode/production/_ext/108134065/mailbox.o
u16FileAccessState  0x2               build/LAN9253_D51_SQI_Indirect_mode/production/_ext/108134065/ecatfoe.o
Sync0WdCounter      0x2               build/LAN9253_D51_SQI_Indirect_mode/production/_ext/108134065/ecatslv.o
u32PacketNo         0x4               build/LAN9253_D51_SQI_Indirect_mode/production/_ext/108134065/ecatfoe.o
bMinCycleTimeMeasurementStarted
                    0x1               build/LAN9253_D51_SQI_Indirect_mode/production/_ext/108134065/ecatappl.o
bLocalErrorFlag     0x1               build/LAN9253_D51_SQI_Indirect_mode/production/_ext/108134065/ecatslv.o
bSendMbxIsFull      0x1               build/LAN9253_D51_SQI_Indirect_mode/production/_ext/108134065/mailbox.o
u32CycleTimeStartValue
                    0x4               build/LAN9253_D51_SQI_Indirect_mode/production/_ext/108134065/ecatappl.o
LatchInputSync0Counter
                    0x2               build/LAN9253_D51_SQI_Indirect_mode/production/_ext/108134065/ecatslv.o
i16WaitForPllRunningCnt
                    0x2               build/LAN9253_D51_SQI_Indirect_mode/production/_ext/108134065/ecatslv.o
nEscAddrOutputData  0x2               build/LAN9253_D51_SQI_Indirect_mode/production/_ext/108134065/ecatslv.o
bMbxRunning         0x1               build/LAN9253_D51_SQI_Indirect_mode/production/_ext/108134065/mailbox.o
aFileData           0x2000            build/LAN9253_D51_SQI_Indirect_mode/production/_ext/108134065/sample_app.o
Sync0WdValue        0x2               build/LAN9253_D51_SQI_Indirect_mode/production/_ext/108134065/ecatslv.o
u8EcatRunLed        0x1               build/LAN9253_D51_SQI_Indirect_mode/production/_ext/108134065/ecatslv.o
i16WaitForPllRunningTimeout
                    0x2               build/LAN9253_D51_SQI_Indirect_mode/production/_ext/108134065/ecatslv.o
bSdoSegAccess       0x1               build/LAN9253_D51_SQI_Indirect_mode/production/_ext/108134065/sdoserv.o
Sync1WdValue        0x2               build/LAN9253_D51_SQI_Indirect_mode/production/_ext/108134065/ecatslv.o
bSdoSegFollows      0x1               build/LAN9253_D51_SQI_Indirect_mode/production/_ext/108134065/sdoserv.o
nSdoSegCompleteSize
                    0x4               build/LAN9253_D51_SQI_Indirect_mode/production/_ext/108134065/sdoserv.o
u16ALEventMask      0x2               build/LAN9253_D51_SQI_Indirect_mode/production/_ext/108134065/ecatslv.o
pSdoPendFunc        0x4               build/LAN9253_D51_SQI_Indirect_mode/production/_ext/108134065/sdoserv.o
bDcRunning          0x1               build/LAN9253_D51_SQI_Indirect_mode/production/_ext/108134065/ecatslv.o
u32dummy            0x4               build/LAN9253_D51_SQI_Indirect_mode/production/_ext/108134065/ecatslv.o
bRunApplication     0x1               build/LAN9253_D51_SQI_Indirect_mode/production/_ext/108134065/ecatappl.o
u16EscAddrReceiveMbx
                    0x2               build/LAN9253_D51_SQI_Indirect_mode/production/_ext/108134065/mailbox.o
psStoreMbx          0x4               build/LAN9253_D51_SQI_Indirect_mode/production/_ext/108134065/mailbox.o
SyncManInfo         0x8               build/LAN9253_D51_SQI_Indirect_mode/production/_ext/108134065/ecatslv.o
b32BitDc            0x1               build/LAN9253_D51_SQI_Indirect_mode/production/_ext/108134065/ecatslv.o
u32SystemTimeReadFailure
                    0x4               build/LAN9253_D51_SQI_Indirect_mode/production/_ext/108134065/ecatappl.o
u8PendingSdo        0x1               build/LAN9253_D51_SQI_Indirect_mode/production/_ext/108134065/sdoserv.o
appData             0x1               build/LAN9253_D51_SQI_Indirect_mode/production/_ext/1360937237/app.o
LatchInputSync0Value
                    0x2               build/LAN9253_D51_SQI_Indirect_mode/production/_ext/108134065/ecatslv.o
u16SendMbxSize      0x2               build/LAN9253_D51_SQI_Indirect_mode/production/_ext/108134065/mailbox.o
bEcatWaitForAlControlRes
                    0x1               build/LAN9253_D51_SQI_Indirect_mode/production/_ext/108134065/ecatslv.o
psReadMbx           0x4               build/LAN9253_D51_SQI_Indirect_mode/production/_ext/108134065/mailbox.o
bEcatWaitForInputUpdate
                    0x1               build/LAN9253_D51_SQI_Indirect_mode/production/_ext/108134065/ecatappl.o
sSyncManInPar       0x44              build/LAN9253_D51_SQI_Indirect_mode/production/_ext/108134065/objdef.o
u32MinCycleTimeValue
                    0x4               build/LAN9253_D51_SQI_Indirect_mode/production/_ext/108134065/ecatappl.o
nPdInputSize        0x2               build/LAN9253_D51_SQI_Indirect_mode/production/_ext/108134065/ecatslv.o
gau8DmaBuff         0x800             build/LAN9253_D51_SQI_Indirect_mode/production/_ext/1671622979/Drivers.o
u16SmSync0Value     0x2               build/LAN9253_D51_SQI_Indirect_mode/production/_ext/108134065/ecatslv.o
bStoreCompleteAccess
                    0x1               build/LAN9253_D51_SQI_Indirect_mode/production/_ext/108134065/sdoserv.o
aPdOutputData       0x900             build/LAN9253_D51_SQI_Indirect_mode/production/_ext/108134065/ecatappl.o
bSdoSegLastToggle   0x1               build/LAN9253_D51_SQI_Indirect_mode/production/_ext/108134065/sdoserv.o
handle              0x4               build/LAN9253_D51_SQI_Indirect_mode/production/_ext/1171490990/initialization.o
eicCallbackObject   0xc0              build/LAN9253_D51_SQI_Indirect_mode/production/_ext/60167341/plib_eic.o
nSdoSegService      0x1               build/LAN9253_D51_SQI_Indirect_mode/production/_ext/108134065/sdoserv.o
bReceiveMbxIsLocked
                    0x1               build/LAN9253_D51_SQI_Indirect_mode/production/_ext/108134065/mailbox.o
pAPPL_FoeError      0x4               build/LAN9253_D51_SQI_Indirect_mode/production/_ext/108134065/ecatappl.o
u16EscAddrSendMbx   0x2               build/LAN9253_D51_SQI_Indirect_mode/production/_ext/108134065/mailbox.o
sysObj              0x4               build/LAN9253_D51_SQI_Indirect_mode/production/_ext/1171490990/initialization.o
nMaxEscAddress      0x2               build/LAN9253_D51_SQI_Indirect_mode/production/_ext/108134065/ecatslv.o
bEcatFirstOutputsReceived
                    0x1               build/LAN9253_D51_SQI_Indirect_mode/production/_ext/108134065/ecatslv.o
psWriteMbx          0x4               build/LAN9253_D51_SQI_Indirect_mode/production/_ext/108134065/mailbox.o
u8MbxWriteCounter   0x1               build/LAN9253_D51_SQI_Indirect_mode/production/_ext/108134065/mailbox.o
u32LastDc32Value    0x4               build/LAN9253_D51_SQI_Indirect_mode/production/_ext/108134065/coeappl.o
u32CheckForDcOverrunCnt
                    0x4               build/LAN9253_D51_SQI_Indirect_mode/production/_ext/108134065/coeappl.o
u8MailboxSendReqStored
                    0x1               build/LAN9253_D51_SQI_Indirect_mode/production/_ext/108134065/mailbox.o
pSdoInfoObjEntry    0x4               build/LAN9253_D51_SQI_Indirect_mode/production/_ext/108134065/sdoserv.o
bSmSyncSequenceValid
                    0x1               build/LAN9253_D51_SQI_Indirect_mode/production/_ext/108134065/ecatslv.o
nSdoInfoFragmentsLeft
                    0x2               build/LAN9253_D51_SQI_Indirect_mode/production/_ext/108134065/sdoserv.o
EsmTimeoutCounter   0x2               build/LAN9253_D51_SQI_Indirect_mode/production/_ext/108134065/ecatslv.o
pAPPL_FoeReadData   0x4               build/LAN9253_D51_SQI_Indirect_mode/production/_ext/108134065/ecatappl.o
u16ReceiveMbxSize   0x2               build/LAN9253_D51_SQI_Indirect_mode/production/_ext/108134065/mailbox.o
pSdoResStored       0x4               build/LAN9253_D51_SQI_Indirect_mode/production/_ext/108134065/sdoserv.o
asEmcy              0x8               build/LAN9253_D51_SQI_Indirect_mode/production/_ext/108134065/emcy.o
bBootMode           0x1               build/LAN9253_D51_SQI_Indirect_mode/production/_ext/108134065/ecatslv.o
u32StoreDataSize    0x4               build/LAN9253_D51_SQI_Indirect_mode/production/_ext/108134065/sdoserv.o
transferTxHandle    0x4               build/LAN9253_D51_SQI_Indirect_mode/production/_ext/2070931557/drv_spi.o
pSdoSegData         0x4               build/LAN9253_D51_SQI_Indirect_mode/production/_ext/108134065/sdoserv.o
bDcSyncActive       0x1               build/LAN9253_D51_SQI_Indirect_mode/production/_ext/108134065/ecatslv.o
bEcatOutputUpdateRunning
                    0x1               build/LAN9253_D51_SQI_Indirect_mode/production/_ext/108134065/ecatslv.o
pAPPL_MainLoop      0x4               build/LAN9253_D51_SQI_Indirect_mode/production/_ext/108134065/ecatappl.o
sSyncManOutPar      0x44              build/LAN9253_D51_SQI_Indirect_mode/production/_ext/108134065/objdef.o
sEmptyEmcyQueue     0x10              build/LAN9253_D51_SQI_Indirect_mode/production/_ext/108134065/emcy.o
transferRxHandle    0x4               build/LAN9253_D51_SQI_Indirect_mode/production/_ext/2070931557/drv_spi.o
Sync1WdCounter      0x2               build/LAN9253_D51_SQI_Indirect_mode/production/_ext/108134065/ecatslv.o
setup               0x14              build/LAN9253_D51_SQI_Indirect_mode/production/_ext/2070931557/drv_spi.o
EcatWdValue         0x2               build/LAN9253_D51_SQI_Indirect_mode/production/_ext/108134065/ecatslv.o
bEtherCATErrorLed   0x1               build/LAN9253_D51_SQI_Indirect_mode/production/_ext/108134065/ecatappl.o
u32MinCycleTimeStartValue
                    0x4               build/LAN9253_D51_SQI_Indirect_mode/production/_ext/108134065/ecatappl.o
bSyncSetByUser      0x1               build/LAN9253_D51_SQI_Indirect_mode/production/_ext/108134065/objdef.o
bMbxRepeatToggle    0x1               build/LAN9253_D51_SQI_Indirect_mode/production/_ext/108134065/mailbox.o
bEcatInputUpdateRunning
                    0x1               build/LAN9253_D51_SQI_Indirect_mode/production/_ext/108134065/ecatslv.o
bEscIntEnabled      0x1               build/LAN9253_D51_SQI_Indirect_mode/production/_ext/108134065/ecatslv.o
psRepeatMbx         0x4               build/LAN9253_D51_SQI_Indirect_mode/production/_ext/108134065/mailbox.o
nSdoSegIndex        0x2               build/LAN9253_D51_SQI_Indirect_mode/production/_ext/108134065/sdoserv.o
aSdoInfoHeader      0x10              build/LAN9253_D51_SQI_Indirect_mode/production/_ext/108134065/sdoserv.o
pSdoSegObjEntry     0x4               build/LAN9253_D51_SQI_Indirect_mode/production/_ext/108134065/sdoserv.o
aPdInputData        0x900             build/LAN9253_D51_SQI_Indirect_mode/production/_ext/108134065/ecatappl.o
bWdTrigger          0x1               build/LAN9253_D51_SQI_Indirect_mode/production/_ext/108134065/ecatslv.o
nSdoSegSubindex     0x1               build/LAN9253_D51_SQI_Indirect_mode/production/_ext/108134065/sdoserv.o
u16StoreIndex       0x2               build/LAN9253_D51_SQI_Indirect_mode/production/_ext/108134065/sdoserv.o
bEtherCATRunLed     0x1               build/LAN9253_D51_SQI_Indirect_mode/production/_ext/108134065/ecatappl.o
pAPPL_FoeWriteData  0x4               build/LAN9253_D51_SQI_Indirect_mode/production/_ext/108134065/ecatappl.o
u16SmSync0Counter   0x2               build/LAN9253_D51_SQI_Indirect_mode/production/_ext/108134065/ecatslv.o
pFoeSendStored      0x4               build/LAN9253_D51_SQI_Indirect_mode/production/_ext/108134065/ecatfoe.o
nMaxSyncMan         0x1               build/LAN9253_D51_SQI_Indirect_mode/production/_ext/108134065/ecatslv.o
u8StoreSubindex     0x1               build/LAN9253_D51_SQI_Indirect_mode/production/_ext/108134065/sdoserv.o
aFileName           0x16              build/LAN9253_D51_SQI_Indirect_mode/production/_ext/108134065/sample_app.o
u32LastFileOffset   0x4               build/LAN9253_D51_SQI_Indirect_mode/production/_ext/108134065/ecatfoe.o
pAPPL_FoeRead       0x4               build/LAN9253_D51_SQI_Indirect_mode/production/_ext/108134065/ecatappl.o
dmacChannelObj      0x20              build/LAN9253_D51_SQI_Indirect_mode/production/_ext/1865161661/plib_dmac.o
sCycleDiag          0x2               build/LAN9253_D51_SQI_Indirect_mode/production/_ext/108134065/objdef.o
systick             0xc               build/LAN9253_D51_SQI_Indirect_mode/production/_ext/1827571544/plib_systick.o
pAPPL_FoeWrite      0x4               build/LAN9253_D51_SQI_Indirect_mode/production/_ext/108134065/ecatappl.o
u16FoeMaxSendBlockSize
                    0x2               build/LAN9253_D51_SQI_Indirect_mode/production/_ext/108134065/ecatfoe.o
u8EcatErrorLed      0x1               build/LAN9253_D51_SQI_Indirect_mode/production/_ext/108134065/ecatslv.o
nEscAddrInputData   0x2               build/LAN9253_D51_SQI_Indirect_mode/production/_ext/108134065/ecatslv.o

Microchip PIC32 Memory-Usage Report

ROM Program-Memory Usage
section                    address  length [bytes]      (dec)  Description
-------                 ----------  -------------------------  -----------
.vectors                         0          0x260         608   
.text                        0x260           0x20          32  App's exec code 
.dinit                       0x280         0x16c0        5824   
.text.AL_ControlInd         0x1940          0x924        2340   
.text.SDOS_SdoInd           0x2264          0x81c        2076   
.rodata.aName0x1601         0x2a80          0x6a0        1696   
.rodata.aName0x1A00         0x3120          0x6a0        1696   
.text.StartInputHandler     0x37c0          0x664        1636   
.rodata.aName0x7010         0x3e24          0x520        1312   
.rodata.aName0x6000         0x4344          0x51c        1308   
.text.OBJ_Write             0x4860          0x510        1296   
.text.OBJ_Read              0x4d70          0x46c        1132   
.text._malloc_r             0x51dc          0x438        1080   
.rodata.asEntryDesc0x16     0x5614          0x308         776   
.rodata.asEntryDesc0x1A     0x591c          0x308         776   
.rodata.asEntryDesc0x60     0x5c24          0x308         776   
.rodata.asEntryDesc0x70     0x5f2c          0x308         776   
.text.FOE_ServiceInd        0x6234          0x2ec         748   
.text.SDOS_SdoInfoInd       0x6520          0x2c4         708   
.text.AL_ControlRes         0x67e4          0x24c         588   
.text.CheckSmSettings       0x6a30          0x244         580   
.text._free_r               0x6c74          0x178         376   
.text.ECAT_Main             0x6dec          0x14c         332   
.text.CheckSyncTypeValu     0x6f38          0x134         308   
.text.ECAT_Init             0x706c          0x124         292   
.text.SetALStatus           0x7190          0x114         276   
.text.MBX_StopMailboxHa     0x72a4          0x114         276   
.text.PDI_Isr               0x73b8          0x110         272   
.text.Sync0_Isr             0x74c8          0x108         264   
.text.APPL_GenerateMapp     0x75d0          0x108         264   
.rodata.aName0x1C32         0x76d8          0x100         256   
.rodata.aName0x1C33         0x77d8          0x100         256   
.text.MBX_CheckAndCopyM     0x78d8           0xfc         252   
.text.SendSmFailedEmerg     0x79d4           0xf8         248   
.text.SdoRes                0x7acc           0xf4         244   
.text.GetDummyBytesRequ     0x7bc0           0xf0         240   
.text.COE_ObjInit           0x7cb0           0xec         236   
.text.FoE_WriteData         0x7d9c           0xe8         232   
.text.OBJ_GetDesc           0x7e84           0xe0         224   
.text.SDOS_SdoRes           0x7f64           0xe0         224   
.text.CLOCK_Initialize      0x8044           0xdc         220   
.text.HW_EscRead            0x8120           0xdc         220   
.text.StopInputHandler      0x81fc           0xdc         220   
.text.MainLoop              0x82d8           0xd4         212   
.text.DC_CheckWatchdog      0x83ac           0xd0         208   
.text.OBJ_GetEntryOffse     0x847c           0xd0         208   
.text.EscRead               0x854c           0xcc         204   
.text.MBX_Init              0x8618           0xcc         204   
.text.MBX_CopyToSendMai     0x86e4           0xcc         204   
.rodata.asEntryDesc0x1C     0x87b0           0xc8         200   
.text.MBX_MailboxReadIn     0x8878           0xc8         200   
.text.MainInit              0x8940           0xbc         188   
.text.LAN925x_Init          0x89fc           0xb0         176   
.text.MBX_StartMailboxH     0x8aac           0xb0         176   
.text.HW_EscWrite           0x8b5c           0xac         172   
.text.COE_Main              0x8c08           0xa8         168   
.text.OBJ_GetObjectList     0x8cb0           0xa8         168   
.text.EscWrite              0x8d58           0xa4         164   
.text.SODS_ClearPending     0x8dfc           0xa4         164   
.text.Reset_Handler         0x8ea0           0x98         152   
.text.PDO_OutputMapping     0x8f38           0x94         148   
.text.OBJ_GetObjectLeng     0x8fcc           0x94         148   
.text._malloc_trim_r        0x9060           0x94         148   
.text.MBX_MailboxSendRe     0x90f4           0x8c         140   
.text.FoE_Read              0x9180           0x8c         140   
.text.EIC_Initialize        0x920c           0x84         132   
.text._DMAC_interruptHa     0x9290           0x80         128   
.text.QSPI_MemoryRead       0x9310           0x80         128   
.text.__pic32c_data_ini     0x9390           0x80         128   
.text.QSPI_MemoryWrite      0x9410           0x7c         124   
.text.COE_AddObjectToDi     0x948c           0x7c         124   
.text.ECAT_CheckTimer       0x9508           0x7c         124   
.text.EMCY_SendEmergenc     0x9584           0x7c         124   
.text.LAN9252SQI_ReadPD     0x9600           0x78         120   
.text.PDO_InputMapping      0x9678           0x78         120   
.text.MBX_MailboxWriteI     0x96f0           0x78         120   
.text.MBX_Main              0x9768           0x78         120   
.rodata.cAbortCode          0x97e0           0x78         120   
.text.APP_Tasks             0x9858           0x78         120   
.text.DMAC_Initialize       0x98d0           0x74         116   
.text.COE_SyncTimeStamp     0x9944           0x6c         108   
.text.NVIC_Initialize       0x99b0           0x68         104   
.text.ESF_PDI_Init          0x9a18           0x60          96   
.text.MBX_MailboxRepeat     0x9a78           0x60          96   
.text.HW_GetALEventRegi     0x9ad8           0x5c          92   
.text.OBJ_GetNoOfObject     0x9b34           0x5a          90   
.text.EVSYS_Initialize      0x9b8e            0x2           2   
.text.LAN9252SQI_Read       0x9b90           0x58          88   
.text.LAN9252SQI_WriteP     0x9be8           0x58          88   
.text.COE_UpdateSyncErr     0x9c40           0x58          88   
.text.qspi_setup_transf     0x9c98           0x54          84   
.text.HW_GetALEventRegi     0x9cec           0x54          84   
.text.ECAT_CheckWatchdo     0x9d40           0x54          84   
.text.BL_FOE_Applicatio     0x9d94           0x54          84   
.text.HandleCycleTimeMe     0x9de8           0x50          80   
.text.StartOutputHandle     0x9e38           0x50          80   
.text.QSPI_RegisterWrit     0x9e88           0x4c          76   
.text.FoE_Write             0x9ed4           0x4c          76   
.text.PORT_Initialize       0x9f20           0x48          72   
.text.ReBuild_SQI_SetCf     0x9f68           0x48          72   
.text.__libc_init_array     0x9fb0           0x48          72   
.text.QSPI_CommandWrite     0x9ff8           0x44          68   
.text.Read0x10F8            0xa03c           0x44          68   
.text.COE_ContinueInd       0xa080           0x44          68   
.text.APPL_Application      0xa0c4           0x44          68   
.text.APP_FlashWrite        0xa108           0x42          66   
.text.NonMaskableInt_Ha     0xa14a            0x2           2   
.text                       0xa14c           0x40          64  App's exec code 
.text.HW_EscReadIsr         0xa18c           0x40          64   
.text.HW_EscWriteIsr        0xa1cc           0x40          64   
.text.COE_RemoveDicEntr     0xa20c           0x40          64   
.rodata.aName0x10F1         0xa24c           0x40          64   
.text.Sync1_Isr             0xa28c           0x40          64   
.text.CheckIfEcatError      0xa2cc           0x40          64   
.rodata.aName0x1018         0xa30c           0x3c          60   
.text.GetSystemTimeDela     0xa348           0x3c          60   
.text.FOE_Data              0xa384           0x3c          60   
.text.MailboxServiceInd     0xa3c0           0x3c          60   
.text.OBJ_CopyNumberToS     0xa3fc           0x3c          60   
.text.NVMCTRL_PageWrite     0xa438           0x38          56   
.text.ResetALEventMask      0xa470           0x38          56   
.text.SetALEventMask        0xa4a8           0x38          56   
.text.DisableSyncManCha     0xa4e0           0x36          54   
.text.HardFault_Handler     0xa516            0x2           2   
.text.ECAT_Application      0xa518           0x34          52   
.text.EnableSyncManChan     0xa54c           0x34          52   
.text.EMCY_Init             0xa580           0x34          52   
.text.FoE_ReadData          0xa5b4           0x34          52   
.text.ESC_IRQ_cb            0xa5e8           0x30          48   
.text.UpdateEEPROMLoade     0xa618           0x30          48   
.text.GetOutOfEmptyEmcy     0xa648           0x30          48   
.text.GetOutOfSendEmcyQ     0xa678           0x30          48   
.text.ESC_BYTE_TEST_Reg     0xa6a8           0x2e          46   
.text.DebugMonitor_Hand     0xa6d6            0x2           2   
.text.EIC_CallbackRegis     0xa6d8           0x2c          44   
.text.SYS_Initialize        0xa704           0x2c          44   
.text.COE_ObjDictionary     0xa730           0x2c          44   
.text.COE_ServiceInd        0xa75c           0x2c          44   
.text._sbrk                 0xa788           0x2c          44   
.text.AddObjectsToObjDi     0xa7b4           0x2a          42   
.text.PutInMbxQueue         0xa7de           0x2a          42   
.text.FOE_Read              0xa808           0x28          40   
.text.GetOutOfMbxQueue      0xa830           0x28          40   
.text.LAN9252SQI_Write      0xa858           0x26          38   
.text.MemoryManagement_     0xa87e            0x2           2   
.text.QSPI_Initialize       0xa880           0x24          36   
.text.SYSTICK_TimerInit     0xa8a4           0x24          36   
.text.SQI_SetConfigurat     0xa8c8           0x24          36   
.text.APP_FW_startDownl     0xa8ec           0x24          36   
.text.OBJ_GetEntryDesc      0xa910           0x22          34   
.text.BusFault_Handler      0xa932            0x2           2   
.text.EIC_EXTINT_0_Inte     0xa934           0x20          32   
.text.EIC_EXTINT_1_Inte     0xa954           0x20          32   
.text.EIC_EXTINT_7_Inte     0xa974           0x20          32   
.text.PDI_Init_SYNC_Int     0xa994           0x20          32   
.text.COE_ClearObjDicti     0xa9b4           0x20          32   
.rodata.asEntryDesc0x10     0xa9d4           0x20          32   
.text.PutInEmptyEmcyQue     0xa9f4           0x20          32   
.text.PutInSendEmcyQueu     0xaa14           0x20          32   
.text.FOE_Ack               0xaa34           0x20          32   
.text.OBJ_GetObjectHand     0xaa54           0x20          32   
.rodata.cBitMask            0xaa74           0x20          32   
.text._sbrk_r               0xaa94           0x20          32   
.text.SQI_EnableQuadMod     0xaab4           0x1e          30   
.text.SQI_DisableQuadMo     0xaad2           0x1e          30   
.text.NVMCTRL_BlockEras     0xaaf0           0x1c          28   
.text.SysTick_Handler       0xab0c           0x1c          28   
.rodata.aName0x1C12         0xab28           0x1c          28   
.rodata.aName0x1C13         0xab44           0x1c          28   
.text.FOE_Init              0xab60           0x1c          28   
.text.FOE_ContinueInd       0xab7c           0x1c          28   
.text.GetSyncMan            0xab98           0x1c          28   
.text.APP_FW_StateBOOTt     0xabb4           0x1c          28   
.text.FOE_Write             0xabd0           0x18          24   
.text.memcpy                0xabe8           0x16          22   
.text.qspi_memcpy_8bit      0xabfe           0x14          20   
.text.UsageFault_Handle     0xac12            0x2           2   
.text.SYSTICK_TimerStar     0xac14           0x14          20   
.text.ECAT_SysTick_Hand     0xac28           0x14          20   
.text.PDI_Timer_Interru     0xac3c           0x14          20   
.text.PDI_IRQ_Interrupt     0xac50           0x14          20   
.rodata.aName0x1009         0xac64           0x14          20   
.rodata.aName0x100A         0xac78           0x14          20   
.rodata.aName0x10F8         0xac8c           0x14          20   
.rodata.aName0x1C00         0xaca0           0x14          20   
.rodata.asEntryDesc0x10     0xacb4           0x14          20   
.text.COE_Init              0xacc8           0x14          20   
.text.StopOutputHandler     0xacdc           0x14          20   
.text.EMCY_IsQueueEmpty     0xacf0           0x14          20   
.text.NVMCTRL_Initializ     0xad04           0x10          16   
.text.NVMCTRL_IsBusy        0xad14           0x10          16   
.text.NVMCTRL_BankSwap      0xad24           0x10          16   
.rodata.aName0x1001         0xad34           0x10          16   
.text.FOE_Error             0xad44           0x10          16   
.text.malloc                0xad54           0x10          16   
.text.free                  0xad64           0x10          16   
.text.memset                0xad74           0x10          16   
.text                       0xad84           0x10          16  App's exec code 
.text.EMCY_ContinueInd      0xad94            0xe          14   
.text.main                  0xada2            0xe          14   
.text.SYSTICK_TimerCall     0xadb0            0xc          12   
.text.COE_GetObjectDict     0xadbc            0xc          12   
.rodata.aName0x1000         0xadc8            0xc          12   
.rodata.aName0x1008         0xadd4            0xc          12   
.rodata.asEntryDesc0x1C     0xade0            0xc          12   
.rodata.asEntryDesc0x1C     0xadec            0xc          12   
.rodata.asEntryDesc0x1C     0xadf8            0xc          12   
.text.FOE_Busy              0xae04            0xc          12   
.text.APP_FW_GetDownloa     0xae10            0xc          12   
.text.APPL_InputMapping     0xae1c            0xc          12   
.text.APPL_OutputMappin     0xae28            0xc          12   
.text.APP_Initialize        0xae34            0xc          12   
.text.DMAC_0_Handler        0xae40            0xa          10   
.text.DMAC_1_Handler        0xae4a            0xa          10   
.text.APPL_StopMailboxH     0xae54            0xa          10   
.text.SYS_Tasks             0xae5e            0x8           8   
.text.CRITICAL_SECTION_     0xae66            0x8           8   
.text.CRITICAL_SECTION_     0xae6e            0x8           8   
.text.ESC_Sync0_cb          0xae76            0x8           8   
.text.ESC_Sync1_cb          0xae7e            0x8           8   
.text.ESC_Init              0xae86            0x8           8   
.text.Dummy_Handler         0xae8e            0x2           2   
.rodata.sEntryDesc0x100     0xae90            0x8           8   
.rodata.sEntryDesc0x100     0xae98            0x8           8   
.rodata.sEntryDesc0x100     0xaea0            0x8           8   
.rodata.sEntryDesc0x100     0xaea8            0x8           8   
.rodata.sEntryDesc0x100     0xaeb0            0x8           8   
.rodata.sEntryDesc0x10F     0xaeb8            0x8           8   
.text.EMCY_GetEmcyBuffe     0xaec0            0x8           8   
.rodata.acEmcyCoeHeader     0xaec8            0x8           8   
.text.PORT_GroupSet         0xaed0            0x4           4   
.text.PORT_GroupClear       0xaed4            0x4           4   
.text.PORT_GroupOutputE     0xaed8            0x4           4   
.text.OBJ_GetObjDesc        0xaedc            0x4           4   
.text.APPL_StartMailbox     0xaee0            0x4           4   
.text.APPL_StartInputHa     0xaee4            0x4           4   
.text.APPL_StopInputHan     0xaee8            0x4           4   
.text.APPL_StartOutputH     0xaeec            0x4           4   
.text.APPL_StopOutputHa     0xaef0            0x4           4   
.text.BL_Start              0xaef4            0x2           2   
.text.BL_Stop               0xaef6            0x2           2   
.text.APPL_AckErrorInd      0xaef8            0x2           2   
.text.__malloc_lock         0xaefa            0x2           2   
.text.__malloc_unlock       0xaefc            0x2           2   
      Total ROM used  :      0xaefe       44798  8.5% of 0x80000
        --------------------------------------------------------------------------
         Total Program Memory used  :      0xaefe       44798  8.5% of 0x80000
        --------------------------------------------------------------------------


RAM Data-Memory Usage
section                    address  length [bytes]      (dec)  Description
-------                 ----------  -------------------------  -----------
.bss                    0x20000000         0x3560       13664  Uninitialized data 
.data.impure_data       0x20003560          0x418        1048   
.data.__malloc_av_      0x20003978          0x408        1032   
.data.Inputs0x6000      0x20003d80          0x204         516   
.data.InputsProcessData 0x20003f84          0x204         516   
.data.Outputs0x7010     0x20004188          0x204         516   
.data.OutputsProcessDat 0x2000438c          0x204         516   
.data.GenObjDic         0x20004590          0x1e0         480   
.data.ApplicationObjDic 0x20004770          0x118         280   
.bss.__malloc_current_m 0x20004888           0x28          40   
.data.gau8DummyCntArr   0x200048b0           0x27          39   
.bss.gbALEvtOpEnabled   0x200048d7            0x1           1   
.bss._write_back_sectio 0x200048d8           0x20          32   
.bss.descriptor_section 0x200048f8           0x20          32   
.bss.gau8rx_data        0x20004918           0x20          32   
.bss                    0x20004938           0x1c          28  Uninitialized data 
.data.acDevicename      0x20004954           0x16          22   
.bss.nvm_error          0x2000496a            0x2           2   
.data.sIdentity         0x2000496c           0x14          20   
.data.aSubindexDesc     0x20004980            0xd          13   
.bss.bInitFinished      0x2000498d            0x1           1   
.bss.EepromLoaded       0x2000498e            0x1           1   
.bss.gFirmwareDownload_ 0x2000498f            0x1           1   
.data.sErrorSettings    0x20004990            0xc          12   
.bss.ObjDicList         0x2000499c            0x4           4   
.bss.u64Timestamp       0x200049a0            0x8           8   
.data.sSyncmanagertype  0x200049a8            0x6           6   
.bss.u16ErrorRegister   0x200049ae            0x2           2   
.data.acHardwareversion 0x200049b0            0x4           4   
.data.acSoftwareversion 0x200049b4            0x4           4   
.data.u32Devicetype     0x200049b8            0x4           4   
.bss.SMActivate         0x200049bc            0x4           4   
.bss.gTriggerCounterVal 0x200049c0            0x4           4   
.bss.nFileStartWriteAdd 0x200049c4            0x4           4   
.bss.nFileWriteOffset   0x200049c8            0x4           4   
.bss.u32FileSize        0x200049cc            0x4           4   
.data.gFOETestFrameSize 0x200049d0            0x4           4   
.data.sRxPDOassign      0x200049d4            0x4           4   
.data.sTxPDOassign      0x200049d8            0x4           4   
.bss.__malloc_max_sbrke 0x200049dc            0x4           4   
.bss.__malloc_max_total 0x200049e0            0x4           4   
.bss.__malloc_top_pad   0x200049e4            0x4           4   
.data.__malloc_sbrk_bas 0x200049e8            0x4           4   
.data.__malloc_trim_thr 0x200049ec            0x4           4   
.data._impure_ptr       0x200049f0            0x4           4   
.bss                    0x200049f4            0x4           4  Uninitialized data 
.bss.gFirmwareDownload_ 0x200049f8            0x1           1   
.bss.bSdoInWork         0x200049f9            0x1           1   
         Total RAM used  :      0x49fa       18938  9.6% of 0x30000
        --------------------------------------------------------------------------
            Total Data Memory used  :      0x49fa       18938  9.6% of 0x30000
        --------------------------------------------------------------------------


Dynamic Data-Memory Reservation
section                    address  length [bytes]      (dec)  Description
-------                 ----------  -------------------------  -----------
heap                    0x20004a00          0x200         512  Reserved for heap 
stack                   0x20004c18        0x2b3d8      177112  Reserved for stack 

        --------------------------------------------------------------------------

Discarded input sections

 .text          0x00000000        0x0 c:/program files (x86)/microchip/xc32/v2.30/bin/bin/../../lib/gcc/pic32c/6.2.1/v7e-m/fpv4-sp/hard/crti.o
 .data          0x00000000        0x0 c:/program files (x86)/microchip/xc32/v2.30/bin/bin/../../lib/gcc/pic32c/6.2.1/v7e-m/fpv4-sp/hard/crti.o
 .bss           0x00000000        0x0 c:/program files (x86)/microchip/xc32/v2.30/bin/bin/../../lib/gcc/pic32c/6.2.1/v7e-m/fpv4-sp/hard/crti.o
 .data          0x00000000        0x4 c:/program files (x86)/microchip/xc32/v2.30/bin/bin/../../lib/gcc/pic32c/6.2.1/v7e-m/fpv4-sp/hard/crtbegin.o
 .text          0x00000000        0x0 build/LAN9253_D51_SQI_Indirect_mode/production/_ext/2070931557/drv_spi.o
 .data          0x00000000        0x0 build/LAN9253_D51_SQI_Indirect_mode/production/_ext/2070931557/drv_spi.o
 .bss           0x00000000        0x0 build/LAN9253_D51_SQI_Indirect_mode/production/_ext/2070931557/drv_spi.o
 .text._DRV_SPI_DriverHandleValidate
                0x00000000       0x4c build/LAN9253_D51_SQI_Indirect_mode/production/_ext/2070931557/drv_spi.o
 .text._DRV_SPI_RemoveTransferObjFromList
                0x00000000       0x12 build/LAN9253_D51_SQI_Indirect_mode/production/_ext/2070931557/drv_spi.o
 .text._APP_MyTransferEventHandler
                0x00000000       0x38 build/LAN9253_D51_SQI_Indirect_mode/production/_ext/2070931557/drv_spi.o
 .text._DRV_SPI_TX_DMA_CallbackHandler
                0x00000000       0x54 build/LAN9253_D51_SQI_Indirect_mode/production/_ext/2070931557/drv_spi.o
 .text._DRV_SPI_UpdateTransferSetupAndAssertCS
                0x00000000       0x98 build/LAN9253_D51_SQI_Indirect_mode/production/_ext/2070931557/drv_spi.o
 .text._DRV_SPI_StartDMATransfer
                0x00000000      0x1a8 build/LAN9253_D51_SQI_Indirect_mode/production/_ext/2070931557/drv_spi.o
 .text._DRV_SPI_ResourceLock
                0x00000000       0xcc build/LAN9253_D51_SQI_Indirect_mode/production/_ext/2070931557/drv_spi.o
 .text._DRV_SPI_ResourceUnlock
                0x00000000       0xb6 build/LAN9253_D51_SQI_Indirect_mode/production/_ext/2070931557/drv_spi.o
 .text._DRV_SPI_RX_DMA_CallbackHandler
                0x00000000      0x158 build/LAN9253_D51_SQI_Indirect_mode/production/_ext/2070931557/drv_spi.o
 .text._DRV_SPI_PlibCallbackHandler
                0x00000000       0xd8 build/LAN9253_D51_SQI_Indirect_mode/production/_ext/2070931557/drv_spi.o
 .text.DRV_SPI_Initialize
                0x00000000       0xbc build/LAN9253_D51_SQI_Indirect_mode/production/_ext/2070931557/drv_spi.o
 .text.DRV_SPI_Status
                0x00000000       0x14 build/LAN9253_D51_SQI_Indirect_mode/production/_ext/2070931557/drv_spi.o
 .text.DRV_SPI_Open
                0x00000000       0xfc build/LAN9253_D51_SQI_Indirect_mode/production/_ext/2070931557/drv_spi.o
 .text.DRV_SPI_Close
                0x00000000       0xbc build/LAN9253_D51_SQI_Indirect_mode/production/_ext/2070931557/drv_spi.o
 .text.DRV_SPI_TransferEventHandlerSet
                0x00000000       0x34 build/LAN9253_D51_SQI_Indirect_mode/production/_ext/2070931557/drv_spi.o
 .text.DRV_SPI_TransferSetup
                0x00000000       0x94 build/LAN9253_D51_SQI_Indirect_mode/production/_ext/2070931557/drv_spi.o
 .text._SPI_initialize
                0x00000000       0x50 build/LAN9253_D51_SQI_Indirect_mode/production/_ext/2070931557/drv_spi.o
 .text.DRV_SPI_WriteReadTransferAdd
                0x00000000      0x1a8 build/LAN9253_D51_SQI_Indirect_mode/production/_ext/2070931557/drv_spi.o
 .text.DRV_SPI_WriteTransferAdd
                0x00000000       0x14 build/LAN9253_D51_SQI_Indirect_mode/production/_ext/2070931557/drv_spi.o
 .text._SPI_Tx  0x00000000       0x3c build/LAN9253_D51_SQI_Indirect_mode/production/_ext/2070931557/drv_spi.o
 .text.DRV_SPITransfer
                0x00000000       0x3a build/LAN9253_D51_SQI_Indirect_mode/production/_ext/2070931557/drv_spi.o
 .text.DRV_SPI_ReadTransferAdd
                0x00000000       0x14 build/LAN9253_D51_SQI_Indirect_mode/production/_ext/2070931557/drv_spi.o
 .text._SPI_Rx  0x00000000       0x3c build/LAN9253_D51_SQI_Indirect_mode/production/_ext/2070931557/drv_spi.o
 .text.DRV_SPIReceive
                0x00000000       0x3a build/LAN9253_D51_SQI_Indirect_mode/production/_ext/2070931557/drv_spi.o
 .text.DRV_SPI_TransferStatusGet
                0x00000000       0x3c build/LAN9253_D51_SQI_Indirect_mode/production/_ext/2070931557/drv_spi.o
 .text.DRV_SPI_Lock
                0x00000000       0xc4 build/LAN9253_D51_SQI_Indirect_mode/production/_ext/2070931557/drv_spi.o
 .bss.gDrvSPIObj
                0x00000000       0x6c build/LAN9253_D51_SQI_Indirect_mode/production/_ext/2070931557/drv_spi.o
 .bss.txDummyData
                0x00000000       0x20 build/LAN9253_D51_SQI_Indirect_mode/production/_ext/2070931557/drv_spi.o
 .data.gis_Rx_DMAComplete
                0x00000000        0x1 build/LAN9253_D51_SQI_Indirect_mode/production/_ext/2070931557/drv_spi.o
 .data.gis_Tx_DMAComplete
                0x00000000        0x1 build/LAN9253_D51_SQI_Indirect_mode/production/_ext/2070931557/drv_spi.o
 .debug_info    0x00000000     0x5671 build/LAN9253_D51_SQI_Indirect_mode/production/_ext/2070931557/drv_spi.o
 .debug_abbrev  0x00000000      0x5a7 build/LAN9253_D51_SQI_Indirect_mode/production/_ext/2070931557/drv_spi.o
 .debug_loc     0x00000000     0x1f7e build/LAN9253_D51_SQI_Indirect_mode/production/_ext/2070931557/drv_spi.o
 .debug_aranges
                0x00000000       0xe8 build/LAN9253_D51_SQI_Indirect_mode/production/_ext/2070931557/drv_spi.o
 .debug_ranges  0x00000000      0x1b8 build/LAN9253_D51_SQI_Indirect_mode/production/_ext/2070931557/drv_spi.o
 .debug_line    0x00000000      0x9e2 build/LAN9253_D51_SQI_Indirect_mode/production/_ext/2070931557/drv_spi.o
 .debug_str     0x00000000      0x261 build/LAN9253_D51_SQI_Indirect_mode/production/_ext/2070931557/drv_spi.o
 .comment       0x00000000       0x3d build/LAN9253_D51_SQI_Indirect_mode/production/_ext/2070931557/drv_spi.o
 .debug_frame   0x00000000      0x2d4 build/LAN9253_D51_SQI_Indirect_mode/production/_ext/2070931557/drv_spi.o
 .ARM.attributes
                0x00000000       0x39 build/LAN9253_D51_SQI_Indirect_mode/production/_ext/2070931557/drv_spi.o
 COMMON         0x00000000       0x1c build/LAN9253_D51_SQI_Indirect_mode/production/_ext/2070931557/drv_spi.o
 .text          0x00000000        0x0 build/LAN9253_D51_SQI_Indirect_mode/production/_ext/1984496892/plib_clock.o
 .data          0x00000000        0x0 build/LAN9253_D51_SQI_Indirect_mode/production/_ext/1984496892/plib_clock.o
 .bss           0x00000000        0x0 build/LAN9253_D51_SQI_Indirect_mode/production/_ext/1984496892/plib_clock.o
 .text          0x00000000        0x0 build/LAN9253_D51_SQI_Indirect_mode/production/_ext/1865131932/plib_cmcc.o
 .data          0x00000000        0x0 build/LAN9253_D51_SQI_Indirect_mode/production/_ext/1865131932/plib_cmcc.o
 .bss           0x00000000        0x0 build/LAN9253_D51_SQI_Indirect_mode/production/_ext/1865131932/plib_cmcc.o
 .text.CMCC_Disable
                0x00000000       0x18 build/LAN9253_D51_SQI_Indirect_mode/production/_ext/1865131932/plib_cmcc.o
 .text.CMCC_EnableICache
                0x00000000       0x28 build/LAN9253_D51_SQI_Indirect_mode/production/_ext/1865131932/plib_cmcc.o
 .text.CMCC_DisableICache
                0x00000000       0x28 build/LAN9253_D51_SQI_Indirect_mode/production/_ext/1865131932/plib_cmcc.o
 .text.CMCC_EnableDCache
                0x00000000       0x28 build/LAN9253_D51_SQI_Indirect_mode/production/_ext/1865131932/plib_cmcc.o
 .text.CMCC_DisableDCache
                0x00000000       0x28 build/LAN9253_D51_SQI_Indirect_mode/production/_ext/1865131932/plib_cmcc.o
 .text.CMCC_InvalidateAll
                0x00000000       0x20 build/LAN9253_D51_SQI_Indirect_mode/production/_ext/1865131932/plib_cmcc.o
 .debug_info    0x00000000      0x5a6 build/LAN9253_D51_SQI_Indirect_mode/production/_ext/1865131932/plib_cmcc.o
 .debug_abbrev  0x00000000       0x93 build/LAN9253_D51_SQI_Indirect_mode/production/_ext/1865131932/plib_cmcc.o
 .debug_aranges
                0x00000000       0x48 build/LAN9253_D51_SQI_Indirect_mode/production/_ext/1865131932/plib_cmcc.o
 .debug_ranges  0x00000000       0x38 build/LAN9253_D51_SQI_Indirect_mode/production/_ext/1865131932/plib_cmcc.o
 .debug_line    0x00000000      0x1cf build/LAN9253_D51_SQI_Indirect_mode/production/_ext/1865131932/plib_cmcc.o
 .debug_str     0x00000000        0x0 build/LAN9253_D51_SQI_Indirect_mode/production/_ext/1865131932/plib_cmcc.o
 .comment       0x00000000       0x3d build/LAN9253_D51_SQI_Indirect_mode/production/_ext/1865131932/plib_cmcc.o
 .debug_frame   0x00000000       0x70 build/LAN9253_D51_SQI_Indirect_mode/production/_ext/1865131932/plib_cmcc.o
 .ARM.attributes
                0x00000000       0x39 build/LAN9253_D51_SQI_Indirect_mode/production/_ext/1865131932/plib_cmcc.o
 .text          0x00000000        0x0 build/LAN9253_D51_SQI_Indirect_mode/production/_ext/1865161661/plib_dmac.o
 .data          0x00000000        0x0 build/LAN9253_D51_SQI_Indirect_mode/production/_ext/1865161661/plib_dmac.o
 .bss           0x00000000        0x0 build/LAN9253_D51_SQI_Indirect_mode/production/_ext/1865161661/plib_dmac.o
 .text.DMAC_ChannelTransfer
                0x00000000       0xe4 build/LAN9253_D51_SQI_Indirect_mode/production/_ext/1865161661/plib_dmac.o
 .text.DMAC_ChannelIsBusy
                0x00000000       0x30 build/LAN9253_D51_SQI_Indirect_mode/production/_ext/1865161661/plib_dmac.o
 .text.DMAC_ChannelTransferStatusGet
                0x00000000       0x1e build/LAN9253_D51_SQI_Indirect_mode/production/_ext/1865161661/plib_dmac.o
 .text.DMAC_ChannelDisable
                0x00000000       0x2c build/LAN9253_D51_SQI_Indirect_mode/production/_ext/1865161661/plib_dmac.o
 .text.DMAC_ChannelGetTransferredCount
                0x00000000       0x1c build/LAN9253_D51_SQI_Indirect_mode/production/_ext/1865161661/plib_dmac.o
 .text.DMAC_ChannelCallbackRegister
                0x00000000       0x10 build/LAN9253_D51_SQI_Indirect_mode/production/_ext/1865161661/plib_dmac.o
 .text.DMAC_ChannelSettingsGet
                0x00000000       0x10 build/LAN9253_D51_SQI_Indirect_mode/production/_ext/1865161661/plib_dmac.o
 .text.DMAC_ChannelSettingsSet
                0x00000000       0x2c build/LAN9253_D51_SQI_Indirect_mode/production/_ext/1865161661/plib_dmac.o
 .text.DMAC_ChannelSuspend
                0x00000000       0x1c build/LAN9253_D51_SQI_Indirect_mode/production/_ext/1865161661/plib_dmac.o
 .text.DMAC_ChannelResume
                0x00000000       0x1c build/LAN9253_D51_SQI_Indirect_mode/production/_ext/1865161661/plib_dmac.o
 .text.DMAC_CRCDisable
                0x00000000        0xc build/LAN9253_D51_SQI_Indirect_mode/production/_ext/1865161661/plib_dmac.o
 .text.DMAC_ChannelCRCSetup
                0x00000000       0x40 build/LAN9253_D51_SQI_Indirect_mode/production/_ext/1865161661/plib_dmac.o
 .text.DMAC_CRCRead
                0x00000000        0xc build/LAN9253_D51_SQI_Indirect_mode/production/_ext/1865161661/plib_dmac.o
 .text.DMAC_CRCCalculate
                0x00000000       0x84 build/LAN9253_D51_SQI_Indirect_mode/production/_ext/1865161661/plib_dmac.o
 .text          0x00000000        0x0 build/LAN9253_D51_SQI_Indirect_mode/production/_ext/60167341/plib_eic.o
 .data          0x00000000        0x0 build/LAN9253_D51_SQI_Indirect_mode/production/_ext/60167341/plib_eic.o
 .bss           0x00000000        0x0 build/LAN9253_D51_SQI_Indirect_mode/production/_ext/60167341/plib_eic.o
 .text.EIC_InterruptEnable
                0x00000000       0x10 build/LAN9253_D51_SQI_Indirect_mode/production/_ext/60167341/plib_eic.o
 .text.EIC_InterruptDisable
                0x00000000       0x10 build/LAN9253_D51_SQI_Indirect_mode/production/_ext/60167341/plib_eic.o
 .text          0x00000000        0x0 build/LAN9253_D51_SQI_Indirect_mode/production/_ext/1986646378/plib_evsys.o
 .data          0x00000000        0x0 build/LAN9253_D51_SQI_Indirect_mode/production/_ext/1986646378/plib_evsys.o
 .bss           0x00000000        0x0 build/LAN9253_D51_SQI_Indirect_mode/production/_ext/1986646378/plib_evsys.o
 .text          0x00000000        0x0 build/LAN9253_D51_SQI_Indirect_mode/production/_ext/1865468468/plib_nvic.o
 .data          0x00000000        0x0 build/LAN9253_D51_SQI_Indirect_mode/production/_ext/1865468468/plib_nvic.o
 .bss           0x00000000        0x0 build/LAN9253_D51_SQI_Indirect_mode/production/_ext/1865468468/plib_nvic.o
 .text          0x00000000        0x0 build/LAN9253_D51_SQI_Indirect_mode/production/_ext/1593096446/plib_nvmctrl.o
 .data          0x00000000        0x0 build/LAN9253_D51_SQI_Indirect_mode/production/_ext/1593096446/plib_nvmctrl.o
 .bss           0x00000000        0x0 build/LAN9253_D51_SQI_Indirect_mode/production/_ext/1593096446/plib_nvmctrl.o
 .text.NVMCTRL_Read
                0x00000000       0x10 build/LAN9253_D51_SQI_Indirect_mode/production/_ext/1593096446/plib_nvmctrl.o
 .text.NVMCTRL_SetWriteMode
                0x00000000       0x14 build/LAN9253_D51_SQI_Indirect_mode/production/_ext/1593096446/plib_nvmctrl.o
 .text.NVMCTRL_QuadWordWrite
                0x00000000       0x4c build/LAN9253_D51_SQI_Indirect_mode/production/_ext/1593096446/plib_nvmctrl.o
 .text.NVMCTRL_DoubleWordWrite
                0x00000000       0x40 build/LAN9253_D51_SQI_Indirect_mode/production/_ext/1593096446/plib_nvmctrl.o
 .text.NVMCTRL_ErrorGet
                0x00000000       0x24 build/LAN9253_D51_SQI_Indirect_mode/production/_ext/1593096446/plib_nvmctrl.o
 .text.NVMCTRL_StatusGet
                0x00000000        0xc build/LAN9253_D51_SQI_Indirect_mode/production/_ext/1593096446/plib_nvmctrl.o
 .text.NVMCTRL_RegionLock
                0x00000000       0x10 build/LAN9253_D51_SQI_Indirect_mode/production/_ext/1593096446/plib_nvmctrl.o
 .text.NVMCTRL_RegionUnlock
                0x00000000       0x10 build/LAN9253_D51_SQI_Indirect_mode/production/_ext/1593096446/plib_nvmctrl.o
 .text.NVMCTRL_RegionLockStatusGet
                0x00000000        0xc build/LAN9253_D51_SQI_Indirect_mode/production/_ext/1593096446/plib_nvmctrl.o
 .text.NVMCTRL_SmartEEPROM_IsBusy
                0x00000000       0x10 build/LAN9253_D51_SQI_Indirect_mode/production/_ext/1593096446/plib_nvmctrl.o
 .text.NVMCTRL_SmartEEPROMStatusGet
                0x00000000        0xc build/LAN9253_D51_SQI_Indirect_mode/production/_ext/1593096446/plib_nvmctrl.o
 .text.NVMCTRL_SmartEEPROM_IsActiveSectorFull
                0x00000000       0x10 build/LAN9253_D51_SQI_Indirect_mode/production/_ext/1593096446/plib_nvmctrl.o
 .text.NVMCTRL_SmartEEPROMSectorReallocate
                0x00000000       0x10 build/LAN9253_D51_SQI_Indirect_mode/production/_ext/1593096446/plib_nvmctrl.o
 .text.NVMCTRL_SmartEEPROMFlushPageBuffer
                0x00000000       0x18 build/LAN9253_D51_SQI_Indirect_mode/production/_ext/1593096446/plib_nvmctrl.o
 .text          0x00000000        0x0 build/LAN9253_D51_SQI_Indirect_mode/production/_ext/1865521619/plib_port.o
 .data          0x00000000        0x0 build/LAN9253_D51_SQI_Indirect_mode/production/_ext/1865521619/plib_port.o
 .bss           0x00000000        0x0 build/LAN9253_D51_SQI_Indirect_mode/production/_ext/1865521619/plib_port.o
 .text.PORT_GroupRead
                0x00000000        0x4 build/LAN9253_D51_SQI_Indirect_mode/production/_ext/1865521619/plib_port.o
 .text.PORT_GroupWrite
                0x00000000        0xc build/LAN9253_D51_SQI_Indirect_mode/production/_ext/1865521619/plib_port.o
 .text.PORT_GroupLatchRead
                0x00000000        0x4 build/LAN9253_D51_SQI_Indirect_mode/production/_ext/1865521619/plib_port.o
 .text.PORT_GroupToggle
                0x00000000        0x4 build/LAN9253_D51_SQI_Indirect_mode/production/_ext/1865521619/plib_port.o
 .text.PORT_GroupInputEnable
                0x00000000        0x4 build/LAN9253_D51_SQI_Indirect_mode/production/_ext/1865521619/plib_port.o
 .text          0x00000000        0x0 build/LAN9253_D51_SQI_Indirect_mode/production/_ext/1865555181/plib_qspi_spi.o
 .data          0x00000000        0x0 build/LAN9253_D51_SQI_Indirect_mode/production/_ext/1865555181/plib_qspi_spi.o
 .bss           0x00000000        0x0 build/LAN9253_D51_SQI_Indirect_mode/production/_ext/1865555181/plib_qspi_spi.o
 .debug_line    0x00000000        0x0 build/LAN9253_D51_SQI_Indirect_mode/production/_ext/1865555181/plib_qspi_spi.o
 .debug_str     0x00000000        0x0 build/LAN9253_D51_SQI_Indirect_mode/production/_ext/1865555181/plib_qspi_spi.o
 .comment       0x00000000       0x3d build/LAN9253_D51_SQI_Indirect_mode/production/_ext/1865555181/plib_qspi_spi.o
 .ARM.attributes
                0x00000000       0x39 build/LAN9253_D51_SQI_Indirect_mode/production/_ext/1865555181/plib_qspi_spi.o
 .text          0x00000000        0x0 build/LAN9253_D51_SQI_Indirect_mode/production/_ext/1865555181/plib_qspi.o
 .data          0x00000000        0x0 build/LAN9253_D51_SQI_Indirect_mode/production/_ext/1865555181/plib_qspi.o
 .bss           0x00000000        0x0 build/LAN9253_D51_SQI_Indirect_mode/production/_ext/1865555181/plib_qspi.o
 .text.QSPI_RegisterRead
                0x00000000       0x54 build/LAN9253_D51_SQI_Indirect_mode/production/_ext/1865555181/plib_qspi.o
 .text          0x00000000        0x0 build/LAN9253_D51_SQI_Indirect_mode/production/_ext/1827571544/plib_systick.o
 .data          0x00000000        0x0 build/LAN9253_D51_SQI_Indirect_mode/production/_ext/1827571544/plib_systick.o
 .bss           0x00000000        0x0 build/LAN9253_D51_SQI_Indirect_mode/production/_ext/1827571544/plib_systick.o
 .text.SYSTICK_TimerRestart
                0x00000000       0x1c build/LAN9253_D51_SQI_Indirect_mode/production/_ext/1827571544/plib_systick.o
 .text.SYSTICK_TimerStop
                0x00000000       0x10 build/LAN9253_D51_SQI_Indirect_mode/production/_ext/1827571544/plib_systick.o
 .text.SYSTICK_TimerPeriodSet
                0x00000000        0xc build/LAN9253_D51_SQI_Indirect_mode/production/_ext/1827571544/plib_systick.o
 .text.SYSTICK_TimerPeriodGet
                0x00000000        0xc build/LAN9253_D51_SQI_Indirect_mode/production/_ext/1827571544/plib_systick.o
 .text.SYSTICK_TimerCounterGet
                0x00000000        0xc build/LAN9253_D51_SQI_Indirect_mode/production/_ext/1827571544/plib_systick.o
 .text.SYSTICK_TimerFrequencyGet
                0x00000000        0x8 build/LAN9253_D51_SQI_Indirect_mode/production/_ext/1827571544/plib_systick.o
 .text.SYSTICK_DelayMs
                0x00000000       0x40 build/LAN9253_D51_SQI_Indirect_mode/production/_ext/1827571544/plib_systick.o
 .text          0x00000000        0x0 build/LAN9253_D51_SQI_Indirect_mode/production/_ext/163028504/xc32_monitor.o
 .data          0x00000000        0x0 build/LAN9253_D51_SQI_Indirect_mode/production/_ext/163028504/xc32_monitor.o
 .bss           0x00000000        0x0 build/LAN9253_D51_SQI_Indirect_mode/production/_ext/163028504/xc32_monitor.o
 .text._mon_getc
                0x00000000        0x4 build/LAN9253_D51_SQI_Indirect_mode/production/_ext/163028504/xc32_monitor.o
 .text._mon_putc
                0x00000000        0x2 build/LAN9253_D51_SQI_Indirect_mode/production/_ext/163028504/xc32_monitor.o
 .debug_info    0x00000000      0x2b9 build/LAN9253_D51_SQI_Indirect_mode/production/_ext/163028504/xc32_monitor.o
 .debug_abbrev  0x00000000       0x75 build/LAN9253_D51_SQI_Indirect_mode/production/_ext/163028504/xc32_monitor.o
 .debug_loc     0x00000000       0x21 build/LAN9253_D51_SQI_Indirect_mode/production/_ext/163028504/xc32_monitor.o
 .debug_aranges
                0x00000000       0x28 build/LAN9253_D51_SQI_Indirect_mode/production/_ext/163028504/xc32_monitor.o
 .debug_ranges  0x00000000       0x18 build/LAN9253_D51_SQI_Indirect_mode/production/_ext/163028504/xc32_monitor.o
 .debug_line    0x00000000       0x6a build/LAN9253_D51_SQI_Indirect_mode/production/_ext/163028504/xc32_monitor.o
 .debug_str     0x00000000        0x0 build/LAN9253_D51_SQI_Indirect_mode/production/_ext/163028504/xc32_monitor.o
 .comment       0x00000000       0x3d build/LAN9253_D51_SQI_Indirect_mode/production/_ext/163028504/xc32_monitor.o
 .debug_frame   0x00000000       0x30 build/LAN9253_D51_SQI_Indirect_mode/production/_ext/163028504/xc32_monitor.o
 .ARM.attributes
                0x00000000       0x39 build/LAN9253_D51_SQI_Indirect_mode/production/_ext/163028504/xc32_monitor.o
 .text          0x00000000        0x0 build/LAN9253_D51_SQI_Indirect_mode/production/_ext/1014039709/sys_cache.o
 .data          0x00000000        0x0 build/LAN9253_D51_SQI_Indirect_mode/production/_ext/1014039709/sys_cache.o
 .bss           0x00000000        0x0 build/LAN9253_D51_SQI_Indirect_mode/production/_ext/1014039709/sys_cache.o
 .text.SYS_CACHE_EnableCaches
                0x00000000        0x2 build/LAN9253_D51_SQI_Indirect_mode/production/_ext/1014039709/sys_cache.o
 .text.SYS_CACHE_DisableCaches
                0x00000000        0x2 build/LAN9253_D51_SQI_Indirect_mode/production/_ext/1014039709/sys_cache.o
 .text.SYS_CACHE_EnableICache
                0x00000000        0x2 build/LAN9253_D51_SQI_Indirect_mode/production/_ext/1014039709/sys_cache.o
 .text.SYS_CACHE_DisableICache
                0x00000000        0x2 build/LAN9253_D51_SQI_Indirect_mode/production/_ext/1014039709/sys_cache.o
 .text.SYS_CACHE_InvalidateICache
                0x00000000        0x2 build/LAN9253_D51_SQI_Indirect_mode/production/_ext/1014039709/sys_cache.o
 .text.SYS_CACHE_EnableDCache
                0x00000000        0x2 build/LAN9253_D51_SQI_Indirect_mode/production/_ext/1014039709/sys_cache.o
 .text.SYS_CACHE_DisableDCache
                0x00000000        0x2 build/LAN9253_D51_SQI_Indirect_mode/production/_ext/1014039709/sys_cache.o
 .text.SYS_CACHE_InvalidateDCache
                0x00000000        0x2 build/LAN9253_D51_SQI_Indirect_mode/production/_ext/1014039709/sys_cache.o
 .text.SYS_CACHE_CleanDCache
                0x00000000        0x2 build/LAN9253_D51_SQI_Indirect_mode/production/_ext/1014039709/sys_cache.o
 .text.SYS_CACHE_CleanInvalidateDCache
                0x00000000        0x2 build/LAN9253_D51_SQI_Indirect_mode/production/_ext/1014039709/sys_cache.o
 .text.SYS_CACHE_InvalidateDCache_by_Addr
                0x00000000        0x2 build/LAN9253_D51_SQI_Indirect_mode/production/_ext/1014039709/sys_cache.o
 .text.SYS_CACHE_CleanDCache_by_Addr
                0x00000000        0x2 build/LAN9253_D51_SQI_Indirect_mode/production/_ext/1014039709/sys_cache.o
 .text.SYS_CACHE_CleanInvalidateDCache_by_Addr
                0x00000000        0x2 build/LAN9253_D51_SQI_Indirect_mode/production/_ext/1014039709/sys_cache.o
 .debug_info    0x00000000      0x61a build/LAN9253_D51_SQI_Indirect_mode/production/_ext/1014039709/sys_cache.o
 .debug_abbrev  0x00000000       0x90 build/LAN9253_D51_SQI_Indirect_mode/production/_ext/1014039709/sys_cache.o
 .debug_aranges
                0x00000000       0x80 build/LAN9253_D51_SQI_Indirect_mode/production/_ext/1014039709/sys_cache.o
 .debug_ranges  0x00000000       0x70 build/LAN9253_D51_SQI_Indirect_mode/production/_ext/1014039709/sys_cache.o
 .debug_line    0x00000000      0x1f4 build/LAN9253_D51_SQI_Indirect_mode/production/_ext/1014039709/sys_cache.o
 .debug_str     0x00000000        0x0 build/LAN9253_D51_SQI_Indirect_mode/production/_ext/1014039709/sys_cache.o
 .comment       0x00000000       0x3d build/LAN9253_D51_SQI_Indirect_mode/production/_ext/1014039709/sys_cache.o
 .debug_frame   0x00000000       0xe0 build/LAN9253_D51_SQI_Indirect_mode/production/_ext/1014039709/sys_cache.o
 .ARM.attributes
                0x00000000       0x39 build/LAN9253_D51_SQI_Indirect_mode/production/_ext/1014039709/sys_cache.o
 .text          0x00000000        0x0 build/LAN9253_D51_SQI_Indirect_mode/production/_ext/14461671/sys_dma.o
 .data          0x00000000        0x0 build/LAN9253_D51_SQI_Indirect_mode/production/_ext/14461671/sys_dma.o
 .bss           0x00000000        0x0 build/LAN9253_D51_SQI_Indirect_mode/production/_ext/14461671/sys_dma.o
 .text.SYS_DMA_AddressingModeSetup
                0x00000000       0x1e build/LAN9253_D51_SQI_Indirect_mode/production/_ext/14461671/sys_dma.o
 .text.SYS_DMA_DataWidthSetup
                0x00000000       0x1a build/LAN9253_D51_SQI_Indirect_mode/production/_ext/14461671/sys_dma.o
 .debug_info    0x00000000     0x14f9 build/LAN9253_D51_SQI_Indirect_mode/production/_ext/14461671/sys_dma.o
 .debug_abbrev  0x00000000      0x205 build/LAN9253_D51_SQI_Indirect_mode/production/_ext/14461671/sys_dma.o
 .debug_loc     0x00000000      0x148 build/LAN9253_D51_SQI_Indirect_mode/production/_ext/14461671/sys_dma.o
 .debug_aranges
                0x00000000       0x28 build/LAN9253_D51_SQI_Indirect_mode/production/_ext/14461671/sys_dma.o
 .debug_ranges  0x00000000       0x18 build/LAN9253_D51_SQI_Indirect_mode/production/_ext/14461671/sys_dma.o
 .debug_line    0x00000000      0x200 build/LAN9253_D51_SQI_Indirect_mode/production/_ext/14461671/sys_dma.o
 .debug_str     0x00000000       0x3e build/LAN9253_D51_SQI_Indirect_mode/production/_ext/14461671/sys_dma.o
 .comment       0x00000000       0x3d build/LAN9253_D51_SQI_Indirect_mode/production/_ext/14461671/sys_dma.o
 .debug_frame   0x00000000       0x48 build/LAN9253_D51_SQI_Indirect_mode/production/_ext/14461671/sys_dma.o
 .ARM.attributes
                0x00000000       0x39 build/LAN9253_D51_SQI_Indirect_mode/production/_ext/14461671/sys_dma.o
 .text          0x00000000        0x0 build/LAN9253_D51_SQI_Indirect_mode/production/_ext/1881668453/sys_int.o
 .data          0x00000000        0x0 build/LAN9253_D51_SQI_Indirect_mode/production/_ext/1881668453/sys_int.o
 .bss           0x00000000        0x0 build/LAN9253_D51_SQI_Indirect_mode/production/_ext/1881668453/sys_int.o
 .text.SYS_INT_Enable
                0x00000000        0x8 build/LAN9253_D51_SQI_Indirect_mode/production/_ext/1881668453/sys_int.o
 .text.SYS_INT_Disable
                0x00000000       0x12 build/LAN9253_D51_SQI_Indirect_mode/production/_ext/1881668453/sys_int.o
 .text.SYS_INT_Restore
                0x00000000       0x12 build/LAN9253_D51_SQI_Indirect_mode/production/_ext/1881668453/sys_int.o
 .text.SYS_INT_SourceDisable
                0x00000000       0x44 build/LAN9253_D51_SQI_Indirect_mode/production/_ext/1881668453/sys_int.o
 .text.SYS_INT_SourceRestore
                0x00000000       0x20 build/LAN9253_D51_SQI_Indirect_mode/production/_ext/1881668453/sys_int.o
 .debug_info    0x00000000     0x1141 build/LAN9253_D51_SQI_Indirect_mode/production/_ext/1881668453/sys_int.o
 .debug_abbrev  0x00000000      0x200 build/LAN9253_D51_SQI_Indirect_mode/production/_ext/1881668453/sys_int.o
 .debug_loc     0x00000000       0xe9 build/LAN9253_D51_SQI_Indirect_mode/production/_ext/1881668453/sys_int.o
 .debug_aranges
                0x00000000       0x40 build/LAN9253_D51_SQI_Indirect_mode/production/_ext/1881668453/sys_int.o
 .debug_ranges  0x00000000       0x30 build/LAN9253_D51_SQI_Indirect_mode/production/_ext/1881668453/sys_int.o
 .debug_line    0x00000000      0x240 build/LAN9253_D51_SQI_Indirect_mode/production/_ext/1881668453/sys_int.o
 .debug_str     0x00000000       0x10 build/LAN9253_D51_SQI_Indirect_mode/production/_ext/1881668453/sys_int.o
 .comment       0x00000000       0x3d build/LAN9253_D51_SQI_Indirect_mode/production/_ext/1881668453/sys_int.o
 .debug_frame   0x00000000       0x6c build/LAN9253_D51_SQI_Indirect_mode/production/_ext/1881668453/sys_int.o
 .ARM.attributes
                0x00000000       0x39 build/LAN9253_D51_SQI_Indirect_mode/production/_ext/1881668453/sys_int.o
 .text          0x00000000        0x0 build/LAN9253_D51_SQI_Indirect_mode/production/_ext/1171490990/exceptions.o
 .data          0x00000000        0x0 build/LAN9253_D51_SQI_Indirect_mode/production/_ext/1171490990/exceptions.o
 .bss           0x00000000        0x0 build/LAN9253_D51_SQI_Indirect_mode/production/_ext/1171490990/exceptions.o
 .text          0x00000000        0x0 build/LAN9253_D51_SQI_Indirect_mode/production/_ext/1171490990/initialization.o
 .data          0x00000000        0x0 build/LAN9253_D51_SQI_Indirect_mode/production/_ext/1171490990/initialization.o
 .bss           0x00000000        0x0 build/LAN9253_D51_SQI_Indirect_mode/production/_ext/1171490990/initialization.o
 COMMON         0x00000000        0x8 build/LAN9253_D51_SQI_Indirect_mode/production/_ext/1171490990/initialization.o
 .text          0x00000000        0x0 build/LAN9253_D51_SQI_Indirect_mode/production/_ext/1171490990/interrupts.o
 .data          0x00000000        0x0 build/LAN9253_D51_SQI_Indirect_mode/production/_ext/1171490990/interrupts.o
 .bss           0x00000000        0x0 build/LAN9253_D51_SQI_Indirect_mode/production/_ext/1171490990/interrupts.o
 .text          0x00000000        0x0 build/LAN9253_D51_SQI_Indirect_mode/production/_ext/1171490990/libc_syscalls.o
 .data          0x00000000        0x0 build/LAN9253_D51_SQI_Indirect_mode/production/_ext/1171490990/libc_syscalls.o
 .bss           0x00000000        0x0 build/LAN9253_D51_SQI_Indirect_mode/production/_ext/1171490990/libc_syscalls.o
 .text._exit    0x00000000        0x2 build/LAN9253_D51_SQI_Indirect_mode/production/_ext/1171490990/libc_syscalls.o
 .debug_info    0x00000000      0xed2 build/LAN9253_D51_SQI_Indirect_mode/production/_ext/1171490990/libc_syscalls.o
 .debug_abbrev  0x00000000      0x1a8 build/LAN9253_D51_SQI_Indirect_mode/production/_ext/1171490990/libc_syscalls.o
 .debug_aranges
                0x00000000       0x20 build/LAN9253_D51_SQI_Indirect_mode/production/_ext/1171490990/libc_syscalls.o
 .debug_ranges  0x00000000       0x10 build/LAN9253_D51_SQI_Indirect_mode/production/_ext/1171490990/libc_syscalls.o
 .debug_line    0x00000000      0x1e7 build/LAN9253_D51_SQI_Indirect_mode/production/_ext/1171490990/libc_syscalls.o
 .debug_str     0x00000000        0xe build/LAN9253_D51_SQI_Indirect_mode/production/_ext/1171490990/libc_syscalls.o
 .comment       0x00000000       0x3d build/LAN9253_D51_SQI_Indirect_mode/production/_ext/1171490990/libc_syscalls.o
 .debug_frame   0x00000000       0x20 build/LAN9253_D51_SQI_Indirect_mode/production/_ext/1171490990/libc_syscalls.o
 .ARM.attributes
                0x00000000       0x39 build/LAN9253_D51_SQI_Indirect_mode/production/_ext/1171490990/libc_syscalls.o
 .text          0x00000000        0x0 build/LAN9253_D51_SQI_Indirect_mode/production/_ext/1171490990/startup_xc32.o
 .data          0x00000000        0x0 build/LAN9253_D51_SQI_Indirect_mode/production/_ext/1171490990/startup_xc32.o
 .bss           0x00000000        0x0 build/LAN9253_D51_SQI_Indirect_mode/production/_ext/1171490990/startup_xc32.o
 .text          0x00000000        0x0 build/LAN9253_D51_SQI_Indirect_mode/production/_ext/1171490990/tasks.o
 .data          0x00000000        0x0 build/LAN9253_D51_SQI_Indirect_mode/production/_ext/1171490990/tasks.o
 .bss           0x00000000        0x0 build/LAN9253_D51_SQI_Indirect_mode/production/_ext/1171490990/tasks.o
 .text          0x00000000        0x0 build/LAN9253_D51_SQI_Indirect_mode/production/_ext/1671622979/Drivers.o
 .data          0x00000000        0x0 build/LAN9253_D51_SQI_Indirect_mode/production/_ext/1671622979/Drivers.o
 .bss           0x00000000        0x0 build/LAN9253_D51_SQI_Indirect_mode/production/_ext/1671622979/Drivers.o
 .text.PDI_GetTimer
                0x00000000        0x4 build/LAN9253_D51_SQI_Indirect_mode/production/_ext/1671622979/Drivers.o
 .text.PDI_ClearTimer
                0x00000000        0x2 build/LAN9253_D51_SQI_Indirect_mode/production/_ext/1671622979/Drivers.o
 .text.stop_timer
                0x00000000        0x2 build/LAN9253_D51_SQI_Indirect_mode/production/_ext/1671622979/Drivers.o
 .text.start_timer
                0x00000000        0x2 build/LAN9253_D51_SQI_Indirect_mode/production/_ext/1671622979/Drivers.o
 COMMON         0x00000000      0x800 build/LAN9253_D51_SQI_Indirect_mode/production/_ext/1671622979/Drivers.o
 .text          0x00000000        0x0 build/LAN9253_D51_SQI_Indirect_mode/production/_ext/108147519/ESC_Utils.o
 .data          0x00000000        0x0 build/LAN9253_D51_SQI_Indirect_mode/production/_ext/108147519/ESC_Utils.o
 .bss           0x00000000        0x0 build/LAN9253_D51_SQI_Indirect_mode/production/_ext/108147519/ESC_Utils.o
 .text          0x00000000        0x0 build/LAN9253_D51_SQI_Indirect_mode/production/_ext/108147519/LAN925x.o
 .data          0x00000000        0x0 build/LAN9253_D51_SQI_Indirect_mode/production/_ext/108147519/LAN925x.o
 .bss           0x00000000        0x0 build/LAN9253_D51_SQI_Indirect_mode/production/_ext/108147519/LAN925x.o
 .text.HW_Release
                0x00000000        0x2 build/LAN9253_D51_SQI_Indirect_mode/production/_ext/108147519/LAN925x.o
 .text.HW_EscWriteMailbox
                0x00000000        0x8 build/LAN9253_D51_SQI_Indirect_mode/production/_ext/108147519/LAN925x.o
 .text.HW_EscReadMailbox
                0x00000000        0x8 build/LAN9253_D51_SQI_Indirect_mode/production/_ext/108147519/LAN925x.o
 .text.HW_SetLed
                0x00000000        0x2 build/LAN9253_D51_SQI_Indirect_mode/production/_ext/108147519/LAN925x.o
 .text          0x00000000        0x0 build/LAN9253_D51_SQI_Indirect_mode/production/_ext/108134065/bootmode.o
 .data          0x00000000        0x0 build/LAN9253_D51_SQI_Indirect_mode/production/_ext/108134065/bootmode.o
 .bss           0x00000000        0x0 build/LAN9253_D51_SQI_Indirect_mode/production/_ext/108134065/bootmode.o
 .text.BL_StartDownload
                0x00000000        0x2 build/LAN9253_D51_SQI_Indirect_mode/production/_ext/108134065/bootmode.o
 .text.BL_Data  0x00000000        0x4 build/LAN9253_D51_SQI_Indirect_mode/production/_ext/108134065/bootmode.o
 .text          0x00000000        0x0 build/LAN9253_D51_SQI_Indirect_mode/production/_ext/108134065/coeappl.o
 .data          0x00000000        0x0 build/LAN9253_D51_SQI_Indirect_mode/production/_ext/108134065/coeappl.o
 .bss           0x00000000        0x0 build/LAN9253_D51_SQI_Indirect_mode/production/_ext/108134065/coeappl.o
 .text          0x00000000        0x0 build/LAN9253_D51_SQI_Indirect_mode/production/_ext/108134065/ecatappl.o
 .data          0x00000000        0x0 build/LAN9253_D51_SQI_Indirect_mode/production/_ext/108134065/ecatappl.o
 .bss           0x00000000        0x0 build/LAN9253_D51_SQI_Indirect_mode/production/_ext/108134065/ecatappl.o
 .text          0x00000000        0x0 build/LAN9253_D51_SQI_Indirect_mode/production/_ext/108134065/ecatcoe.o
 .data          0x00000000        0x0 build/LAN9253_D51_SQI_Indirect_mode/production/_ext/108134065/ecatcoe.o
 .bss           0x00000000        0x0 build/LAN9253_D51_SQI_Indirect_mode/production/_ext/108134065/ecatcoe.o
 .text          0x00000000        0x0 build/LAN9253_D51_SQI_Indirect_mode/production/_ext/108134065/ecatfoe.o
 .data          0x00000000        0x0 build/LAN9253_D51_SQI_Indirect_mode/production/_ext/108134065/ecatfoe.o
 .bss           0x00000000        0x0 build/LAN9253_D51_SQI_Indirect_mode/production/_ext/108134065/ecatfoe.o
 .text          0x00000000        0x0 build/LAN9253_D51_SQI_Indirect_mode/production/_ext/108134065/ecatslv.o
 .data          0x00000000        0x0 build/LAN9253_D51_SQI_Indirect_mode/production/_ext/108134065/ecatslv.o
 .bss           0x00000000        0x0 build/LAN9253_D51_SQI_Indirect_mode/production/_ext/108134065/ecatslv.o
 .text.BackToInitTransition
                0x00000000        0xc build/LAN9253_D51_SQI_Indirect_mode/production/_ext/108134065/ecatslv.o
 .text.ECAT_StateChange
                0x00000000      0x128 build/LAN9253_D51_SQI_Indirect_mode/production/_ext/108134065/ecatslv.o
 .text          0x00000000        0x0 build/LAN9253_D51_SQI_Indirect_mode/production/_ext/108134065/emcy.o
 .data          0x00000000        0x0 build/LAN9253_D51_SQI_Indirect_mode/production/_ext/108134065/emcy.o
 .bss           0x00000000        0x0 build/LAN9253_D51_SQI_Indirect_mode/production/_ext/108134065/emcy.o
 .text          0x00000000        0x0 build/LAN9253_D51_SQI_Indirect_mode/production/_ext/108134065/foeappl.o
 .data          0x00000000        0x0 build/LAN9253_D51_SQI_Indirect_mode/production/_ext/108134065/foeappl.o
 .bss           0x00000000        0x0 build/LAN9253_D51_SQI_Indirect_mode/production/_ext/108134065/foeappl.o
 .text          0x00000000        0x0 build/LAN9253_D51_SQI_Indirect_mode/production/_ext/108134065/mailbox.o
 .data          0x00000000        0x0 build/LAN9253_D51_SQI_Indirect_mode/production/_ext/108134065/mailbox.o
 .bss           0x00000000        0x0 build/LAN9253_D51_SQI_Indirect_mode/production/_ext/108134065/mailbox.o
 .text          0x00000000        0x0 build/LAN9253_D51_SQI_Indirect_mode/production/_ext/108134065/objdef.o
 .data          0x00000000        0x0 build/LAN9253_D51_SQI_Indirect_mode/production/_ext/108134065/objdef.o
 .bss           0x00000000        0x0 build/LAN9253_D51_SQI_Indirect_mode/production/_ext/108134065/objdef.o
 .text          0x00000000        0x0 build/LAN9253_D51_SQI_Indirect_mode/production/_ext/108134065/sample_app.o
 .data          0x00000000        0x0 build/LAN9253_D51_SQI_Indirect_mode/production/_ext/108134065/sample_app.o
 .bss           0x00000000        0x0 build/LAN9253_D51_SQI_Indirect_mode/production/_ext/108134065/sample_app.o
 .text.HW_EepromReload
                0x00000000        0x4 build/LAN9253_D51_SQI_Indirect_mode/production/_ext/108134065/sample_app.o
 .text          0x00000000        0x0 build/LAN9253_D51_SQI_Indirect_mode/production/_ext/108134065/sdoserv.o
 .data          0x00000000        0x0 build/LAN9253_D51_SQI_Indirect_mode/production/_ext/108134065/sdoserv.o
 .bss           0x00000000        0x0 build/LAN9253_D51_SQI_Indirect_mode/production/_ext/108134065/sdoserv.o
 .text          0x00000000        0x0 build/LAN9253_D51_SQI_Indirect_mode/production/_ext/1360937237/main.o
 .data          0x00000000        0x0 build/LAN9253_D51_SQI_Indirect_mode/production/_ext/1360937237/main.o
 .bss           0x00000000        0x0 build/LAN9253_D51_SQI_Indirect_mode/production/_ext/1360937237/main.o
 .text          0x00000000        0x0 build/LAN9253_D51_SQI_Indirect_mode/production/_ext/1360937237/app.o
 .data          0x00000000        0x0 build/LAN9253_D51_SQI_Indirect_mode/production/_ext/1360937237/app.o
 .bss           0x00000000        0x0 build/LAN9253_D51_SQI_Indirect_mode/production/_ext/1360937237/app.o
 .rodata.gAppBankBOffsetAddr
                0x00000000        0x4 build/LAN9253_D51_SQI_Indirect_mode/production/_ext/1360937237/app.o
 .rodata.gApplicationStartAddr
                0x00000000        0x4 build/LAN9253_D51_SQI_Indirect_mode/production/_ext/1360937237/app.o
 .text          0x00000000        0x0 build/LAN9253_D51_SQI_Indirect_mode/production/_ext/1360937237/Developer_Test.o
 .data          0x00000000        0x0 build/LAN9253_D51_SQI_Indirect_mode/production/_ext/1360937237/Developer_Test.o
 .bss           0x00000000        0x0 build/LAN9253_D51_SQI_Indirect_mode/production/_ext/1360937237/Developer_Test.o
 .debug_info    0x00000000     0x18f3 build/LAN9253_D51_SQI_Indirect_mode/production/_ext/1360937237/Developer_Test.o
 .debug_abbrev  0x00000000      0x1b3 build/LAN9253_D51_SQI_Indirect_mode/production/_ext/1360937237/Developer_Test.o
 .debug_aranges
                0x00000000       0x18 build/LAN9253_D51_SQI_Indirect_mode/production/_ext/1360937237/Developer_Test.o
 .debug_line    0x00000000      0x329 build/LAN9253_D51_SQI_Indirect_mode/production/_ext/1360937237/Developer_Test.o
 .debug_str     0x00000000        0xe build/LAN9253_D51_SQI_Indirect_mode/production/_ext/1360937237/Developer_Test.o
 .comment       0x00000000       0x3d build/LAN9253_D51_SQI_Indirect_mode/production/_ext/1360937237/Developer_Test.o
 .ARM.attributes
                0x00000000       0x39 build/LAN9253_D51_SQI_Indirect_mode/production/_ext/1360937237/Developer_Test.o
 .text          0x00000000        0x0 c:/program files (x86)/microchip/xc32/v2.30/bin/bin/../../lib/gcc/pic32c/6.2.1/../../../../pic32c/lib/v7e-m/fpv4-sp/hard\libpic32c.a(data_init.o)
 .data          0x00000000        0x0 c:/program files (x86)/microchip/xc32/v2.30/bin/bin/../../lib/gcc/pic32c/6.2.1/../../../../pic32c/lib/v7e-m/fpv4-sp/hard\libpic32c.a(data_init.o)
 .bss           0x00000000        0x0 c:/program files (x86)/microchip/xc32/v2.30/bin/bin/../../lib/gcc/pic32c/6.2.1/../../../../pic32c/lib/v7e-m/fpv4-sp/hard\libpic32c.a(data_init.o)
 .text          0x00000000        0x0 c:/program files (x86)/microchip/xc32/v2.30/bin/bin/../../lib/gcc/pic32c/6.2.1/../../../../pic32c/lib/v7e-m/fpv4-sp/hard\libc.a(lib_a-init.o)
 .data          0x00000000        0x0 c:/program files (x86)/microchip/xc32/v2.30/bin/bin/../../lib/gcc/pic32c/6.2.1/../../../../pic32c/lib/v7e-m/fpv4-sp/hard\libc.a(lib_a-init.o)
 .bss           0x00000000        0x0 c:/program files (x86)/microchip/xc32/v2.30/bin/bin/../../lib/gcc/pic32c/6.2.1/../../../../pic32c/lib/v7e-m/fpv4-sp/hard\libc.a(lib_a-init.o)
 .text          0x00000000        0x0 c:/program files (x86)/microchip/xc32/v2.30/bin/bin/../../lib/gcc/pic32c/6.2.1/../../../../pic32c/lib/v7e-m/fpv4-sp/hard\libc.a(lib_a-malloc.o)
 .data          0x00000000        0x0 c:/program files (x86)/microchip/xc32/v2.30/bin/bin/../../lib/gcc/pic32c/6.2.1/../../../../pic32c/lib/v7e-m/fpv4-sp/hard\libc.a(lib_a-malloc.o)
 .bss           0x00000000        0x0 c:/program files (x86)/microchip/xc32/v2.30/bin/bin/../../lib/gcc/pic32c/6.2.1/../../../../pic32c/lib/v7e-m/fpv4-sp/hard\libc.a(lib_a-malloc.o)
 .text          0x00000000        0x0 c:/program files (x86)/microchip/xc32/v2.30/bin/bin/../../lib/gcc/pic32c/6.2.1/../../../../pic32c/lib/v7e-m/fpv4-sp/hard\libc.a(lib_a-mallocr.o)
 .data          0x00000000        0x0 c:/program files (x86)/microchip/xc32/v2.30/bin/bin/../../lib/gcc/pic32c/6.2.1/../../../../pic32c/lib/v7e-m/fpv4-sp/hard\libc.a(lib_a-mallocr.o)
 .bss           0x00000000        0x0 c:/program files (x86)/microchip/xc32/v2.30/bin/bin/../../lib/gcc/pic32c/6.2.1/../../../../pic32c/lib/v7e-m/fpv4-sp/hard\libc.a(lib_a-mallocr.o)
 .text          0x00000000        0x0 c:/program files (x86)/microchip/xc32/v2.30/bin/bin/../../lib/gcc/pic32c/6.2.1/../../../../pic32c/lib/v7e-m/fpv4-sp/hard\libc.a(lib_a-memcpy-stub.o)
 .data          0x00000000        0x0 c:/program files (x86)/microchip/xc32/v2.30/bin/bin/../../lib/gcc/pic32c/6.2.1/../../../../pic32c/lib/v7e-m/fpv4-sp/hard\libc.a(lib_a-memcpy-stub.o)
 .bss           0x00000000        0x0 c:/program files (x86)/microchip/xc32/v2.30/bin/bin/../../lib/gcc/pic32c/6.2.1/../../../../pic32c/lib/v7e-m/fpv4-sp/hard\libc.a(lib_a-memcpy-stub.o)
 .text          0x00000000        0x0 c:/program files (x86)/microchip/xc32/v2.30/bin/bin/../../lib/gcc/pic32c/6.2.1/../../../../pic32c/lib/v7e-m/fpv4-sp/hard\libc.a(lib_a-memset.o)
 .data          0x00000000        0x0 c:/program files (x86)/microchip/xc32/v2.30/bin/bin/../../lib/gcc/pic32c/6.2.1/../../../../pic32c/lib/v7e-m/fpv4-sp/hard\libc.a(lib_a-memset.o)
 .bss           0x00000000        0x0 c:/program files (x86)/microchip/xc32/v2.30/bin/bin/../../lib/gcc/pic32c/6.2.1/../../../../pic32c/lib/v7e-m/fpv4-sp/hard\libc.a(lib_a-memset.o)
 .text          0x00000000        0x0 c:/program files (x86)/microchip/xc32/v2.30/bin/bin/../../lib/gcc/pic32c/6.2.1/../../../../pic32c/lib/v7e-m/fpv4-sp/hard\libc.a(lib_a-mlock.o)
 .data          0x00000000        0x0 c:/program files (x86)/microchip/xc32/v2.30/bin/bin/../../lib/gcc/pic32c/6.2.1/../../../../pic32c/lib/v7e-m/fpv4-sp/hard\libc.a(lib_a-mlock.o)
 .bss           0x00000000        0x0 c:/program files (x86)/microchip/xc32/v2.30/bin/bin/../../lib/gcc/pic32c/6.2.1/../../../../pic32c/lib/v7e-m/fpv4-sp/hard\libc.a(lib_a-mlock.o)
 .text          0x00000000        0x0 c:/program files (x86)/microchip/xc32/v2.30/bin/bin/../../lib/gcc/pic32c/6.2.1/../../../../pic32c/lib/v7e-m/fpv4-sp/hard\libc.a(lib_a-sbrkr.o)
 .data          0x00000000        0x0 c:/program files (x86)/microchip/xc32/v2.30/bin/bin/../../lib/gcc/pic32c/6.2.1/../../../../pic32c/lib/v7e-m/fpv4-sp/hard\libc.a(lib_a-sbrkr.o)
 .bss           0x00000000        0x0 c:/program files (x86)/microchip/xc32/v2.30/bin/bin/../../lib/gcc/pic32c/6.2.1/../../../../pic32c/lib/v7e-m/fpv4-sp/hard\libc.a(lib_a-sbrkr.o)
 .data          0x00000000        0x0 c:/program files (x86)/microchip/xc32/v2.30/bin/bin/../../lib/gcc/pic32c/6.2.1/../../../../pic32c/lib/v7e-m/fpv4-sp/hard\libc.a(lib_a-strlen.o)
 .bss           0x00000000        0x0 c:/program files (x86)/microchip/xc32/v2.30/bin/bin/../../lib/gcc/pic32c/6.2.1/../../../../pic32c/lib/v7e-m/fpv4-sp/hard\libc.a(lib_a-strlen.o)
 .text          0x00000000        0x0 c:/program files (x86)/microchip/xc32/v2.30/bin/bin/../../lib/gcc/pic32c/6.2.1/../../../../pic32c/lib/v7e-m/fpv4-sp/hard\libc.a(lib_a-freer.o)
 .data          0x00000000        0x0 c:/program files (x86)/microchip/xc32/v2.30/bin/bin/../../lib/gcc/pic32c/6.2.1/../../../../pic32c/lib/v7e-m/fpv4-sp/hard\libc.a(lib_a-freer.o)
 .bss           0x00000000        0x0 c:/program files (x86)/microchip/xc32/v2.30/bin/bin/../../lib/gcc/pic32c/6.2.1/../../../../pic32c/lib/v7e-m/fpv4-sp/hard\libc.a(lib_a-freer.o)
 .text          0x00000000        0x0 c:/program files (x86)/microchip/xc32/v2.30/bin/bin/../../lib/gcc/pic32c/6.2.1/../../../../pic32c/lib/v7e-m/fpv4-sp/hard\libc.a(lib_a-impure.o)
 .data          0x00000000        0x0 c:/program files (x86)/microchip/xc32/v2.30/bin/bin/../../lib/gcc/pic32c/6.2.1/../../../../pic32c/lib/v7e-m/fpv4-sp/hard\libc.a(lib_a-impure.o)
 .bss           0x00000000        0x0 c:/program files (x86)/microchip/xc32/v2.30/bin/bin/../../lib/gcc/pic32c/6.2.1/../../../../pic32c/lib/v7e-m/fpv4-sp/hard\libc.a(lib_a-impure.o)
 .rodata._global_impure_ptr
                0x00000000        0x4 c:/program files (x86)/microchip/xc32/v2.30/bin/bin/../../lib/gcc/pic32c/6.2.1/../../../../pic32c/lib/v7e-m/fpv4-sp/hard\libc.a(lib_a-impure.o)
 .text          0x00000000        0x0 c:/program files (x86)/microchip/xc32/v2.30/bin/bin/../../lib/gcc/pic32c/6.2.1/../../../../pic32c/lib/v7e-m/fpv4-sp/hard\libc.a(lib_a-reent.o)
 .data          0x00000000        0x0 c:/program files (x86)/microchip/xc32/v2.30/bin/bin/../../lib/gcc/pic32c/6.2.1/../../../../pic32c/lib/v7e-m/fpv4-sp/hard\libc.a(lib_a-reent.o)
 .bss           0x00000000        0x0 c:/program files (x86)/microchip/xc32/v2.30/bin/bin/../../lib/gcc/pic32c/6.2.1/../../../../pic32c/lib/v7e-m/fpv4-sp/hard\libc.a(lib_a-reent.o)
 .text.cleanup_glue
                0x00000000       0x1a c:/program files (x86)/microchip/xc32/v2.30/bin/bin/../../lib/gcc/pic32c/6.2.1/../../../../pic32c/lib/v7e-m/fpv4-sp/hard\libc.a(lib_a-reent.o)
 .text._reclaim_reent
                0x00000000       0x84 c:/program files (x86)/microchip/xc32/v2.30/bin/bin/../../lib/gcc/pic32c/6.2.1/../../../../pic32c/lib/v7e-m/fpv4-sp/hard\libc.a(lib_a-reent.o)
 .text          0x00000000        0x0 c:/program files (x86)/microchip/xc32/v2.30/bin/bin/../../lib/gcc/pic32c/6.2.1/../../../../pic32c/lib/v7e-m/fpv4-sp/hard\libpic32c.a(sbrk.o)
 .data          0x00000000        0x0 c:/program files (x86)/microchip/xc32/v2.30/bin/bin/../../lib/gcc/pic32c/6.2.1/../../../../pic32c/lib/v7e-m/fpv4-sp/hard\libpic32c.a(sbrk.o)
 .text          0x00000000        0x0 c:/program files (x86)/microchip/xc32/v2.30/bin/bin/../../lib/gcc/pic32c/6.2.1/v7e-m/fpv4-sp/hard/crtend.o
 .data          0x00000000        0x0 c:/program files (x86)/microchip/xc32/v2.30/bin/bin/../../lib/gcc/pic32c/6.2.1/v7e-m/fpv4-sp/hard/crtend.o
 .bss           0x00000000        0x0 c:/program files (x86)/microchip/xc32/v2.30/bin/bin/../../lib/gcc/pic32c/6.2.1/v7e-m/fpv4-sp/hard/crtend.o
 .eh_frame      0x00000000        0x4 c:/program files (x86)/microchip/xc32/v2.30/bin/bin/../../lib/gcc/pic32c/6.2.1/v7e-m/fpv4-sp/hard/crtend.o
 .comment       0x00000000       0x3d c:/program files (x86)/microchip/xc32/v2.30/bin/bin/../../lib/gcc/pic32c/6.2.1/v7e-m/fpv4-sp/hard/crtend.o
 .ARM.attributes
                0x00000000       0x34 c:/program files (x86)/microchip/xc32/v2.30/bin/bin/../../lib/gcc/pic32c/6.2.1/v7e-m/fpv4-sp/hard/crtend.o
 .text          0x00000000        0x0 c:/program files (x86)/microchip/xc32/v2.30/bin/bin/../../lib/gcc/pic32c/6.2.1/v7e-m/fpv4-sp/hard/crtn.o
 .data          0x00000000        0x0 c:/program files (x86)/microchip/xc32/v2.30/bin/bin/../../lib/gcc/pic32c/6.2.1/v7e-m/fpv4-sp/hard/crtn.o
 .bss           0x00000000        0x0 c:/program files (x86)/microchip/xc32/v2.30/bin/bin/../../lib/gcc/pic32c/6.2.1/v7e-m/fpv4-sp/hard/crtn.o

Memory Configuration

Name             Origin             Length             Attributes
rom              0x00000000         0x00080000         xrl
ram              0x20000000         0x00030000         xw !r
config_00804000  0x00804000         0x00000004
config_00804004  0x00804004         0x00000004
config_00804008  0x00804008         0x00000004
*default*        0x00000000         0xffffffff

Linker script and memory map

LOAD c:/program files (x86)/microchip/xc32/v2.30/bin/bin/../../lib/gcc/pic32c/6.2.1/v7e-m/fpv4-sp/hard/crti.o
LOAD c:/program files (x86)/microchip/xc32/v2.30/bin/bin/../../lib/gcc/pic32c/6.2.1/v7e-m/fpv4-sp/hard/crtbegin.o
LOAD build/LAN9253_D51_SQI_Indirect_mode/production/_ext/2070931557/drv_spi.o
LOAD build/LAN9253_D51_SQI_Indirect_mode/production/_ext/1984496892/plib_clock.o
LOAD build/LAN9253_D51_SQI_Indirect_mode/production/_ext/1865131932/plib_cmcc.o
LOAD build/LAN9253_D51_SQI_Indirect_mode/production/_ext/1865161661/plib_dmac.o
LOAD build/LAN9253_D51_SQI_Indirect_mode/production/_ext/60167341/plib_eic.o
LOAD build/LAN9253_D51_SQI_Indirect_mode/production/_ext/1986646378/plib_evsys.o
LOAD build/LAN9253_D51_SQI_Indirect_mode/production/_ext/1865468468/plib_nvic.o
LOAD build/LAN9253_D51_SQI_Indirect_mode/production/_ext/1593096446/plib_nvmctrl.o
LOAD build/LAN9253_D51_SQI_Indirect_mode/production/_ext/1865521619/plib_port.o
LOAD build/LAN9253_D51_SQI_Indirect_mode/production/_ext/1865555181/plib_qspi_spi.o
LOAD build/LAN9253_D51_SQI_Indirect_mode/production/_ext/1865555181/plib_qspi.o
LOAD build/LAN9253_D51_SQI_Indirect_mode/production/_ext/1827571544/plib_systick.o
LOAD build/LAN9253_D51_SQI_Indirect_mode/production/_ext/163028504/xc32_monitor.o
LOAD build/LAN9253_D51_SQI_Indirect_mode/production/_ext/1014039709/sys_cache.o
LOAD build/LAN9253_D51_SQI_Indirect_mode/production/_ext/14461671/sys_dma.o
LOAD build/LAN9253_D51_SQI_Indirect_mode/production/_ext/1881668453/sys_int.o
LOAD build/LAN9253_D51_SQI_Indirect_mode/production/_ext/1171490990/exceptions.o
LOAD build/LAN9253_D51_SQI_Indirect_mode/production/_ext/1171490990/initialization.o
LOAD build/LAN9253_D51_SQI_Indirect_mode/production/_ext/1171490990/interrupts.o
LOAD build/LAN9253_D51_SQI_Indirect_mode/production/_ext/1171490990/libc_syscalls.o
LOAD build/LAN9253_D51_SQI_Indirect_mode/production/_ext/1171490990/startup_xc32.o
LOAD build/LAN9253_D51_SQI_Indirect_mode/production/_ext/1171490990/tasks.o
LOAD build/LAN9253_D51_SQI_Indirect_mode/production/_ext/1671622979/Drivers.o
LOAD build/LAN9253_D51_SQI_Indirect_mode/production/_ext/108147519/ESC_Utils.o
LOAD build/LAN9253_D51_SQI_Indirect_mode/production/_ext/108147519/LAN925x.o
LOAD build/LAN9253_D51_SQI_Indirect_mode/production/_ext/108134065/bootmode.o
LOAD build/LAN9253_D51_SQI_Indirect_mode/production/_ext/108134065/coeappl.o
LOAD build/LAN9253_D51_SQI_Indirect_mode/production/_ext/108134065/ecatappl.o
LOAD build/LAN9253_D51_SQI_Indirect_mode/production/_ext/108134065/ecatcoe.o
LOAD build/LAN9253_D51_SQI_Indirect_mode/production/_ext/108134065/ecatfoe.o
LOAD build/LAN9253_D51_SQI_Indirect_mode/production/_ext/108134065/ecatslv.o
LOAD build/LAN9253_D51_SQI_Indirect_mode/production/_ext/108134065/emcy.o
LOAD build/LAN9253_D51_SQI_Indirect_mode/production/_ext/108134065/foeappl.o
LOAD build/LAN9253_D51_SQI_Indirect_mode/production/_ext/108134065/mailbox.o
LOAD build/LAN9253_D51_SQI_Indirect_mode/production/_ext/108134065/objdef.o
LOAD build/LAN9253_D51_SQI_Indirect_mode/production/_ext/108134065/sample_app.o
LOAD build/LAN9253_D51_SQI_Indirect_mode/production/_ext/108134065/sdoserv.o
LOAD build/LAN9253_D51_SQI_Indirect_mode/production/_ext/1360937237/main.o
LOAD build/LAN9253_D51_SQI_Indirect_mode/production/_ext/1360937237/app.o
LOAD build/LAN9253_D51_SQI_Indirect_mode/production/_ext/1360937237/Developer_Test.o
                0x00000001                __MPLAB_BUILD = 0x1
                0x00000200                _min_heap_size = 0x200
START GROUP
LOAD c:/program files (x86)/microchip/xc32/v2.30/bin/bin/../../lib/gcc/pic32c/6.2.1/../../../../pic32c/lib/v7e-m/fpv4-sp/hard\libpic32c.a
LOAD c:/program files (x86)/microchip/xc32/v2.30/bin/bin/../../lib/gcc/pic32c/6.2.1/v7e-m/fpv4-sp/hard\libgcc.a
LOAD c:/program files (x86)/microchip/xc32/v2.30/bin/bin/../../lib/gcc/pic32c/6.2.1/../../../../pic32c/lib/v7e-m/fpv4-sp/hard\libc.a
LOAD c:/program files (x86)/microchip/xc32/v2.30/bin/bin/../../lib/gcc/pic32c/6.2.1/../../../../pic32c/lib/v7e-m/fpv4-sp/hard\libm.a
END GROUP
LOAD c:/program files (x86)/microchip/xc32/v2.30/bin/bin/../../lib/gcc/pic32c/6.2.1/v7e-m/fpv4-sp/hard/crtend.o
LOAD c:/program files (x86)/microchip/xc32/v2.30/bin/bin/../../lib/gcc/pic32c/6.2.1/v7e-m/fpv4-sp/hard/crtn.o
                0x00080000                __rom_end = (ORIGIN (rom) + LENGTH (rom))
                0x20030000                __ram_end = (ORIGIN (ram) + LENGTH (ram))

.config_00804000
 *(.config_00804000)

.config_00804004
 *(.config_00804004)

.config_00804008
 *(.config_00804008)

.vectors        0x00000000      0x260
                0x00000000                . = ALIGN (0x4)
                0x00000000                _sfixed = .
 *(.vectors .vectors.* .vectors_default .vectors_default.*)
 .vectors       0x00000000      0x260 build/LAN9253_D51_SQI_Indirect_mode/production/_ext/1171490990/interrupts.o
                0x00000000                exception_table
 *(.isr_vector)
 *(.reset*)
 *(.after_vectors)

.text           0x00000260       0x20
                0x00000260                . = ALIGN (0x4)
 *(.glue_7t)
 .glue_7t       0x00000260        0x0 linker stubs
 *(.glue_7)
 .glue_7        0x00000260        0x0 linker stubs
 *(.gnu.linkonce.r.*)
 *(.ARM.extab* .gnu.linkonce.armextab.*)
                0x00000260                . = ALIGN (0x4)
 *(.init)
 .init          0x00000260        0x4 c:/program files (x86)/microchip/xc32/v2.30/bin/bin/../../lib/gcc/pic32c/6.2.1/v7e-m/fpv4-sp/hard/crti.o
                0x00000260                _init
 .init          0x00000264        0x8 c:/program files (x86)/microchip/xc32/v2.30/bin/bin/../../lib/gcc/pic32c/6.2.1/v7e-m/fpv4-sp/hard/crtn.o
                0x0000026c                . = ALIGN (0x4)
                0x0000026c                __preinit_array_start = .
 *(.preinit_array)
                0x0000026c                __preinit_array_end = .
                0x0000026c                . = ALIGN (0x4)
                0x0000026c                __init_array_start = .
 *(SORT(.init_array.*))
 *(.init_array)
 .init_array    0x0000026c        0x4 c:/program files (x86)/microchip/xc32/v2.30/bin/bin/../../lib/gcc/pic32c/6.2.1/v7e-m/fpv4-sp/hard/crtbegin.o
                0x00000270                __init_array_end = .
                0x00000270                . = ALIGN (0x4)
 *crtbegin.o(.ctors)
 *(EXCLUDE_FILE(*crtend.o) .ctors)
 *(SORT(.ctors.*))
 *crtend.o(.ctors)
                0x00000270                . = ALIGN (0x4)
 *(.fini)
 .fini          0x00000270        0x4 c:/program files (x86)/microchip/xc32/v2.30/bin/bin/../../lib/gcc/pic32c/6.2.1/v7e-m/fpv4-sp/hard/crti.o
                0x00000270                _fini
 .fini          0x00000274        0x8 c:/program files (x86)/microchip/xc32/v2.30/bin/bin/../../lib/gcc/pic32c/6.2.1/v7e-m/fpv4-sp/hard/crtn.o
                0x0000027c                . = ALIGN (0x4)
                0x0000027c                __fini_array_start = .
 *(.fini_array)
 .fini_array    0x0000027c        0x4 c:/program files (x86)/microchip/xc32/v2.30/bin/bin/../../lib/gcc/pic32c/6.2.1/v7e-m/fpv4-sp/hard/crtbegin.o
 *(SORT(.fini_array.*))
                0x00000280                __fini_array_end = .
 *crtbegin.o(.dtors)
 *(EXCLUDE_FILE(*crtend.o) .dtors)
 *(SORT(.dtors.*))
 *crtend.o(.dtors)
                0x00000280                . = ALIGN (0x4)
                0x00000280                _efixed = .
                [!provide]                PROVIDE (__exidx_start, .)

.ARM.exidx
 *(.ARM.exidx* .gnu.linkonce.armexidx.*)
                [!provide]                PROVIDE (__exidx_end, .)
                0x00000280                . = ALIGN (0x4)
                0x00000280                _etext = .

.bss            0x20000000     0x3560
                0x20000000                . = ALIGN (0x4)
                0x20000000                __bss_start__ = .
                0x20000000                _sbss = .
                0x20000000                _szero = .
 *(COMMON)
 COMMON         0x20000000       0x20 build/LAN9253_D51_SQI_Indirect_mode/production/_ext/1865161661/plib_dmac.o
                0x20000000                dmacChannelObj
 COMMON         0x20000020       0xc0 build/LAN9253_D51_SQI_Indirect_mode/production/_ext/60167341/plib_eic.o
                0x20000020                eicCallbackObject
 COMMON         0x200000e0        0xc build/LAN9253_D51_SQI_Indirect_mode/production/_ext/1827571544/plib_systick.o
                0x200000e0                systick
 COMMON         0x200000ec        0x2 build/LAN9253_D51_SQI_Indirect_mode/production/_ext/108147519/LAN925x.o
                0x200000ec                gEscALEvent
 *fill*         0x200000ee        0x2 
 COMMON         0x200000f0        0x8 build/LAN9253_D51_SQI_Indirect_mode/production/_ext/108134065/coeappl.o
                0x200000f0                u32LastDc32Value
                0x200000f4                u32CheckForDcOverrunCnt
 COMMON         0x200000f8     0x123c build/LAN9253_D51_SQI_Indirect_mode/production/_ext/108134065/ecatappl.o
                0x200000f8                bMinCycleTimeMeasurementStarted
                0x200000fc                u32CycleTimeStartValue
                0x20000100                bRunApplication
                0x20000104                u32SystemTimeReadFailure
                0x20000108                bEcatWaitForInputUpdate
                0x2000010c                u32MinCycleTimeValue
                0x20000110                aPdOutputData
                0x20000a10                pAPPL_FoeError
                0x20000a14                pAPPL_FoeReadData
                0x20000a18                pAPPL_MainLoop
                0x20000a1c                bEtherCATErrorLed
                0x20000a20                u32MinCycleTimeStartValue
                0x20000a24                aPdInputData
                0x20001324                bEtherCATRunLed
                0x20001328                pAPPL_FoeWriteData
                0x2000132c                pAPPL_FoeRead
                0x20001330                pAPPL_FoeWrite
 COMMON         0x20001334        0x4 build/LAN9253_D51_SQI_Indirect_mode/production/_ext/108134065/ecatcoe.o
                0x20001334                pCoeSendStored
 COMMON         0x20001338       0x16 build/LAN9253_D51_SQI_Indirect_mode/production/_ext/108134065/ecatfoe.o
                0x20001338                u32FileOffset
                0x2000133c                u16FileAccessState
                0x20001340                u32PacketNo
                0x20001344                pFoeSendStored
                0x20001348                u32LastFileOffset
                0x2000134c                u16FoeMaxSendBlockSize
 *fill*         0x2000134e        0x2 
 COMMON         0x20001350       0x52 build/LAN9253_D51_SQI_Indirect_mode/production/_ext/108134065/ecatslv.o
                0x20001350                b3BufferMode
                0x20001352                nEcatStateTrans
                0x20001354                EcatWdCounter
                0x20001356                bApplEsmPending
                0x20001357                nAlStatus
                0x20001358                nPdOutputSize
                0x2000135a                u16LocalErrorCode
                0x2000135c                Sync0WdCounter
                0x2000135e                bLocalErrorFlag
                0x20001360                LatchInputSync0Counter
                0x20001362                i16WaitForPllRunningCnt
                0x20001364                nEscAddrOutputData
                0x20001366                Sync0WdValue
                0x20001368                u8EcatRunLed
                0x2000136a                i16WaitForPllRunningTimeout
                0x2000136c                Sync1WdValue
                0x2000136e                u16ALEventMask
                0x20001370                bDcRunning
                0x20001374                u32dummy
                0x20001378                SyncManInfo
                0x20001380                b32BitDc
                0x20001382                LatchInputSync0Value
                0x20001384                bEcatWaitForAlControlRes
                0x20001386                nPdInputSize
                0x20001388                u16SmSync0Value
                0x2000138a                nMaxEscAddress
                0x2000138c                bEcatFirstOutputsReceived
                0x2000138d                bSmSyncSequenceValid
                0x2000138e                EsmTimeoutCounter
                0x20001390                bBootMode
                0x20001391                bDcSyncActive
                0x20001392                bEcatOutputUpdateRunning
                0x20001394                Sync1WdCounter
                0x20001396                EcatWdValue
                0x20001398                bEcatInputUpdateRunning
                0x20001399                bEscIntEnabled
                0x2000139a                bWdTrigger
                0x2000139c                u16SmSync0Counter
                0x2000139e                nMaxSyncMan
                0x2000139f                u8EcatErrorLed
                0x200013a0                nEscAddrInputData
 *fill*         0x200013a2        0x2 
 COMMON         0x200013a4       0x28 build/LAN9253_D51_SQI_Indirect_mode/production/_ext/108134065/emcy.o
                0x200013a4                sSendEmcyQueue
                0x200013b4                asEmcy
                0x200013bc                sEmptyEmcyQueue
 COMMON         0x200013cc       0x94 build/LAN9253_D51_SQI_Indirect_mode/production/_ext/108134065/mailbox.o
                0x200013cc                u8MbxReadCounter
                0x200013d0                sMbxSendQueue
                0x20001404                sMbxReceiveQueue
                0x20001438                bNoMbxMemoryAvailable
                0x20001439                bSendMbxIsFull
                0x2000143a                bMbxRunning
                0x2000143c                u16EscAddrReceiveMbx
                0x20001440                psStoreMbx
                0x20001444                u16SendMbxSize
                0x20001448                psReadMbx
                0x2000144c                bReceiveMbxIsLocked
                0x2000144e                u16EscAddrSendMbx
                0x20001450                psWriteMbx
                0x20001454                u8MbxWriteCounter
                0x20001455                u8MailboxSendReqStored
                0x20001456                u16ReceiveMbxSize
                0x20001458                bMbxRepeatToggle
                0x2000145c                psRepeatMbx
 COMMON         0x20001460       0x8e build/LAN9253_D51_SQI_Indirect_mode/production/_ext/108134065/objdef.o
                0x20001460                sSyncManInPar
                0x200014a4                sSyncManOutPar
                0x200014e8                bSyncSetByUser
                0x200014ec                sCycleDiag
 *fill*         0x200014ee        0x2 
 COMMON         0x200014f0     0x2016 build/LAN9253_D51_SQI_Indirect_mode/production/_ext/108134065/sample_app.o
                0x200014f0                aFileData
                0x200034f0                aFileName
 *fill*         0x20003506        0x2 
 COMMON         0x20003508       0x4d build/LAN9253_D51_SQI_Indirect_mode/production/_ext/108134065/sdoserv.o
                0x20003508                nSdoInfoIndex
                0x2000350c                pStoreData
                0x20003510                nSdoSegBytesToHandle
                0x20003514                bSdoSegAccess
                0x20003515                bSdoSegFollows
                0x20003518                nSdoSegCompleteSize
                0x2000351c                pSdoPendFunc
                0x20003520                u8PendingSdo
                0x20003521                bStoreCompleteAccess
                0x20003522                bSdoSegLastToggle
                0x20003523                nSdoSegService
                0x20003524                pSdoInfoObjEntry
                0x20003528                nSdoInfoFragmentsLeft
                0x2000352c                pSdoResStored
                0x20003530                u32StoreDataSize
                0x20003534                pSdoSegData
                0x20003538                nSdoSegIndex
                0x2000353c                aSdoInfoHeader
                0x2000354c                pSdoSegObjEntry
                0x20003550                nSdoSegSubindex
                0x20003552                u16StoreIndex
                0x20003554                u8StoreSubindex
 *fill*         0x20003555        0x3 
 COMMON         0x20003558        0x1 build/LAN9253_D51_SQI_Indirect_mode/production/_ext/1360937237/app.o
                0x20003558                appData
 *fill*         0x20003559        0x3 
 COMMON         0x2000355c        0x4 c:/program files (x86)/microchip/xc32/v2.30/bin/bin/../../lib/gcc/pic32c/6.2.1/../../../../pic32c/lib/v7e-m/fpv4-sp/hard\libc.a(lib_a-reent.o)
                0x2000355c                errno
                0x20003560                . = ALIGN (0x4)
                0x20003560                __bss_end__ = .
                0x20003560                _ebss = .
                0x20003560                _ezero = .
                0x20003560                . = ALIGN (0x4)
                0x20003560                _end = .
                0x2002ffff                _ram_end_ = ((ORIGIN (ram) + LENGTH (ram)) - 0x1)
OUTPUT(dist/LAN9253_D51_SQI_Indirect_mode/production/ESF_EVB_LAN9253.production.elf elf32-littlearm)
LOAD stack
LOAD data_init

.ARM.attributes
                0x00000000       0x30
 .ARM.attributes
                0x00000000       0x22 c:/program files (x86)/microchip/xc32/v2.30/bin/bin/../../lib/gcc/pic32c/6.2.1/v7e-m/fpv4-sp/hard/crti.o
 .ARM.attributes
                0x00000022       0x34 c:/program files (x86)/microchip/xc32/v2.30/bin/bin/../../lib/gcc/pic32c/6.2.1/v7e-m/fpv4-sp/hard/crtbegin.o
 .ARM.attributes
                0x00000056       0x39 build/LAN9253_D51_SQI_Indirect_mode/production/_ext/1984496892/plib_clock.o
 .ARM.attributes
                0x0000008f       0x39 build/LAN9253_D51_SQI_Indirect_mode/production/_ext/1865161661/plib_dmac.o
 .ARM.attributes
                0x000000c8       0x39 build/LAN9253_D51_SQI_Indirect_mode/production/_ext/60167341/plib_eic.o
 .ARM.attributes
                0x00000101       0x39 build/LAN9253_D51_SQI_Indirect_mode/production/_ext/1986646378/plib_evsys.o
 .ARM.attributes
                0x0000013a       0x39 build/LAN9253_D51_SQI_Indirect_mode/production/_ext/1865468468/plib_nvic.o
 .ARM.attributes
                0x00000173       0x39 build/LAN9253_D51_SQI_Indirect_mode/production/_ext/1593096446/plib_nvmctrl.o
 .ARM.attributes
                0x000001ac       0x39 build/LAN9253_D51_SQI_Indirect_mode/production/_ext/1865521619/plib_port.o
 .ARM.attributes
                0x000001e5       0x39 build/LAN9253_D51_SQI_Indirect_mode/production/_ext/1865555181/plib_qspi.o
 .ARM.attributes
                0x0000021e       0x39 build/LAN9253_D51_SQI_Indirect_mode/production/_ext/1827571544/plib_systick.o
 .ARM.attributes
                0x00000257       0x39 build/LAN9253_D51_SQI_Indirect_mode/production/_ext/1171490990/exceptions.o
 .ARM.attributes
                0x00000290       0x39 build/LAN9253_D51_SQI_Indirect_mode/production/_ext/1171490990/initialization.o
 .ARM.attributes
                0x000002c9       0x39 build/LAN9253_D51_SQI_Indirect_mode/production/_ext/1171490990/interrupts.o
 .ARM.attributes
                0x00000302       0x39 build/LAN9253_D51_SQI_Indirect_mode/production/_ext/1171490990/startup_xc32.o
 .ARM.attributes
                0x0000033b       0x39 build/LAN9253_D51_SQI_Indirect_mode/production/_ext/1171490990/tasks.o
 .ARM.attributes
                0x00000374       0x39 build/LAN9253_D51_SQI_Indirect_mode/production/_ext/1671622979/Drivers.o
 .ARM.attributes
                0x000003ad       0x39 build/LAN9253_D51_SQI_Indirect_mode/production/_ext/108147519/ESC_Utils.o
 .ARM.attributes
                0x000003e6       0x39 build/LAN9253_D51_SQI_Indirect_mode/production/_ext/108147519/LAN925x.o
 .ARM.attributes
                0x0000041f       0x39 build/LAN9253_D51_SQI_Indirect_mode/production/_ext/108134065/bootmode.o
 .ARM.attributes
                0x00000458       0x39 build/LAN9253_D51_SQI_Indirect_mode/production/_ext/108134065/coeappl.o
 .ARM.attributes
                0x00000491       0x39 build/LAN9253_D51_SQI_Indirect_mode/production/_ext/108134065/ecatappl.o
 .ARM.attributes
                0x000004ca       0x39 build/LAN9253_D51_SQI_Indirect_mode/production/_ext/108134065/ecatcoe.o
 .ARM.attributes
                0x00000503       0x39 build/LAN9253_D51_SQI_Indirect_mode/production/_ext/108134065/ecatfoe.o
 .ARM.attributes
                0x0000053c       0x39 build/LAN9253_D51_SQI_Indirect_mode/production/_ext/108134065/ecatslv.o
 .ARM.attributes
                0x00000575       0x39 build/LAN9253_D51_SQI_Indirect_mode/production/_ext/108134065/emcy.o
 .ARM.attributes
                0x000005ae       0x39 build/LAN9253_D51_SQI_Indirect_mode/production/_ext/108134065/foeappl.o
 .ARM.attributes
                0x000005e7       0x39 build/LAN9253_D51_SQI_Indirect_mode/production/_ext/108134065/mailbox.o
 .ARM.attributes
                0x00000620       0x39 build/LAN9253_D51_SQI_Indirect_mode/production/_ext/108134065/objdef.o
 .ARM.attributes
                0x00000659       0x39 build/LAN9253_D51_SQI_Indirect_mode/production/_ext/108134065/sample_app.o
 .ARM.attributes
                0x00000692       0x39 build/LAN9253_D51_SQI_Indirect_mode/production/_ext/108134065/sdoserv.o
 .ARM.attributes
                0x000006cb       0x39 build/LAN9253_D51_SQI_Indirect_mode/production/_ext/1360937237/main.o
 .ARM.attributes
                0x00000704       0x39 build/LAN9253_D51_SQI_Indirect_mode/production/_ext/1360937237/app.o
 .ARM.attributes
                0x0000073d       0x34 c:/program files (x86)/microchip/xc32/v2.30/bin/bin/../../lib/gcc/pic32c/6.2.1/../../../../pic32c/lib/v7e-m/fpv4-sp/hard\libpic32c.a(data_init.o)
 .ARM.attributes
                0x00000771       0x34 c:/program files (x86)/microchip/xc32/v2.30/bin/bin/../../lib/gcc/pic32c/6.2.1/../../../../pic32c/lib/v7e-m/fpv4-sp/hard\libc.a(lib_a-init.o)
 .ARM.attributes
                0x000007a5       0x34 c:/program files (x86)/microchip/xc32/v2.30/bin/bin/../../lib/gcc/pic32c/6.2.1/../../../../pic32c/lib/v7e-m/fpv4-sp/hard\libc.a(lib_a-malloc.o)
 .ARM.attributes
                0x000007d9       0x34 c:/program files (x86)/microchip/xc32/v2.30/bin/bin/../../lib/gcc/pic32c/6.2.1/../../../../pic32c/lib/v7e-m/fpv4-sp/hard\libc.a(lib_a-mallocr.o)
 .ARM.attributes
                0x0000080d       0x34 c:/program files (x86)/microchip/xc32/v2.30/bin/bin/../../lib/gcc/pic32c/6.2.1/../../../../pic32c/lib/v7e-m/fpv4-sp/hard\libc.a(lib_a-memcpy-stub.o)
 .ARM.attributes
                0x00000841       0x34 c:/program files (x86)/microchip/xc32/v2.30/bin/bin/../../lib/gcc/pic32c/6.2.1/../../../../pic32c/lib/v7e-m/fpv4-sp/hard\libc.a(lib_a-memset.o)
 .ARM.attributes
                0x00000875       0x34 c:/program files (x86)/microchip/xc32/v2.30/bin/bin/../../lib/gcc/pic32c/6.2.1/../../../../pic32c/lib/v7e-m/fpv4-sp/hard\libc.a(lib_a-mlock.o)
 .ARM.attributes
                0x000008a9       0x34 c:/program files (x86)/microchip/xc32/v2.30/bin/bin/../../lib/gcc/pic32c/6.2.1/../../../../pic32c/lib/v7e-m/fpv4-sp/hard\libc.a(lib_a-sbrkr.o)
 .ARM.attributes
                0x000008dd       0x1b c:/program files (x86)/microchip/xc32/v2.30/bin/bin/../../lib/gcc/pic32c/6.2.1/../../../../pic32c/lib/v7e-m/fpv4-sp/hard\libc.a(lib_a-strlen.o)
 .ARM.attributes
                0x000008f8       0x34 c:/program files (x86)/microchip/xc32/v2.30/bin/bin/../../lib/gcc/pic32c/6.2.1/../../../../pic32c/lib/v7e-m/fpv4-sp/hard\libc.a(lib_a-freer.o)
 .ARM.attributes
                0x0000092c       0x34 c:/program files (x86)/microchip/xc32/v2.30/bin/bin/../../lib/gcc/pic32c/6.2.1/../../../../pic32c/lib/v7e-m/fpv4-sp/hard\libc.a(lib_a-impure.o)
 .ARM.attributes
                0x00000960       0x34 c:/program files (x86)/microchip/xc32/v2.30/bin/bin/../../lib/gcc/pic32c/6.2.1/../../../../pic32c/lib/v7e-m/fpv4-sp/hard\libc.a(lib_a-reent.o)
 .ARM.attributes
                0x00000994       0x34 c:/program files (x86)/microchip/xc32/v2.30/bin/bin/../../lib/gcc/pic32c/6.2.1/../../../../pic32c/lib/v7e-m/fpv4-sp/hard\libpic32c.a(sbrk.o)
 .ARM.attributes
                0x000009c8       0x22 c:/program files (x86)/microchip/xc32/v2.30/bin/bin/../../lib/gcc/pic32c/6.2.1/v7e-m/fpv4-sp/hard/crtn.o

.comment        0x00000000       0x3c
 .comment       0x00000000       0x3c c:/program files (x86)/microchip/xc32/v2.30/bin/bin/../../lib/gcc/pic32c/6.2.1/v7e-m/fpv4-sp/hard/crtbegin.o
                                 0x3d (size before relaxing)
 .comment       0x0000003c       0x3d build/LAN9253_D51_SQI_Indirect_mode/production/_ext/1984496892/plib_clock.o
 .comment       0x0000003c       0x3d build/LAN9253_D51_SQI_Indirect_mode/production/_ext/1865161661/plib_dmac.o
 .comment       0x0000003c       0x3d build/LAN9253_D51_SQI_Indirect_mode/production/_ext/60167341/plib_eic.o
 .comment       0x0000003c       0x3d build/LAN9253_D51_SQI_Indirect_mode/production/_ext/1986646378/plib_evsys.o
 .comment       0x0000003c       0x3d build/LAN9253_D51_SQI_Indirect_mode/production/_ext/1865468468/plib_nvic.o
 .comment       0x0000003c       0x3d build/LAN9253_D51_SQI_Indirect_mode/production/_ext/1593096446/plib_nvmctrl.o
 .comment       0x0000003c       0x3d build/LAN9253_D51_SQI_Indirect_mode/production/_ext/1865521619/plib_port.o
 .comment       0x0000003c       0x3d build/LAN9253_D51_SQI_Indirect_mode/production/_ext/1865555181/plib_qspi.o
 .comment       0x0000003c       0x3d build/LAN9253_D51_SQI_Indirect_mode/production/_ext/1827571544/plib_systick.o
 .comment       0x0000003c       0x3d build/LAN9253_D51_SQI_Indirect_mode/production/_ext/1171490990/exceptions.o
 .comment       0x0000003c       0x3d build/LAN9253_D51_SQI_Indirect_mode/production/_ext/1171490990/initialization.o
 .comment       0x0000003c       0x3d build/LAN9253_D51_SQI_Indirect_mode/production/_ext/1171490990/interrupts.o
 .comment       0x0000003c       0x3d build/LAN9253_D51_SQI_Indirect_mode/production/_ext/1171490990/startup_xc32.o
 .comment       0x0000003c       0x3d build/LAN9253_D51_SQI_Indirect_mode/production/_ext/1171490990/tasks.o
 .comment       0x0000003c       0x3d build/LAN9253_D51_SQI_Indirect_mode/production/_ext/1671622979/Drivers.o
 .comment       0x0000003c       0x3d build/LAN9253_D51_SQI_Indirect_mode/production/_ext/108147519/ESC_Utils.o
 .comment       0x0000003c       0x3d build/LAN9253_D51_SQI_Indirect_mode/production/_ext/108147519/LAN925x.o
 .comment       0x0000003c       0x3d build/LAN9253_D51_SQI_Indirect_mode/production/_ext/108134065/bootmode.o
 .comment       0x0000003c       0x3d build/LAN9253_D51_SQI_Indirect_mode/production/_ext/108134065/coeappl.o
 .comment       0x0000003c       0x3d build/LAN9253_D51_SQI_Indirect_mode/production/_ext/108134065/ecatappl.o
 .comment       0x0000003c       0x3d build/LAN9253_D51_SQI_Indirect_mode/production/_ext/108134065/ecatcoe.o
 .comment       0x0000003c       0x3d build/LAN9253_D51_SQI_Indirect_mode/production/_ext/108134065/ecatfoe.o
 .comment       0x0000003c       0x3d build/LAN9253_D51_SQI_Indirect_mode/production/_ext/108134065/ecatslv.o
 .comment       0x0000003c       0x3d build/LAN9253_D51_SQI_Indirect_mode/production/_ext/108134065/emcy.o
 .comment       0x0000003c       0x3d build/LAN9253_D51_SQI_Indirect_mode/production/_ext/108134065/foeappl.o
 .comment       0x0000003c       0x3d build/LAN9253_D51_SQI_Indirect_mode/production/_ext/108134065/mailbox.o
 .comment       0x0000003c       0x3d build/LAN9253_D51_SQI_Indirect_mode/production/_ext/108134065/objdef.o
 .comment       0x0000003c       0x3d build/LAN9253_D51_SQI_Indirect_mode/production/_ext/108134065/sample_app.o
 .comment       0x0000003c       0x3d build/LAN9253_D51_SQI_Indirect_mode/production/_ext/108134065/sdoserv.o
 .comment       0x0000003c       0x3d build/LAN9253_D51_SQI_Indirect_mode/production/_ext/1360937237/main.o
 .comment       0x0000003c       0x3d build/LAN9253_D51_SQI_Indirect_mode/production/_ext/1360937237/app.o
 .comment       0x0000003c       0x3d c:/program files (x86)/microchip/xc32/v2.30/bin/bin/../../lib/gcc/pic32c/6.2.1/../../../../pic32c/lib/v7e-m/fpv4-sp/hard\libpic32c.a(data_init.o)
 .comment       0x0000003c       0x3d c:/program files (x86)/microchip/xc32/v2.30/bin/bin/../../lib/gcc/pic32c/6.2.1/../../../../pic32c/lib/v7e-m/fpv4-sp/hard\libc.a(lib_a-init.o)
 .comment       0x0000003c       0x3d c:/program files (x86)/microchip/xc32/v2.30/bin/bin/../../lib/gcc/pic32c/6.2.1/../../../../pic32c/lib/v7e-m/fpv4-sp/hard\libc.a(lib_a-malloc.o)
 .comment       0x0000003c       0x3d c:/program files (x86)/microchip/xc32/v2.30/bin/bin/../../lib/gcc/pic32c/6.2.1/../../../../pic32c/lib/v7e-m/fpv4-sp/hard\libc.a(lib_a-mallocr.o)
 .comment       0x0000003c       0x3d c:/program files (x86)/microchip/xc32/v2.30/bin/bin/../../lib/gcc/pic32c/6.2.1/../../../../pic32c/lib/v7e-m/fpv4-sp/hard\libc.a(lib_a-memcpy-stub.o)
 .comment       0x0000003c       0x3d c:/program files (x86)/microchip/xc32/v2.30/bin/bin/../../lib/gcc/pic32c/6.2.1/../../../../pic32c/lib/v7e-m/fpv4-sp/hard\libc.a(lib_a-memset.o)
 .comment       0x0000003c       0x3d c:/program files (x86)/microchip/xc32/v2.30/bin/bin/../../lib/gcc/pic32c/6.2.1/../../../../pic32c/lib/v7e-m/fpv4-sp/hard\libc.a(lib_a-mlock.o)
 .comment       0x0000003c       0x3d c:/program files (x86)/microchip/xc32/v2.30/bin/bin/../../lib/gcc/pic32c/6.2.1/../../../../pic32c/lib/v7e-m/fpv4-sp/hard\libc.a(lib_a-sbrkr.o)
 .comment       0x0000003c       0x3d c:/program files (x86)/microchip/xc32/v2.30/bin/bin/../../lib/gcc/pic32c/6.2.1/../../../../pic32c/lib/v7e-m/fpv4-sp/hard\libc.a(lib_a-freer.o)
 .comment       0x0000003c       0x3d c:/program files (x86)/microchip/xc32/v2.30/bin/bin/../../lib/gcc/pic32c/6.2.1/../../../../pic32c/lib/v7e-m/fpv4-sp/hard\libc.a(lib_a-impure.o)
 .comment       0x0000003c       0x3d c:/program files (x86)/microchip/xc32/v2.30/bin/bin/../../lib/gcc/pic32c/6.2.1/../../../../pic32c/lib/v7e-m/fpv4-sp/hard\libc.a(lib_a-reent.o)
 .comment       0x0000003c       0x3d c:/program files (x86)/microchip/xc32/v2.30/bin/bin/../../lib/gcc/pic32c/6.2.1/../../../../pic32c/lib/v7e-m/fpv4-sp/hard\libpic32c.a(sbrk.o)

.debug_info     0x00000000    0x5666d
 .debug_info    0x00000000      0xb98 build/LAN9253_D51_SQI_Indirect_mode/production/_ext/1984496892/plib_clock.o
 .debug_info    0x00000b98     0x2ca1 build/LAN9253_D51_SQI_Indirect_mode/production/_ext/1865161661/plib_dmac.o
 .debug_info    0x00003839      0x7f9 build/LAN9253_D51_SQI_Indirect_mode/production/_ext/60167341/plib_eic.o
 .debug_info    0x00004032      0x377 build/LAN9253_D51_SQI_Indirect_mode/production/_ext/1986646378/plib_evsys.o
 .debug_info    0x000043a9     0x12be build/LAN9253_D51_SQI_Indirect_mode/production/_ext/1865468468/plib_nvic.o
 .debug_info    0x00005667     0x174d build/LAN9253_D51_SQI_Indirect_mode/production/_ext/1593096446/plib_nvmctrl.o
 .debug_info    0x00006db4      0x822 build/LAN9253_D51_SQI_Indirect_mode/production/_ext/1865521619/plib_port.o
 .debug_info    0x000075d6      0xded build/LAN9253_D51_SQI_Indirect_mode/production/_ext/1865555181/plib_qspi.o
 .debug_info    0x000083c3      0x6ca build/LAN9253_D51_SQI_Indirect_mode/production/_ext/1827571544/plib_systick.o
 .debug_info    0x00008a8d     0x19eb build/LAN9253_D51_SQI_Indirect_mode/production/_ext/1171490990/exceptions.o
 .debug_info    0x0000a478     0x1af6 build/LAN9253_D51_SQI_Indirect_mode/production/_ext/1171490990/initialization.o
 .debug_info    0x0000bf6e     0x2ccd build/LAN9253_D51_SQI_Indirect_mode/production/_ext/1171490990/interrupts.o
 .debug_info    0x0000ec3b     0x1eb9 build/LAN9253_D51_SQI_Indirect_mode/production/_ext/1171490990/startup_xc32.o
 .debug_info    0x00010af4     0x193c build/LAN9253_D51_SQI_Indirect_mode/production/_ext/1171490990/tasks.o
 .debug_info    0x00012430     0x41bb build/LAN9253_D51_SQI_Indirect_mode/production/_ext/1671622979/Drivers.o
 .debug_info    0x000165eb     0x1bf1 build/LAN9253_D51_SQI_Indirect_mode/production/_ext/108147519/ESC_Utils.o
 .debug_info    0x000181dc     0x2d84 build/LAN9253_D51_SQI_Indirect_mode/production/_ext/108147519/LAN925x.o
 .debug_info    0x0001af60     0x1264 build/LAN9253_D51_SQI_Indirect_mode/production/_ext/108134065/bootmode.o
 .debug_info    0x0001c1c4     0x5c7d build/LAN9253_D51_SQI_Indirect_mode/production/_ext/108134065/coeappl.o
 .debug_info    0x00021e41     0x571a build/LAN9253_D51_SQI_Indirect_mode/production/_ext/108134065/ecatappl.o
 .debug_info    0x0002755b     0x170a build/LAN9253_D51_SQI_Indirect_mode/production/_ext/108134065/ecatcoe.o
 .debug_info    0x00028c65     0x2539 build/LAN9253_D51_SQI_Indirect_mode/production/_ext/108134065/ecatfoe.o
 .debug_info    0x0002b19e     0x64b7 build/LAN9253_D51_SQI_Indirect_mode/production/_ext/108134065/ecatslv.o
 .debug_info    0x00031655     0x250c build/LAN9253_D51_SQI_Indirect_mode/production/_ext/108134065/emcy.o
 .debug_info    0x00033b61     0x28df build/LAN9253_D51_SQI_Indirect_mode/production/_ext/108134065/foeappl.o
 .debug_info    0x00036440     0x307a build/LAN9253_D51_SQI_Indirect_mode/production/_ext/108134065/mailbox.o
 .debug_info    0x000394ba     0x343c build/LAN9253_D51_SQI_Indirect_mode/production/_ext/108134065/objdef.o
 .debug_info    0x0003c8f6     0x59d6 build/LAN9253_D51_SQI_Indirect_mode/production/_ext/108134065/sample_app.o
 .debug_info    0x000422cc     0x3928 build/LAN9253_D51_SQI_Indirect_mode/production/_ext/108134065/sdoserv.o
 .debug_info    0x00045bf4     0x194b build/LAN9253_D51_SQI_Indirect_mode/production/_ext/1360937237/main.o
 .debug_info    0x0004753f     0x52e6 build/LAN9253_D51_SQI_Indirect_mode/production/_ext/1360937237/app.o
 .debug_info    0x0004c825      0x2a2 c:/program files (x86)/microchip/xc32/v2.30/bin/bin/../../lib/gcc/pic32c/6.2.1/../../../../pic32c/lib/v7e-m/fpv4-sp/hard\libpic32c.a(data_init.o)
 .debug_info    0x0004cac7      0x41a c:/program files (x86)/microchip/xc32/v2.30/bin/bin/../../lib/gcc/pic32c/6.2.1/../../../../pic32c/lib/v7e-m/fpv4-sp/hard\libc.a(lib_a-init.o)
 .debug_info    0x0004cee1      0xe58 c:/program files (x86)/microchip/xc32/v2.30/bin/bin/../../lib/gcc/pic32c/6.2.1/../../../../pic32c/lib/v7e-m/fpv4-sp/hard\libc.a(lib_a-malloc.o)
 .debug_info    0x0004dd39     0x14ca c:/program files (x86)/microchip/xc32/v2.30/bin/bin/../../lib/gcc/pic32c/6.2.1/../../../../pic32c/lib/v7e-m/fpv4-sp/hard\libc.a(lib_a-mallocr.o)
 .debug_info    0x0004f203      0xe2e c:/program files (x86)/microchip/xc32/v2.30/bin/bin/../../lib/gcc/pic32c/6.2.1/../../../../pic32c/lib/v7e-m/fpv4-sp/hard\libc.a(lib_a-memcpy-stub.o)
 .debug_info    0x00050031     0x156f c:/program files (x86)/microchip/xc32/v2.30/bin/bin/../../lib/gcc/pic32c/6.2.1/../../../../pic32c/lib/v7e-m/fpv4-sp/hard\libc.a(lib_a-memset.o)
 .debug_info    0x000515a0      0xdf2 c:/program files (x86)/microchip/xc32/v2.30/bin/bin/../../lib/gcc/pic32c/6.2.1/../../../../pic32c/lib/v7e-m/fpv4-sp/hard\libc.a(lib_a-mlock.o)
 .debug_info    0x00052392      0xea5 c:/program files (x86)/microchip/xc32/v2.30/bin/bin/../../lib/gcc/pic32c/6.2.1/../../../../pic32c/lib/v7e-m/fpv4-sp/hard\libc.a(lib_a-sbrkr.o)
 .debug_info    0x00053237      0x125 c:/program files (x86)/microchip/xc32/v2.30/bin/bin/../../lib/gcc/pic32c/6.2.1/../../../../pic32c/lib/v7e-m/fpv4-sp/hard\libc.a(lib_a-strlen.o)
 .debug_info    0x0005335c     0x137d c:/program files (x86)/microchip/xc32/v2.30/bin/bin/../../lib/gcc/pic32c/6.2.1/../../../../pic32c/lib/v7e-m/fpv4-sp/hard\libc.a(lib_a-freer.o)
 .debug_info    0x000546d9      0xdb5 c:/program files (x86)/microchip/xc32/v2.30/bin/bin/../../lib/gcc/pic32c/6.2.1/../../../../pic32c/lib/v7e-m/fpv4-sp/hard\libc.a(lib_a-impure.o)
 .debug_info    0x0005548e      0xf59 c:/program files (x86)/microchip/xc32/v2.30/bin/bin/../../lib/gcc/pic32c/6.2.1/../../../../pic32c/lib/v7e-m/fpv4-sp/hard\libc.a(lib_a-reent.o)
 .debug_info    0x000563e7      0x286 c:/program files (x86)/microchip/xc32/v2.30/bin/bin/../../lib/gcc/pic32c/6.2.1/../../../../pic32c/lib/v7e-m/fpv4-sp/hard\libpic32c.a(sbrk.o)

.debug_abbrev   0x00000000     0x6336
 .debug_abbrev  0x00000000      0x114 build/LAN9253_D51_SQI_Indirect_mode/production/_ext/1984496892/plib_clock.o
 .debug_abbrev  0x00000114      0x3c0 build/LAN9253_D51_SQI_Indirect_mode/production/_ext/1865161661/plib_dmac.o
 .debug_abbrev  0x000004d4      0x186 build/LAN9253_D51_SQI_Indirect_mode/production/_ext/60167341/plib_eic.o
 .debug_abbrev  0x0000065a       0x5e build/LAN9253_D51_SQI_Indirect_mode/production/_ext/1986646378/plib_evsys.o
 .debug_abbrev  0x000006b8      0x186 build/LAN9253_D51_SQI_Indirect_mode/production/_ext/1865468468/plib_nvic.o
 .debug_abbrev  0x0000083e      0x2ba build/LAN9253_D51_SQI_Indirect_mode/production/_ext/1593096446/plib_nvmctrl.o
 .debug_abbrev  0x00000af8      0x160 build/LAN9253_D51_SQI_Indirect_mode/production/_ext/1865521619/plib_port.o
 .debug_abbrev  0x00000c58      0x28b build/LAN9253_D51_SQI_Indirect_mode/production/_ext/1865555181/plib_qspi.o
 .debug_abbrev  0x00000ee3      0x194 build/LAN9253_D51_SQI_Indirect_mode/production/_ext/1827571544/plib_systick.o
 .debug_abbrev  0x00001077      0x1d1 build/LAN9253_D51_SQI_Indirect_mode/production/_ext/1171490990/exceptions.o
 .debug_abbrev  0x00001248      0x21e build/LAN9253_D51_SQI_Indirect_mode/production/_ext/1171490990/initialization.o
 .debug_abbrev  0x00001466      0x1d1 build/LAN9253_D51_SQI_Indirect_mode/production/_ext/1171490990/interrupts.o
 .debug_abbrev  0x00001637      0x2a4 build/LAN9253_D51_SQI_Indirect_mode/production/_ext/1171490990/startup_xc32.o
 .debug_abbrev  0x000018db      0x1f0 build/LAN9253_D51_SQI_Indirect_mode/production/_ext/1171490990/tasks.o
 .debug_abbrev  0x00001acb      0x439 build/LAN9253_D51_SQI_Indirect_mode/production/_ext/1671622979/Drivers.o
 .debug_abbrev  0x00001f04      0x2d3 build/LAN9253_D51_SQI_Indirect_mode/production/_ext/108147519/ESC_Utils.o
 .debug_abbrev  0x000021d7      0x32f build/LAN9253_D51_SQI_Indirect_mode/production/_ext/108147519/LAN925x.o
 .debug_abbrev  0x00002506      0x208 build/LAN9253_D51_SQI_Indirect_mode/production/_ext/108134065/bootmode.o
 .debug_abbrev  0x0000270e      0x36e build/LAN9253_D51_SQI_Indirect_mode/production/_ext/108134065/coeappl.o
 .debug_abbrev  0x00002a7c      0x347 build/LAN9253_D51_SQI_Indirect_mode/production/_ext/108134065/ecatappl.o
 .debug_abbrev  0x00002dc3      0x253 build/LAN9253_D51_SQI_Indirect_mode/production/_ext/108134065/ecatcoe.o
 .debug_abbrev  0x00003016      0x2da build/LAN9253_D51_SQI_Indirect_mode/production/_ext/108134065/ecatfoe.o
 .debug_abbrev  0x000032f0      0x3a9 build/LAN9253_D51_SQI_Indirect_mode/production/_ext/108134065/ecatslv.o
 .debug_abbrev  0x00003699      0x30f build/LAN9253_D51_SQI_Indirect_mode/production/_ext/108134065/emcy.o
 .debug_abbrev  0x000039a8      0x2be build/LAN9253_D51_SQI_Indirect_mode/production/_ext/108134065/foeappl.o
 .debug_abbrev  0x00003c66      0x388 build/LAN9253_D51_SQI_Indirect_mode/production/_ext/108134065/mailbox.o
 .debug_abbrev  0x00003fee      0x38f build/LAN9253_D51_SQI_Indirect_mode/production/_ext/108134065/objdef.o
 .debug_abbrev  0x0000437d      0x3f8 build/LAN9253_D51_SQI_Indirect_mode/production/_ext/108134065/sample_app.o
 .debug_abbrev  0x00004775      0x3e7 build/LAN9253_D51_SQI_Indirect_mode/production/_ext/108134065/sdoserv.o
 .debug_abbrev  0x00004b5c      0x20b build/LAN9253_D51_SQI_Indirect_mode/production/_ext/1360937237/main.o
 .debug_abbrev  0x00004d67      0x309 build/LAN9253_D51_SQI_Indirect_mode/production/_ext/1360937237/app.o
 .debug_abbrev  0x00005070       0x2a c:/program files (x86)/microchip/xc32/v2.30/bin/bin/../../lib/gcc/pic32c/6.2.1/../../../../pic32c/lib/v7e-m/fpv4-sp/hard\libpic32c.a(data_init.o)
 .debug_abbrev  0x0000509a       0xa3 c:/program files (x86)/microchip/xc32/v2.30/bin/bin/../../lib/gcc/pic32c/6.2.1/../../../../pic32c/lib/v7e-m/fpv4-sp/hard\libc.a(lib_a-init.o)
 .debug_abbrev  0x0000513d      0x1f8 c:/program files (x86)/microchip/xc32/v2.30/bin/bin/../../lib/gcc/pic32c/6.2.1/../../../../pic32c/lib/v7e-m/fpv4-sp/hard\libc.a(lib_a-malloc.o)
 .debug_abbrev  0x00005335      0x29b c:/program files (x86)/microchip/xc32/v2.30/bin/bin/../../lib/gcc/pic32c/6.2.1/../../../../pic32c/lib/v7e-m/fpv4-sp/hard\libc.a(lib_a-mallocr.o)
 .debug_abbrev  0x000055d0      0x1c1 c:/program files (x86)/microchip/xc32/v2.30/bin/bin/../../lib/gcc/pic32c/6.2.1/../../../../pic32c/lib/v7e-m/fpv4-sp/hard\libc.a(lib_a-memcpy-stub.o)
 .debug_abbrev  0x00005791      0x1b5 c:/program files (x86)/microchip/xc32/v2.30/bin/bin/../../lib/gcc/pic32c/6.2.1/../../../../pic32c/lib/v7e-m/fpv4-sp/hard\libc.a(lib_a-memset.o)
 .debug_abbrev  0x00005946      0x1aa c:/program files (x86)/microchip/xc32/v2.30/bin/bin/../../lib/gcc/pic32c/6.2.1/../../../../pic32c/lib/v7e-m/fpv4-sp/hard\libc.a(lib_a-mlock.o)
 .debug_abbrev  0x00005af0      0x1ed c:/program files (x86)/microchip/xc32/v2.30/bin/bin/../../lib/gcc/pic32c/6.2.1/../../../../pic32c/lib/v7e-m/fpv4-sp/hard\libc.a(lib_a-sbrkr.o)
 .debug_abbrev  0x00005cdd       0x14 c:/program files (x86)/microchip/xc32/v2.30/bin/bin/../../lib/gcc/pic32c/6.2.1/../../../../pic32c/lib/v7e-m/fpv4-sp/hard\libc.a(lib_a-strlen.o)
 .debug_abbrev  0x00005cf1      0x24d c:/program files (x86)/microchip/xc32/v2.30/bin/bin/../../lib/gcc/pic32c/6.2.1/../../../../pic32c/lib/v7e-m/fpv4-sp/hard\libc.a(lib_a-freer.o)
 .debug_abbrev  0x00005f3e      0x176 c:/program files (x86)/microchip/xc32/v2.30/bin/bin/../../lib/gcc/pic32c/6.2.1/../../../../pic32c/lib/v7e-m/fpv4-sp/hard\libc.a(lib_a-impure.o)
 .debug_abbrev  0x000060b4      0x258 c:/program files (x86)/microchip/xc32/v2.30/bin/bin/../../lib/gcc/pic32c/6.2.1/../../../../pic32c/lib/v7e-m/fpv4-sp/hard\libc.a(lib_a-reent.o)
 .debug_abbrev  0x0000630c       0x2a c:/program files (x86)/microchip/xc32/v2.30/bin/bin/../../lib/gcc/pic32c/6.2.1/../../../../pic32c/lib/v7e-m/fpv4-sp/hard\libpic32c.a(sbrk.o)

.debug_aranges  0x00000000      0xc48
 .debug_aranges
                0x00000000       0x20 build/LAN9253_D51_SQI_Indirect_mode/production/_ext/1984496892/plib_clock.o
 .debug_aranges
                0x00000020       0xa8 build/LAN9253_D51_SQI_Indirect_mode/production/_ext/1865161661/plib_dmac.o
 .debug_aranges
                0x000000c8       0x50 build/LAN9253_D51_SQI_Indirect_mode/production/_ext/60167341/plib_eic.o
 .debug_aranges
                0x00000118       0x20 build/LAN9253_D51_SQI_Indirect_mode/production/_ext/1986646378/plib_evsys.o
 .debug_aranges
                0x00000138       0x20 build/LAN9253_D51_SQI_Indirect_mode/production/_ext/1865468468/plib_nvic.o
 .debug_aranges
                0x00000158       0xb0 build/LAN9253_D51_SQI_Indirect_mode/production/_ext/1593096446/plib_nvmctrl.o
 .debug_aranges
                0x00000208       0x60 build/LAN9253_D51_SQI_Indirect_mode/production/_ext/1865521619/plib_port.o
 .debug_aranges
                0x00000268       0x58 build/LAN9253_D51_SQI_Indirect_mode/production/_ext/1865555181/plib_qspi.o
 .debug_aranges
                0x000002c0       0x70 build/LAN9253_D51_SQI_Indirect_mode/production/_ext/1827571544/plib_systick.o
 .debug_aranges
                0x00000330       0x48 build/LAN9253_D51_SQI_Indirect_mode/production/_ext/1171490990/exceptions.o
 .debug_aranges
                0x00000378       0x20 build/LAN9253_D51_SQI_Indirect_mode/production/_ext/1171490990/initialization.o
 .debug_aranges
                0x00000398       0x20 build/LAN9253_D51_SQI_Indirect_mode/production/_ext/1171490990/interrupts.o
 .debug_aranges
                0x000003b8       0x20 build/LAN9253_D51_SQI_Indirect_mode/production/_ext/1171490990/startup_xc32.o
 .debug_aranges
                0x000003d8       0x20 build/LAN9253_D51_SQI_Indirect_mode/production/_ext/1171490990/tasks.o
 .debug_aranges
                0x000003f8       0xc0 build/LAN9253_D51_SQI_Indirect_mode/production/_ext/1671622979/Drivers.o
 .debug_aranges
                0x000004b8       0x38 build/LAN9253_D51_SQI_Indirect_mode/production/_ext/108147519/ESC_Utils.o
 .debug_aranges
                0x000004f0       0x80 build/LAN9253_D51_SQI_Indirect_mode/production/_ext/108147519/LAN925x.o
 .debug_aranges
                0x00000570       0x38 build/LAN9253_D51_SQI_Indirect_mode/production/_ext/108134065/bootmode.o
 .debug_aranges
                0x000005a8       0x70 build/LAN9253_D51_SQI_Indirect_mode/production/_ext/108134065/coeappl.o
 .debug_aranges
                0x00000618       0x70 build/LAN9253_D51_SQI_Indirect_mode/production/_ext/108134065/ecatappl.o
 .debug_aranges
                0x00000688       0x30 build/LAN9253_D51_SQI_Indirect_mode/production/_ext/108134065/ecatcoe.o
 .debug_aranges
                0x000006b8       0x30 build/LAN9253_D51_SQI_Indirect_mode/production/_ext/108134065/ecatfoe.o
 .debug_aranges
                0x000006e8       0xc8 build/LAN9253_D51_SQI_Indirect_mode/production/_ext/108134065/ecatslv.o
 .debug_aranges
                0x000007b0       0x60 build/LAN9253_D51_SQI_Indirect_mode/production/_ext/108134065/emcy.o
 .debug_aranges
                0x00000810       0x48 build/LAN9253_D51_SQI_Indirect_mode/production/_ext/108134065/foeappl.o
 .debug_aranges
                0x00000858       0x80 build/LAN9253_D51_SQI_Indirect_mode/production/_ext/108134065/mailbox.o
 .debug_aranges
                0x000008d8       0x78 build/LAN9253_D51_SQI_Indirect_mode/production/_ext/108134065/objdef.o
 .debug_aranges
                0x00000950       0xb8 build/LAN9253_D51_SQI_Indirect_mode/production/_ext/108134065/sample_app.o
 .debug_aranges
                0x00000a08       0x40 build/LAN9253_D51_SQI_Indirect_mode/production/_ext/108134065/sdoserv.o
 .debug_aranges
                0x00000a48       0x20 build/LAN9253_D51_SQI_Indirect_mode/production/_ext/1360937237/main.o
 .debug_aranges
                0x00000a68       0x30 build/LAN9253_D51_SQI_Indirect_mode/production/_ext/1360937237/app.o
 .debug_aranges
                0x00000a98       0x20 c:/program files (x86)/microchip/xc32/v2.30/bin/bin/../../lib/gcc/pic32c/6.2.1/../../../../pic32c/lib/v7e-m/fpv4-sp/hard\libpic32c.a(data_init.o)
 .debug_aranges
                0x00000ab8       0x20 c:/program files (x86)/microchip/xc32/v2.30/bin/bin/../../lib/gcc/pic32c/6.2.1/../../../../pic32c/lib/v7e-m/fpv4-sp/hard\libc.a(lib_a-init.o)
 .debug_aranges
                0x00000ad8       0x28 c:/program files (x86)/microchip/xc32/v2.30/bin/bin/../../lib/gcc/pic32c/6.2.1/../../../../pic32c/lib/v7e-m/fpv4-sp/hard\libc.a(lib_a-malloc.o)
 .debug_aranges
                0x00000b00       0x20 c:/program files (x86)/microchip/xc32/v2.30/bin/bin/../../lib/gcc/pic32c/6.2.1/../../../../pic32c/lib/v7e-m/fpv4-sp/hard\libc.a(lib_a-mallocr.o)
 .debug_aranges
                0x00000b20       0x20 c:/program files (x86)/microchip/xc32/v2.30/bin/bin/../../lib/gcc/pic32c/6.2.1/../../../../pic32c/lib/v7e-m/fpv4-sp/hard\libc.a(lib_a-memcpy-stub.o)
 .debug_aranges
                0x00000b40       0x20 c:/program files (x86)/microchip/xc32/v2.30/bin/bin/../../lib/gcc/pic32c/6.2.1/../../../../pic32c/lib/v7e-m/fpv4-sp/hard\libc.a(lib_a-memset.o)
 .debug_aranges
                0x00000b60       0x20 c:/program files (x86)/microchip/xc32/v2.30/bin/bin/../../lib/gcc/pic32c/6.2.1/../../../../pic32c/lib/v7e-m/fpv4-sp/hard\libc.a(lib_a-mlock.o)
 .debug_aranges
                0x00000b80       0x20 c:/program files (x86)/microchip/xc32/v2.30/bin/bin/../../lib/gcc/pic32c/6.2.1/../../../../pic32c/lib/v7e-m/fpv4-sp/hard\libc.a(lib_a-sbrkr.o)
 .debug_aranges
                0x00000ba0       0x20 c:/program files (x86)/microchip/xc32/v2.30/bin/bin/../../lib/gcc/pic32c/6.2.1/../../../../pic32c/lib/v7e-m/fpv4-sp/hard\libc.a(lib_a-strlen.o)
 .debug_aranges
                0x00000bc0       0x28 c:/program files (x86)/microchip/xc32/v2.30/bin/bin/../../lib/gcc/pic32c/6.2.1/../../../../pic32c/lib/v7e-m/fpv4-sp/hard\libc.a(lib_a-freer.o)
 .debug_aranges
                0x00000be8       0x18 c:/program files (x86)/microchip/xc32/v2.30/bin/bin/../../lib/gcc/pic32c/6.2.1/../../../../pic32c/lib/v7e-m/fpv4-sp/hard\libc.a(lib_a-impure.o)
 .debug_aranges
                0x00000c00       0x28 c:/program files (x86)/microchip/xc32/v2.30/bin/bin/../../lib/gcc/pic32c/6.2.1/../../../../pic32c/lib/v7e-m/fpv4-sp/hard\libc.a(lib_a-reent.o)
 .debug_aranges
                0x00000c28       0x20 c:/program files (x86)/microchip/xc32/v2.30/bin/bin/../../lib/gcc/pic32c/6.2.1/../../../../pic32c/lib/v7e-m/fpv4-sp/hard\libpic32c.a(sbrk.o)

.debug_ranges   0x00000000     0x1028
 .debug_ranges  0x00000000       0x10 build/LAN9253_D51_SQI_Indirect_mode/production/_ext/1984496892/plib_clock.o
 .debug_ranges  0x00000010       0xb8 build/LAN9253_D51_SQI_Indirect_mode/production/_ext/1865161661/plib_dmac.o
 .debug_ranges  0x000000c8       0x40 build/LAN9253_D51_SQI_Indirect_mode/production/_ext/60167341/plib_eic.o
 .debug_ranges  0x00000108       0x10 build/LAN9253_D51_SQI_Indirect_mode/production/_ext/1986646378/plib_evsys.o
 .debug_ranges  0x00000118       0x10 build/LAN9253_D51_SQI_Indirect_mode/production/_ext/1865468468/plib_nvic.o
 .debug_ranges  0x00000128       0xa0 build/LAN9253_D51_SQI_Indirect_mode/production/_ext/1593096446/plib_nvmctrl.o
 .debug_ranges  0x000001c8       0x50 build/LAN9253_D51_SQI_Indirect_mode/production/_ext/1865521619/plib_port.o
 .debug_ranges  0x00000218       0x48 build/LAN9253_D51_SQI_Indirect_mode/production/_ext/1865555181/plib_qspi.o
 .debug_ranges  0x00000260       0x60 build/LAN9253_D51_SQI_Indirect_mode/production/_ext/1827571544/plib_systick.o
 .debug_ranges  0x000002c0       0x38 build/LAN9253_D51_SQI_Indirect_mode/production/_ext/1171490990/exceptions.o
 .debug_ranges  0x000002f8       0x10 build/LAN9253_D51_SQI_Indirect_mode/production/_ext/1171490990/initialization.o
 .debug_ranges  0x00000308       0x10 build/LAN9253_D51_SQI_Indirect_mode/production/_ext/1171490990/interrupts.o
 .debug_ranges  0x00000318       0x10 build/LAN9253_D51_SQI_Indirect_mode/production/_ext/1171490990/startup_xc32.o
 .debug_ranges  0x00000328       0x10 build/LAN9253_D51_SQI_Indirect_mode/production/_ext/1171490990/tasks.o
 .debug_ranges  0x00000338       0xb0 build/LAN9253_D51_SQI_Indirect_mode/production/_ext/1671622979/Drivers.o
 .debug_ranges  0x000003e8       0x78 build/LAN9253_D51_SQI_Indirect_mode/production/_ext/108147519/ESC_Utils.o
 .debug_ranges  0x00000460       0x70 build/LAN9253_D51_SQI_Indirect_mode/production/_ext/108147519/LAN925x.o
 .debug_ranges  0x000004d0       0x28 build/LAN9253_D51_SQI_Indirect_mode/production/_ext/108134065/bootmode.o
 .debug_ranges  0x000004f8       0x98 build/LAN9253_D51_SQI_Indirect_mode/production/_ext/108134065/coeappl.o
 .debug_ranges  0x00000590       0x78 build/LAN9253_D51_SQI_Indirect_mode/production/_ext/108134065/ecatappl.o
 .debug_ranges  0x00000608       0x20 build/LAN9253_D51_SQI_Indirect_mode/production/_ext/108134065/ecatcoe.o
 .debug_ranges  0x00000628       0x60 build/LAN9253_D51_SQI_Indirect_mode/production/_ext/108134065/ecatfoe.o
 .debug_ranges  0x00000688      0x120 build/LAN9253_D51_SQI_Indirect_mode/production/_ext/108134065/ecatslv.o
 .debug_ranges  0x000007a8       0x80 build/LAN9253_D51_SQI_Indirect_mode/production/_ext/108134065/emcy.o
 .debug_ranges  0x00000828       0x38 build/LAN9253_D51_SQI_Indirect_mode/production/_ext/108134065/foeappl.o
 .debug_ranges  0x00000860       0xe8 build/LAN9253_D51_SQI_Indirect_mode/production/_ext/108134065/mailbox.o
 .debug_ranges  0x00000948      0x318 build/LAN9253_D51_SQI_Indirect_mode/production/_ext/108134065/objdef.o
 .debug_ranges  0x00000c60       0xa8 build/LAN9253_D51_SQI_Indirect_mode/production/_ext/108134065/sample_app.o
 .debug_ranges  0x00000d08      0x1c8 build/LAN9253_D51_SQI_Indirect_mode/production/_ext/108134065/sdoserv.o
 .debug_ranges  0x00000ed0       0x10 build/LAN9253_D51_SQI_Indirect_mode/production/_ext/1360937237/main.o
 .debug_ranges  0x00000ee0       0x38 build/LAN9253_D51_SQI_Indirect_mode/production/_ext/1360937237/app.o
 .debug_ranges  0x00000f18       0x10 c:/program files (x86)/microchip/xc32/v2.30/bin/bin/../../lib/gcc/pic32c/6.2.1/../../../../pic32c/lib/v7e-m/fpv4-sp/hard\libpic32c.a(data_init.o)
 .debug_ranges  0x00000f28       0x10 c:/program files (x86)/microchip/xc32/v2.30/bin/bin/../../lib/gcc/pic32c/6.2.1/../../../../pic32c/lib/v7e-m/fpv4-sp/hard\libc.a(lib_a-init.o)
 .debug_ranges  0x00000f38       0x18 c:/program files (x86)/microchip/xc32/v2.30/bin/bin/../../lib/gcc/pic32c/6.2.1/../../../../pic32c/lib/v7e-m/fpv4-sp/hard\libc.a(lib_a-malloc.o)
 .debug_ranges  0x00000f50       0x28 c:/program files (x86)/microchip/xc32/v2.30/bin/bin/../../lib/gcc/pic32c/6.2.1/../../../../pic32c/lib/v7e-m/fpv4-sp/hard\libc.a(lib_a-mallocr.o)
 .debug_ranges  0x00000f78       0x10 c:/program files (x86)/microchip/xc32/v2.30/bin/bin/../../lib/gcc/pic32c/6.2.1/../../../../pic32c/lib/v7e-m/fpv4-sp/hard\libc.a(lib_a-memcpy-stub.o)
 .debug_ranges  0x00000f88       0x10 c:/program files (x86)/microchip/xc32/v2.30/bin/bin/../../lib/gcc/pic32c/6.2.1/../../../../pic32c/lib/v7e-m/fpv4-sp/hard\libc.a(lib_a-memset.o)
 .debug_ranges  0x00000f98       0x10 c:/program files (x86)/microchip/xc32/v2.30/bin/bin/../../lib/gcc/pic32c/6.2.1/../../../../pic32c/lib/v7e-m/fpv4-sp/hard\libc.a(lib_a-mlock.o)
 .debug_ranges  0x00000fa8       0x10 c:/program files (x86)/microchip/xc32/v2.30/bin/bin/../../lib/gcc/pic32c/6.2.1/../../../../pic32c/lib/v7e-m/fpv4-sp/hard\libc.a(lib_a-sbrkr.o)
 .debug_ranges  0x00000fb8       0x18 c:/program files (x86)/microchip/xc32/v2.30/bin/bin/../../lib/gcc/pic32c/6.2.1/../../../../pic32c/lib/v7e-m/fpv4-sp/hard\libc.a(lib_a-freer.o)
 .debug_ranges  0x00000fd0       0x48 c:/program files (x86)/microchip/xc32/v2.30/bin/bin/../../lib/gcc/pic32c/6.2.1/../../../../pic32c/lib/v7e-m/fpv4-sp/hard\libc.a(lib_a-reent.o)
 .debug_ranges  0x00001018       0x10 c:/program files (x86)/microchip/xc32/v2.30/bin/bin/../../lib/gcc/pic32c/6.2.1/../../../../pic32c/lib/v7e-m/fpv4-sp/hard\libpic32c.a(sbrk.o)

.debug_line     0x00000000     0x99f7
 .debug_line    0x00000000      0x1be build/LAN9253_D51_SQI_Indirect_mode/production/_ext/1984496892/plib_clock.o
 .debug_line    0x000001be      0x577 build/LAN9253_D51_SQI_Indirect_mode/production/_ext/1865161661/plib_dmac.o
 .debug_line    0x00000735      0x207 build/LAN9253_D51_SQI_Indirect_mode/production/_ext/60167341/plib_eic.o
 .debug_line    0x0000093c      0x13a build/LAN9253_D51_SQI_Indirect_mode/production/_ext/1986646378/plib_evsys.o
 .debug_line    0x00000a76      0x1c9 build/LAN9253_D51_SQI_Indirect_mode/production/_ext/1865468468/plib_nvic.o
 .debug_line    0x00000c3f      0x35e build/LAN9253_D51_SQI_Indirect_mode/production/_ext/1593096446/plib_nvmctrl.o
 .debug_line    0x00000f9d      0x213 build/LAN9253_D51_SQI_Indirect_mode/production/_ext/1865521619/plib_port.o
 .debug_line    0x000011b0      0x2bb build/LAN9253_D51_SQI_Indirect_mode/production/_ext/1865555181/plib_qspi.o
 .debug_line    0x0000146b      0x214 build/LAN9253_D51_SQI_Indirect_mode/production/_ext/1827571544/plib_systick.o
 .debug_line    0x0000167f      0x398 build/LAN9253_D51_SQI_Indirect_mode/production/_ext/1171490990/exceptions.o
 .debug_line    0x00001a17      0x552 build/LAN9253_D51_SQI_Indirect_mode/production/_ext/1171490990/initialization.o
 .debug_line    0x00001f69      0x379 build/LAN9253_D51_SQI_Indirect_mode/production/_ext/1171490990/interrupts.o
 .debug_line    0x000022e2      0x3dd build/LAN9253_D51_SQI_Indirect_mode/production/_ext/1171490990/startup_xc32.o
 .debug_line    0x000026bf      0x357 build/LAN9253_D51_SQI_Indirect_mode/production/_ext/1171490990/tasks.o
 .debug_line    0x00002a16      0x670 build/LAN9253_D51_SQI_Indirect_mode/production/_ext/1671622979/Drivers.o
 .debug_line    0x00003086      0x41c build/LAN9253_D51_SQI_Indirect_mode/production/_ext/108147519/ESC_Utils.o
 .debug_line    0x000034a2      0x5d0 build/LAN9253_D51_SQI_Indirect_mode/production/_ext/108147519/LAN925x.o
 .debug_line    0x00003a72      0x197 build/LAN9253_D51_SQI_Indirect_mode/production/_ext/108134065/bootmode.o
 .debug_line    0x00003c09      0x51e build/LAN9253_D51_SQI_Indirect_mode/production/_ext/108134065/coeappl.o
 .debug_line    0x00004127      0x5b1 build/LAN9253_D51_SQI_Indirect_mode/production/_ext/108134065/ecatappl.o
 .debug_line    0x000046d8      0x1b2 build/LAN9253_D51_SQI_Indirect_mode/production/_ext/108134065/ecatcoe.o
 .debug_line    0x0000488a      0x460 build/LAN9253_D51_SQI_Indirect_mode/production/_ext/108134065/ecatfoe.o
 .debug_line    0x00004cea      0xb22 build/LAN9253_D51_SQI_Indirect_mode/production/_ext/108134065/ecatslv.o
 .debug_line    0x0000580c      0x442 build/LAN9253_D51_SQI_Indirect_mode/production/_ext/108134065/emcy.o
 .debug_line    0x00005c4e      0x40f build/LAN9253_D51_SQI_Indirect_mode/production/_ext/108134065/foeappl.o
 .debug_line    0x0000605d      0x5c8 build/LAN9253_D51_SQI_Indirect_mode/production/_ext/108134065/mailbox.o
 .debug_line    0x00006625      0x84e build/LAN9253_D51_SQI_Indirect_mode/production/_ext/108134065/objdef.o
 .debug_line    0x00006e73      0x5a7 build/LAN9253_D51_SQI_Indirect_mode/production/_ext/108134065/sample_app.o
 .debug_line    0x0000741a      0x675 build/LAN9253_D51_SQI_Indirect_mode/production/_ext/108134065/sdoserv.o
 .debug_line    0x00007a8f      0x34b build/LAN9253_D51_SQI_Indirect_mode/production/_ext/1360937237/main.o
 .debug_line    0x00007dda      0x4af build/LAN9253_D51_SQI_Indirect_mode/production/_ext/1360937237/app.o
 .debug_line    0x00008289       0xd8 c:/program files (x86)/microchip/xc32/v2.30/bin/bin/../../lib/gcc/pic32c/6.2.1/../../../../pic32c/lib/v7e-m/fpv4-sp/hard\libpic32c.a(data_init.o)
 .debug_line    0x00008361      0x11d c:/program files (x86)/microchip/xc32/v2.30/bin/bin/../../lib/gcc/pic32c/6.2.1/../../../../pic32c/lib/v7e-m/fpv4-sp/hard\libc.a(lib_a-init.o)
 .debug_line    0x0000847e      0x21e c:/program files (x86)/microchip/xc32/v2.30/bin/bin/../../lib/gcc/pic32c/6.2.1/../../../../pic32c/lib/v7e-m/fpv4-sp/hard\libc.a(lib_a-malloc.o)
 .debug_line    0x0000869c      0x347 c:/program files (x86)/microchip/xc32/v2.30/bin/bin/../../lib/gcc/pic32c/6.2.1/../../../../pic32c/lib/v7e-m/fpv4-sp/hard\libc.a(lib_a-mallocr.o)
 .debug_line    0x000089e3      0x218 c:/program files (x86)/microchip/xc32/v2.30/bin/bin/../../lib/gcc/pic32c/6.2.1/../../../../pic32c/lib/v7e-m/fpv4-sp/hard\libc.a(lib_a-memcpy-stub.o)
 .debug_line    0x00008bfb      0x2ae c:/program files (x86)/microchip/xc32/v2.30/bin/bin/../../lib/gcc/pic32c/6.2.1/../../../../pic32c/lib/v7e-m/fpv4-sp/hard\libc.a(lib_a-memset.o)
 .debug_line    0x00008ea9      0x18d c:/program files (x86)/microchip/xc32/v2.30/bin/bin/../../lib/gcc/pic32c/6.2.1/../../../../pic32c/lib/v7e-m/fpv4-sp/hard\libc.a(lib_a-mlock.o)
 .debug_line    0x00009036      0x212 c:/program files (x86)/microchip/xc32/v2.30/bin/bin/../../lib/gcc/pic32c/6.2.1/../../../../pic32c/lib/v7e-m/fpv4-sp/hard\libc.a(lib_a-sbrkr.o)
 .debug_line    0x00009248       0xb1 c:/program files (x86)/microchip/xc32/v2.30/bin/bin/../../lib/gcc/pic32c/6.2.1/../../../../pic32c/lib/v7e-m/fpv4-sp/hard\libc.a(lib_a-strlen.o)
 .debug_line    0x000092f9      0x2a1 c:/program files (x86)/microchip/xc32/v2.30/bin/bin/../../lib/gcc/pic32c/6.2.1/../../../../pic32c/lib/v7e-m/fpv4-sp/hard\libc.a(lib_a-freer.o)
 .debug_line    0x0000959a      0x17e c:/program files (x86)/microchip/xc32/v2.30/bin/bin/../../lib/gcc/pic32c/6.2.1/../../../../pic32c/lib/v7e-m/fpv4-sp/hard\libc.a(lib_a-impure.o)
 .debug_line    0x00009718      0x23d c:/program files (x86)/microchip/xc32/v2.30/bin/bin/../../lib/gcc/pic32c/6.2.1/../../../../pic32c/lib/v7e-m/fpv4-sp/hard\libc.a(lib_a-reent.o)
 .debug_line    0x00009955       0xa2 c:/program files (x86)/microchip/xc32/v2.30/bin/bin/../../lib/gcc/pic32c/6.2.1/../../../../pic32c/lib/v7e-m/fpv4-sp/hard\libpic32c.a(sbrk.o)

.debug_str      0x00000000     0x11c4
 .debug_str     0x00000000       0x1e build/LAN9253_D51_SQI_Indirect_mode/production/_ext/1984496892/plib_clock.o
 .debug_str     0x0000001e       0x5a build/LAN9253_D51_SQI_Indirect_mode/production/_ext/1865161661/plib_dmac.o
 .debug_str     0x00000078        0x9 build/LAN9253_D51_SQI_Indirect_mode/production/_ext/60167341/plib_eic.o
 .debug_str     0x00000081        0x0 build/LAN9253_D51_SQI_Indirect_mode/production/_ext/1986646378/plib_evsys.o
 .debug_str     0x00000081        0xa build/LAN9253_D51_SQI_Indirect_mode/production/_ext/1865468468/plib_nvic.o
 .debug_str     0x0000008b       0x29 build/LAN9253_D51_SQI_Indirect_mode/production/_ext/1593096446/plib_nvmctrl.o
 .debug_str     0x000000b4        0xb build/LAN9253_D51_SQI_Indirect_mode/production/_ext/1865521619/plib_port.o
 .debug_str     0x000000bf       0x9a build/LAN9253_D51_SQI_Indirect_mode/production/_ext/1865555181/plib_qspi.o
 .debug_str     0x00000159        0x9 build/LAN9253_D51_SQI_Indirect_mode/production/_ext/1827571544/plib_systick.o
 .debug_str     0x00000162        0xe build/LAN9253_D51_SQI_Indirect_mode/production/_ext/1171490990/exceptions.o
 .debug_str     0x00000170       0xb9 build/LAN9253_D51_SQI_Indirect_mode/production/_ext/1171490990/initialization.o
 .debug_str     0x00000229        0xe build/LAN9253_D51_SQI_Indirect_mode/production/_ext/1171490990/interrupts.o
 .debug_str     0x00000237       0x79 build/LAN9253_D51_SQI_Indirect_mode/production/_ext/1171490990/startup_xc32.o
 .debug_str     0x000002b0       0x18 build/LAN9253_D51_SQI_Indirect_mode/production/_ext/1171490990/tasks.o
 .debug_str     0x000002c8      0x16a build/LAN9253_D51_SQI_Indirect_mode/production/_ext/1671622979/Drivers.o
 .debug_str     0x00000432       0x30 build/LAN9253_D51_SQI_Indirect_mode/production/_ext/108147519/ESC_Utils.o
 .debug_str     0x00000462      0x122 build/LAN9253_D51_SQI_Indirect_mode/production/_ext/108147519/LAN925x.o
 .debug_str     0x00000584        0xe build/LAN9253_D51_SQI_Indirect_mode/production/_ext/108134065/bootmode.o
 .debug_str     0x00000592       0x5f build/LAN9253_D51_SQI_Indirect_mode/production/_ext/108134065/coeappl.o
 .debug_str     0x000005f1      0x17d build/LAN9253_D51_SQI_Indirect_mode/production/_ext/108134065/ecatappl.o
 .debug_str     0x0000076e       0x64 build/LAN9253_D51_SQI_Indirect_mode/production/_ext/108134065/ecatcoe.o
 .debug_str     0x000007d2       0x7c build/LAN9253_D51_SQI_Indirect_mode/production/_ext/108134065/ecatfoe.o
 .debug_str     0x0000084e      0x24d build/LAN9253_D51_SQI_Indirect_mode/production/_ext/108134065/ecatslv.o
 .debug_str     0x00000a9b       0x40 build/LAN9253_D51_SQI_Indirect_mode/production/_ext/108134065/emcy.o
 .debug_str     0x00000adb       0x31 build/LAN9253_D51_SQI_Indirect_mode/production/_ext/108134065/foeappl.o
 .debug_str     0x00000b0c      0x154 build/LAN9253_D51_SQI_Indirect_mode/production/_ext/108134065/mailbox.o
 .debug_str     0x00000c60       0xbd build/LAN9253_D51_SQI_Indirect_mode/production/_ext/108134065/objdef.o
 .debug_str     0x00000d1d       0x92 build/LAN9253_D51_SQI_Indirect_mode/production/_ext/108134065/sample_app.o
 .debug_str     0x00000daf      0x147 build/LAN9253_D51_SQI_Indirect_mode/production/_ext/108134065/sdoserv.o
 .debug_str     0x00000ef6       0x27 build/LAN9253_D51_SQI_Indirect_mode/production/_ext/1360937237/main.o
 .debug_str     0x00000f1d       0xc4 build/LAN9253_D51_SQI_Indirect_mode/production/_ext/1360937237/app.o
 .debug_str     0x00000fe1        0x0 c:/program files (x86)/microchip/xc32/v2.30/bin/bin/../../lib/gcc/pic32c/6.2.1/../../../../pic32c/lib/v7e-m/fpv4-sp/hard\libpic32c.a(data_init.o)
 .debug_str     0x00000fe1        0x0 c:/program files (x86)/microchip/xc32/v2.30/bin/bin/../../lib/gcc/pic32c/6.2.1/../../../../pic32c/lib/v7e-m/fpv4-sp/hard\libc.a(lib_a-init.o)
 .debug_str     0x00000fe1       0x18 c:/program files (x86)/microchip/xc32/v2.30/bin/bin/../../lib/gcc/pic32c/6.2.1/../../../../pic32c/lib/v7e-m/fpv4-sp/hard\libc.a(lib_a-malloc.o)
 .debug_str     0x00000ff9       0x36 c:/program files (x86)/microchip/xc32/v2.30/bin/bin/../../lib/gcc/pic32c/6.2.1/../../../../pic32c/lib/v7e-m/fpv4-sp/hard\libc.a(lib_a-mallocr.o)
 .debug_str     0x0000102f        0xe c:/program files (x86)/microchip/xc32/v2.30/bin/bin/../../lib/gcc/pic32c/6.2.1/../../../../pic32c/lib/v7e-m/fpv4-sp/hard\libc.a(lib_a-memcpy-stub.o)
 .debug_str     0x0000103d      0x119 c:/program files (x86)/microchip/xc32/v2.30/bin/bin/../../lib/gcc/pic32c/6.2.1/../../../../pic32c/lib/v7e-m/fpv4-sp/hard\libc.a(lib_a-memset.o)
 .debug_str     0x00001156        0xe c:/program files (x86)/microchip/xc32/v2.30/bin/bin/../../lib/gcc/pic32c/6.2.1/../../../../pic32c/lib/v7e-m/fpv4-sp/hard\libc.a(lib_a-mlock.o)
 .debug_str     0x00001164        0xe c:/program files (x86)/microchip/xc32/v2.30/bin/bin/../../lib/gcc/pic32c/6.2.1/../../../../pic32c/lib/v7e-m/fpv4-sp/hard\libc.a(lib_a-sbrkr.o)
 .debug_str     0x00001172       0x36 c:/program files (x86)/microchip/xc32/v2.30/bin/bin/../../lib/gcc/pic32c/6.2.1/../../../../pic32c/lib/v7e-m/fpv4-sp/hard\libc.a(lib_a-freer.o)
 .debug_str     0x000011a8        0xe c:/program files (x86)/microchip/xc32/v2.30/bin/bin/../../lib/gcc/pic32c/6.2.1/../../../../pic32c/lib/v7e-m/fpv4-sp/hard\libc.a(lib_a-impure.o)
 .debug_str     0x000011b6        0xe c:/program files (x86)/microchip/xc32/v2.30/bin/bin/../../lib/gcc/pic32c/6.2.1/../../../../pic32c/lib/v7e-m/fpv4-sp/hard\libc.a(lib_a-reent.o)
 .debug_str     0x000011c4        0x0 c:/program files (x86)/microchip/xc32/v2.30/bin/bin/../../lib/gcc/pic32c/6.2.1/../../../../pic32c/lib/v7e-m/fpv4-sp/hard\libpic32c.a(sbrk.o)

.debug_frame    0x00000000     0x1b68
 .debug_frame   0x00000000       0x20 build/LAN9253_D51_SQI_Indirect_mode/production/_ext/1984496892/plib_clock.o
 .debug_frame   0x00000020      0x194 build/LAN9253_D51_SQI_Indirect_mode/production/_ext/1865161661/plib_dmac.o
 .debug_frame   0x000001b4       0xa8 build/LAN9253_D51_SQI_Indirect_mode/production/_ext/60167341/plib_eic.o
 .debug_frame   0x0000025c       0x20 build/LAN9253_D51_SQI_Indirect_mode/production/_ext/1986646378/plib_evsys.o
 .debug_frame   0x0000027c       0x20 build/LAN9253_D51_SQI_Indirect_mode/production/_ext/1865468468/plib_nvic.o
 .debug_frame   0x0000029c      0x160 build/LAN9253_D51_SQI_Indirect_mode/production/_ext/1593096446/plib_nvmctrl.o
 .debug_frame   0x000003fc       0xa0 build/LAN9253_D51_SQI_Indirect_mode/production/_ext/1865521619/plib_port.o
 .debug_frame   0x0000049c       0xd0 build/LAN9253_D51_SQI_Indirect_mode/production/_ext/1865555181/plib_qspi.o
 .debug_frame   0x0000056c       0xd4 build/LAN9253_D51_SQI_Indirect_mode/production/_ext/1827571544/plib_systick.o
 .debug_frame   0x00000640       0x70 build/LAN9253_D51_SQI_Indirect_mode/production/_ext/1171490990/exceptions.o
 .debug_frame   0x000006b0       0x28 build/LAN9253_D51_SQI_Indirect_mode/production/_ext/1171490990/initialization.o
 .debug_frame   0x000006d8       0x20 build/LAN9253_D51_SQI_Indirect_mode/production/_ext/1171490990/interrupts.o
 .debug_frame   0x000006f8       0x28 build/LAN9253_D51_SQI_Indirect_mode/production/_ext/1171490990/startup_xc32.o
 .debug_frame   0x00000720       0x28 build/LAN9253_D51_SQI_Indirect_mode/production/_ext/1171490990/tasks.o
 .debug_frame   0x00000748      0x21c build/LAN9253_D51_SQI_Indirect_mode/production/_ext/1671622979/Drivers.o
 .debug_frame   0x00000964       0x94 build/LAN9253_D51_SQI_Indirect_mode/production/_ext/108147519/ESC_Utils.o
 .debug_frame   0x000009f8      0x1cc build/LAN9253_D51_SQI_Indirect_mode/production/_ext/108147519/LAN925x.o
 .debug_frame   0x00000bc4       0x50 build/LAN9253_D51_SQI_Indirect_mode/production/_ext/108134065/bootmode.o
 .debug_frame   0x00000c14      0x138 build/LAN9253_D51_SQI_Indirect_mode/production/_ext/108134065/coeappl.o
 .debug_frame   0x00000d4c      0x13c build/LAN9253_D51_SQI_Indirect_mode/production/_ext/108134065/ecatappl.o
 .debug_frame   0x00000e88       0x54 build/LAN9253_D51_SQI_Indirect_mode/production/_ext/108134065/ecatcoe.o
 .debug_frame   0x00000edc       0x54 build/LAN9253_D51_SQI_Indirect_mode/production/_ext/108134065/ecatfoe.o
 .debug_frame   0x00000f30      0x26c build/LAN9253_D51_SQI_Indirect_mode/production/_ext/108134065/ecatslv.o
 .debug_frame   0x0000119c       0xc4 build/LAN9253_D51_SQI_Indirect_mode/production/_ext/108134065/emcy.o
 .debug_frame   0x00001260       0xb0 build/LAN9253_D51_SQI_Indirect_mode/production/_ext/108134065/foeappl.o
 .debug_frame   0x00001310      0x17c build/LAN9253_D51_SQI_Indirect_mode/production/_ext/108134065/mailbox.o
 .debug_frame   0x0000148c      0x180 build/LAN9253_D51_SQI_Indirect_mode/production/_ext/108134065/objdef.o
 .debug_frame   0x0000160c      0x1c4 build/LAN9253_D51_SQI_Indirect_mode/production/_ext/108134065/sample_app.o
 .debug_frame   0x000017d0       0xd4 build/LAN9253_D51_SQI_Indirect_mode/production/_ext/108134065/sdoserv.o
 .debug_frame   0x000018a4       0x28 build/LAN9253_D51_SQI_Indirect_mode/production/_ext/1360937237/main.o
 .debug_frame   0x000018cc       0x58 build/LAN9253_D51_SQI_Indirect_mode/production/_ext/1360937237/app.o
 .debug_frame   0x00001924       0x2c c:/program files (x86)/microchip/xc32/v2.30/bin/bin/../../lib/gcc/pic32c/6.2.1/../../../../pic32c/lib/v7e-m/fpv4-sp/hard\libpic32c.a(data_init.o)
 .debug_frame   0x00001950       0x2c c:/program files (x86)/microchip/xc32/v2.30/bin/bin/../../lib/gcc/pic32c/6.2.1/../../../../pic32c/lib/v7e-m/fpv4-sp/hard\libc.a(lib_a-init.o)
 .debug_frame   0x0000197c       0x30 c:/program files (x86)/microchip/xc32/v2.30/bin/bin/../../lib/gcc/pic32c/6.2.1/../../../../pic32c/lib/v7e-m/fpv4-sp/hard\libc.a(lib_a-malloc.o)
 .debug_frame   0x000019ac       0x40 c:/program files (x86)/microchip/xc32/v2.30/bin/bin/../../lib/gcc/pic32c/6.2.1/../../../../pic32c/lib/v7e-m/fpv4-sp/hard\libc.a(lib_a-mallocr.o)
 .debug_frame   0x000019ec       0x28 c:/program files (x86)/microchip/xc32/v2.30/bin/bin/../../lib/gcc/pic32c/6.2.1/../../../../pic32c/lib/v7e-m/fpv4-sp/hard\libc.a(lib_a-memcpy-stub.o)
 .debug_frame   0x00001a14       0x20 c:/program files (x86)/microchip/xc32/v2.30/bin/bin/../../lib/gcc/pic32c/6.2.1/../../../../pic32c/lib/v7e-m/fpv4-sp/hard\libc.a(lib_a-memset.o)
 .debug_frame   0x00001a34       0x30 c:/program files (x86)/microchip/xc32/v2.30/bin/bin/../../lib/gcc/pic32c/6.2.1/../../../../pic32c/lib/v7e-m/fpv4-sp/hard\libc.a(lib_a-mlock.o)
 .debug_frame   0x00001a64       0x2c c:/program files (x86)/microchip/xc32/v2.30/bin/bin/../../lib/gcc/pic32c/6.2.1/../../../../pic32c/lib/v7e-m/fpv4-sp/hard\libc.a(lib_a-sbrkr.o)
 .debug_frame   0x00001a90       0x5c c:/program files (x86)/microchip/xc32/v2.30/bin/bin/../../lib/gcc/pic32c/6.2.1/../../../../pic32c/lib/v7e-m/fpv4-sp/hard\libc.a(lib_a-freer.o)
 .debug_frame   0x00001aec       0x5c c:/program files (x86)/microchip/xc32/v2.30/bin/bin/../../lib/gcc/pic32c/6.2.1/../../../../pic32c/lib/v7e-m/fpv4-sp/hard\libc.a(lib_a-reent.o)
 .debug_frame   0x00001b48       0x20 c:/program files (x86)/microchip/xc32/v2.30/bin/bin/../../lib/gcc/pic32c/6.2.1/../../../../pic32c/lib/v7e-m/fpv4-sp/hard\libpic32c.a(sbrk.o)

.debug_loc      0x00000000     0xb33e
 .debug_loc     0x00000000      0x7a8 build/LAN9253_D51_SQI_Indirect_mode/production/_ext/1865161661/plib_dmac.o
 .debug_loc     0x000007a8       0xda build/LAN9253_D51_SQI_Indirect_mode/production/_ext/60167341/plib_eic.o
 .debug_loc     0x00000882      0x1d2 build/LAN9253_D51_SQI_Indirect_mode/production/_ext/1865468468/plib_nvic.o
 .debug_loc     0x00000a54      0x42c build/LAN9253_D51_SQI_Indirect_mode/production/_ext/1593096446/plib_nvmctrl.o
 .debug_loc     0x00000e80       0x63 build/LAN9253_D51_SQI_Indirect_mode/production/_ext/1865521619/plib_port.o
 .debug_loc     0x00000ee3      0xa45 build/LAN9253_D51_SQI_Indirect_mode/production/_ext/1865555181/plib_qspi.o
 .debug_loc     0x00001928       0xc8 build/LAN9253_D51_SQI_Indirect_mode/production/_ext/1827571544/plib_systick.o
 .debug_loc     0x000019f0       0x41 build/LAN9253_D51_SQI_Indirect_mode/production/_ext/1171490990/initialization.o
 .debug_loc     0x00001a31       0x34 build/LAN9253_D51_SQI_Indirect_mode/production/_ext/1171490990/startup_xc32.o
 .debug_loc     0x00001a65       0x20 build/LAN9253_D51_SQI_Indirect_mode/production/_ext/1171490990/tasks.o
 .debug_loc     0x00001a85      0xa42 build/LAN9253_D51_SQI_Indirect_mode/production/_ext/1671622979/Drivers.o
 .debug_loc     0x000024c7      0x654 build/LAN9253_D51_SQI_Indirect_mode/production/_ext/108147519/ESC_Utils.o
 .debug_loc     0x00002b1b      0xa5a build/LAN9253_D51_SQI_Indirect_mode/production/_ext/108147519/LAN925x.o
 .debug_loc     0x00003575       0x21 build/LAN9253_D51_SQI_Indirect_mode/production/_ext/108134065/bootmode.o
 .debug_loc     0x00003596      0x54d build/LAN9253_D51_SQI_Indirect_mode/production/_ext/108134065/coeappl.o
 .debug_loc     0x00003ae3      0x2fe build/LAN9253_D51_SQI_Indirect_mode/production/_ext/108134065/ecatappl.o
 .debug_loc     0x00003de1      0x151 build/LAN9253_D51_SQI_Indirect_mode/production/_ext/108134065/ecatcoe.o
 .debug_loc     0x00003f32      0x493 build/LAN9253_D51_SQI_Indirect_mode/production/_ext/108134065/ecatfoe.o
 .debug_loc     0x000043c5     0x1927 build/LAN9253_D51_SQI_Indirect_mode/production/_ext/108134065/ecatslv.o
 .debug_loc     0x00005cec      0x218 build/LAN9253_D51_SQI_Indirect_mode/production/_ext/108134065/emcy.o
 .debug_loc     0x00005f04      0x41d build/LAN9253_D51_SQI_Indirect_mode/production/_ext/108134065/foeappl.o
 .debug_loc     0x00006321      0x771 build/LAN9253_D51_SQI_Indirect_mode/production/_ext/108134065/mailbox.o
 .debug_loc     0x00006a92     0x1ce5 build/LAN9253_D51_SQI_Indirect_mode/production/_ext/108134065/objdef.o
 .debug_loc     0x00008777      0x842 build/LAN9253_D51_SQI_Indirect_mode/production/_ext/108134065/sample_app.o
 .debug_loc     0x00008fb9     0x11f9 build/LAN9253_D51_SQI_Indirect_mode/production/_ext/108134065/sdoserv.o
 .debug_loc     0x0000a1b2       0x20 build/LAN9253_D51_SQI_Indirect_mode/production/_ext/1360937237/main.o
 .debug_loc     0x0000a1d2      0x104 build/LAN9253_D51_SQI_Indirect_mode/production/_ext/1360937237/app.o
 .debug_loc     0x0000a2d6       0x74 c:/program files (x86)/microchip/xc32/v2.30/bin/bin/../../lib/gcc/pic32c/6.2.1/../../../../pic32c/lib/v7e-m/fpv4-sp/hard\libc.a(lib_a-init.o)
 .debug_loc     0x0000a34a       0x58 c:/program files (x86)/microchip/xc32/v2.30/bin/bin/../../lib/gcc/pic32c/6.2.1/../../../../pic32c/lib/v7e-m/fpv4-sp/hard\libc.a(lib_a-malloc.o)
 .debug_loc     0x0000a3a2      0x875 c:/program files (x86)/microchip/xc32/v2.30/bin/bin/../../lib/gcc/pic32c/6.2.1/../../../../pic32c/lib/v7e-m/fpv4-sp/hard\libc.a(lib_a-mallocr.o)
 .debug_loc     0x0000ac17       0xb2 c:/program files (x86)/microchip/xc32/v2.30/bin/bin/../../lib/gcc/pic32c/6.2.1/../../../../pic32c/lib/v7e-m/fpv4-sp/hard\libc.a(lib_a-memcpy-stub.o)
 .debug_loc     0x0000acc9       0x4c c:/program files (x86)/microchip/xc32/v2.30/bin/bin/../../lib/gcc/pic32c/6.2.1/../../../../pic32c/lib/v7e-m/fpv4-sp/hard\libc.a(lib_a-memset.o)
 .debug_loc     0x0000ad15       0x6d c:/program files (x86)/microchip/xc32/v2.30/bin/bin/../../lib/gcc/pic32c/6.2.1/../../../../pic32c/lib/v7e-m/fpv4-sp/hard\libc.a(lib_a-sbrkr.o)
 .debug_loc     0x0000ad82      0x42d c:/program files (x86)/microchip/xc32/v2.30/bin/bin/../../lib/gcc/pic32c/6.2.1/../../../../pic32c/lib/v7e-m/fpv4-sp/hard\libc.a(lib_a-freer.o)
 .debug_loc     0x0000b1af      0x18f c:/program files (x86)/microchip/xc32/v2.30/bin/bin/../../lib/gcc/pic32c/6.2.1/../../../../pic32c/lib/v7e-m/fpv4-sp/hard\libc.a(lib_a-reent.o)

.stack          0x20004c18      0x100
 .stack         0x20004c18      0x100 stack

.data.impure_data%1
                0x20003560      0x418
 .data.impure_data
                0x20003560      0x418 c:/program files (x86)/microchip/xc32/v2.30/bin/bin/../../lib/gcc/pic32c/6.2.1/../../../../pic32c/lib/v7e-m/fpv4-sp/hard\libc.a(lib_a-impure.o)

.data.__malloc_av_%2
                0x20003978      0x408
 .data.__malloc_av_
                0x20003978      0x408 c:/program files (x86)/microchip/xc32/v2.30/bin/bin/../../lib/gcc/pic32c/6.2.1/../../../../pic32c/lib/v7e-m/fpv4-sp/hard\libc.a(lib_a-mallocr.o)
                0x20003978                __malloc_av_

.data.Inputs0x6000%3
                0x20003d80      0x204
 .data.Inputs0x6000
                0x20003d80      0x204 build/LAN9253_D51_SQI_Indirect_mode/production/_ext/108134065/sample_app.o
                0x20003d80                Inputs0x6000

.data.InputsProcessDataMapping0x1A00%4
                0x20003f84      0x204
 .data.InputsProcessDataMapping0x1A00
                0x20003f84      0x204 build/LAN9253_D51_SQI_Indirect_mode/production/_ext/108134065/sample_app.o
                0x20003f84                InputsProcessDataMapping0x1A00

.data.Outputs0x7010%5
                0x20004188      0x204
 .data.Outputs0x7010
                0x20004188      0x204 build/LAN9253_D51_SQI_Indirect_mode/production/_ext/108134065/sample_app.o
                0x20004188                Outputs0x7010

.data.OutputsProcessDataMapping0x1601%6
                0x2000438c      0x204
 .data.OutputsProcessDataMapping0x1601
                0x2000438c      0x204 build/LAN9253_D51_SQI_Indirect_mode/production/_ext/108134065/sample_app.o
                0x2000438c                OutputsProcessDataMapping0x1601

.data.GenObjDic%7
                0x20004590      0x1e0
 .data.GenObjDic
                0x20004590      0x1e0 build/LAN9253_D51_SQI_Indirect_mode/production/_ext/108134065/coeappl.o
                0x20004590                GenObjDic

.data.ApplicationObjDic%8
                0x20004770      0x118
 .data.ApplicationObjDic
                0x20004770      0x118 build/LAN9253_D51_SQI_Indirect_mode/production/_ext/108134065/coeappl.o
                0x20004770                ApplicationObjDic

.bss.__malloc_current_mallinfo%9
                0x20004888       0x28
 .bss.__malloc_current_mallinfo
                0x20004888       0x28 c:/program files (x86)/microchip/xc32/v2.30/bin/bin/../../lib/gcc/pic32c/6.2.1/../../../../pic32c/lib/v7e-m/fpv4-sp/hard\libc.a(lib_a-mallocr.o)
                0x20004888                __malloc_current_mallinfo

.data.gau8DummyCntArr%10
                0x200048b0       0x27
 .data.gau8DummyCntArr
                0x200048b0       0x27 build/LAN9253_D51_SQI_Indirect_mode/production/_ext/108147519/LAN925x.o
                0x200048b0                gau8DummyCntArr

.bss._write_back_section%11
                0x200048d8       0x20
 .bss._write_back_section
                0x200048d8       0x20 build/LAN9253_D51_SQI_Indirect_mode/production/_ext/1865161661/plib_dmac.o

.bss.descriptor_section%12
                0x200048f8       0x20
 .bss.descriptor_section
                0x200048f8       0x20 build/LAN9253_D51_SQI_Indirect_mode/production/_ext/1865161661/plib_dmac.o

.bss.gau8rx_data%13
                0x20004918       0x20
 .bss.gau8rx_data
                0x20004918       0x20 build/LAN9253_D51_SQI_Indirect_mode/production/_ext/1671622979/Drivers.o

.bss%14         0x20004938       0x1c
 .bss           0x20004938       0x1c c:/program files (x86)/microchip/xc32/v2.30/bin/bin/../../lib/gcc/pic32c/6.2.1/v7e-m/fpv4-sp/hard/crtbegin.o

.data.acDevicename%15
                0x20004954       0x16
 .data.acDevicename
                0x20004954       0x16 build/LAN9253_D51_SQI_Indirect_mode/production/_ext/108134065/coeappl.o
                0x20004954                acDevicename

.data.sIdentity%16
                0x2000496c       0x14
 .data.sIdentity
                0x2000496c       0x14 build/LAN9253_D51_SQI_Indirect_mode/production/_ext/108134065/coeappl.o
                0x2000496c                sIdentity

.data.aSubindexDesc%17
                0x20004980        0xd
 .data.aSubindexDesc
                0x20004980        0xd build/LAN9253_D51_SQI_Indirect_mode/production/_ext/108134065/objdef.o
                0x20004980                aSubindexDesc

.data.sErrorSettings%18
                0x20004990        0xc
 .data.sErrorSettings
                0x20004990        0xc build/LAN9253_D51_SQI_Indirect_mode/production/_ext/108134065/objdef.o
                0x20004990                sErrorSettings

.bss.u64Timestamp%19
                0x200049a0        0x8
 .bss.u64Timestamp
                0x200049a0        0x8 build/LAN9253_D51_SQI_Indirect_mode/production/_ext/108134065/coeappl.o
                0x200049a0                u64Timestamp

.data.sSyncmanagertype%20
                0x200049a8        0x6
 .data.sSyncmanagertype
                0x200049a8        0x6 build/LAN9253_D51_SQI_Indirect_mode/production/_ext/108134065/coeappl.o
                0x200049a8                sSyncmanagertype

.bss.ObjDicList%21
                0x2000499c        0x4
 .bss.ObjDicList
                0x2000499c        0x4 build/LAN9253_D51_SQI_Indirect_mode/production/_ext/108134065/coeappl.o
                0x2000499c                ObjDicList

.data.acHardwareversion%22
                0x200049b0        0x4
 .data.acHardwareversion
                0x200049b0        0x4 build/LAN9253_D51_SQI_Indirect_mode/production/_ext/108134065/coeappl.o
                0x200049b0                acHardwareversion

.data.acSoftwareversion%23
                0x200049b4        0x4
 .data.acSoftwareversion
                0x200049b4        0x4 build/LAN9253_D51_SQI_Indirect_mode/production/_ext/108134065/coeappl.o
                0x200049b4                acSoftwareversion

.data.u32Devicetype%24
                0x200049b8        0x4
 .data.u32Devicetype
                0x200049b8        0x4 build/LAN9253_D51_SQI_Indirect_mode/production/_ext/108134065/coeappl.o
                0x200049b8                u32Devicetype

.bss.SMActivate%25
                0x200049bc        0x4
 .bss.SMActivate
                0x200049bc        0x4 build/LAN9253_D51_SQI_Indirect_mode/production/_ext/108134065/ecatslv.o
                0x200049bc                SMActivate

.bss.gTriggerCounterValMeasure%26
                0x200049c0        0x4
 .bss.gTriggerCounterValMeasure
                0x200049c0        0x4 build/LAN9253_D51_SQI_Indirect_mode/production/_ext/108134065/sample_app.o
                0x200049c0                gTriggerCounterValMeasure

.bss.nFileStartWriteAddress%27
                0x200049c4        0x4
 .bss.nFileStartWriteAddress
                0x200049c4        0x4 build/LAN9253_D51_SQI_Indirect_mode/production/_ext/108134065/sample_app.o
                0x200049c4                nFileStartWriteAddress

.bss.nFileWriteOffset%28
                0x200049c8        0x4
 .bss.nFileWriteOffset
                0x200049c8        0x4 build/LAN9253_D51_SQI_Indirect_mode/production/_ext/108134065/sample_app.o
                0x200049c8                nFileWriteOffset

.bss.u32FileSize%29
                0x200049cc        0x4
 .bss.u32FileSize
                0x200049cc        0x4 build/LAN9253_D51_SQI_Indirect_mode/production/_ext/108134065/sample_app.o
                0x200049cc                u32FileSize

.data.gFOETestFrameSize%30
                0x200049d0        0x4
 .data.gFOETestFrameSize
                0x200049d0        0x4 build/LAN9253_D51_SQI_Indirect_mode/production/_ext/108134065/sample_app.o
                0x200049d0                gFOETestFrameSize

.data.sRxPDOassign%31
                0x200049d4        0x4
 .data.sRxPDOassign
                0x200049d4        0x4 build/LAN9253_D51_SQI_Indirect_mode/production/_ext/108134065/sample_app.o
                0x200049d4                sRxPDOassign

.data.sTxPDOassign%32
                0x200049d8        0x4
 .data.sTxPDOassign
                0x200049d8        0x4 build/LAN9253_D51_SQI_Indirect_mode/production/_ext/108134065/sample_app.o
                0x200049d8                sTxPDOassign

.bss.__malloc_max_sbrked_mem%33
                0x200049dc        0x4
 .bss.__malloc_max_sbrked_mem
                0x200049dc        0x4 c:/program files (x86)/microchip/xc32/v2.30/bin/bin/../../lib/gcc/pic32c/6.2.1/../../../../pic32c/lib/v7e-m/fpv4-sp/hard\libc.a(lib_a-mallocr.o)
                0x200049dc                __malloc_max_sbrked_mem

.bss.__malloc_max_total_mem%34
                0x200049e0        0x4
 .bss.__malloc_max_total_mem
                0x200049e0        0x4 c:/program files (x86)/microchip/xc32/v2.30/bin/bin/../../lib/gcc/pic32c/6.2.1/../../../../pic32c/lib/v7e-m/fpv4-sp/hard\libc.a(lib_a-mallocr.o)
                0x200049e0                __malloc_max_total_mem

.bss.__malloc_top_pad%35
                0x200049e4        0x4
 .bss.__malloc_top_pad
                0x200049e4        0x4 c:/program files (x86)/microchip/xc32/v2.30/bin/bin/../../lib/gcc/pic32c/6.2.1/../../../../pic32c/lib/v7e-m/fpv4-sp/hard\libc.a(lib_a-mallocr.o)
                0x200049e4                __malloc_top_pad

.data.__malloc_sbrk_base%36
                0x200049e8        0x4
 .data.__malloc_sbrk_base
                0x200049e8        0x4 c:/program files (x86)/microchip/xc32/v2.30/bin/bin/../../lib/gcc/pic32c/6.2.1/../../../../pic32c/lib/v7e-m/fpv4-sp/hard\libc.a(lib_a-mallocr.o)
                0x200049e8                __malloc_sbrk_base

.data.__malloc_trim_threshold%37
                0x200049ec        0x4
 .data.__malloc_trim_threshold
                0x200049ec        0x4 c:/program files (x86)/microchip/xc32/v2.30/bin/bin/../../lib/gcc/pic32c/6.2.1/../../../../pic32c/lib/v7e-m/fpv4-sp/hard\libc.a(lib_a-mallocr.o)
                0x200049ec                __malloc_trim_threshold

.data._impure_ptr%38
                0x200049f0        0x4
 .data._impure_ptr
                0x200049f0        0x4 c:/program files (x86)/microchip/xc32/v2.30/bin/bin/../../lib/gcc/pic32c/6.2.1/../../../../pic32c/lib/v7e-m/fpv4-sp/hard\libc.a(lib_a-impure.o)
                0x200049f0                _impure_ptr

.bss%39         0x200049f4        0x4
 .bss           0x200049f4        0x4 c:/program files (x86)/microchip/xc32/v2.30/bin/bin/../../lib/gcc/pic32c/6.2.1/../../../../pic32c/lib/v7e-m/fpv4-sp/hard\libpic32c.a(sbrk.o)

.bss.nvm_error%40
                0x2000496a        0x2
 .bss.nvm_error
                0x2000496a        0x2 build/LAN9253_D51_SQI_Indirect_mode/production/_ext/1593096446/plib_nvmctrl.o

.bss.u16ErrorRegister%41
                0x200049ae        0x2
 .bss.u16ErrorRegister
                0x200049ae        0x2 build/LAN9253_D51_SQI_Indirect_mode/production/_ext/108134065/coeappl.o
                0x200049ae                u16ErrorRegister

.bss.gbALEvtOpEnabled%42
                0x200048d7        0x1
 .bss.gbALEvtOpEnabled
                0x200048d7        0x1 build/LAN9253_D51_SQI_Indirect_mode/production/_ext/108147519/LAN925x.o
                0x200048d7                gbALEvtOpEnabled

.bss.bInitFinished%43
                0x2000498d        0x1
 .bss.bInitFinished
                0x2000498d        0x1 build/LAN9253_D51_SQI_Indirect_mode/production/_ext/108134065/ecatappl.o
                0x2000498d                bInitFinished

.bss.EepromLoaded%44
                0x2000498e        0x1
 .bss.EepromLoaded
                0x2000498e        0x1 build/LAN9253_D51_SQI_Indirect_mode/production/_ext/108134065/ecatslv.o
                0x2000498e                EepromLoaded

.bss.gFirmwareDownload_Finished%45
                0x2000498f        0x1
 .bss.gFirmwareDownload_Finished
                0x2000498f        0x1 build/LAN9253_D51_SQI_Indirect_mode/production/_ext/108134065/sample_app.o
                0x2000498f                gFirmwareDownload_Finished

.bss.gFirmwareDownload_Started%46
                0x200049f8        0x1
 .bss.gFirmwareDownload_Started
                0x200049f8        0x1 build/LAN9253_D51_SQI_Indirect_mode/production/_ext/108134065/sample_app.o
                0x200049f8                gFirmwareDownload_Started

.bss.bSdoInWork%47
                0x200049f9        0x1
 .bss.bSdoInWork
                0x200049f9        0x1 build/LAN9253_D51_SQI_Indirect_mode/production/_ext/108134065/sdoserv.o
                0x200049f9                bSdoInWork

.eh_frame%z1    0x00000000        0x0
 .eh_frame      0x00000000        0x0 c:/program files (x86)/microchip/xc32/v2.30/bin/bin/../../lib/gcc/pic32c/6.2.1/v7e-m/fpv4-sp/hard/crtbegin.o

.dinit%48       0x00000280     0x16c0
 .dinit         0x00000280     0x16c0 data_init

.text.AL_ControlInd%49
                0x00001940      0x924
 .text.AL_ControlInd
                0x00001940      0x924 build/LAN9253_D51_SQI_Indirect_mode/production/_ext/108134065/ecatslv.o
                0x00001940                AL_ControlInd

.text.SDOS_SdoInd%50
                0x00002264      0x81c
 .text.SDOS_SdoInd
                0x00002264      0x81c build/LAN9253_D51_SQI_Indirect_mode/production/_ext/108134065/sdoserv.o
                0x00002264                SDOS_SdoInd

.rodata.aName0x1601%51
                0x00002a80      0x6a0
 .rodata.aName0x1601
                0x00002a80      0x6a0 build/LAN9253_D51_SQI_Indirect_mode/production/_ext/108134065/coeappl.o
                0x00002a80                aName0x1601

.rodata.aName0x1A00%52
                0x00003120      0x6a0
 .rodata.aName0x1A00
                0x00003120      0x6a0 build/LAN9253_D51_SQI_Indirect_mode/production/_ext/108134065/coeappl.o
                0x00003120                aName0x1A00

.text.StartInputHandler%53
                0x000037c0      0x664
 .text.StartInputHandler
                0x000037c0      0x664 build/LAN9253_D51_SQI_Indirect_mode/production/_ext/108134065/ecatslv.o
                0x000037c0                StartInputHandler

.rodata.aName0x7010%54
                0x00003e24      0x520
 .rodata.aName0x7010
                0x00003e24      0x520 build/LAN9253_D51_SQI_Indirect_mode/production/_ext/108134065/coeappl.o
                0x00003e24                aName0x7010

.rodata.aName0x6000%55
                0x00004344      0x51c
 .rodata.aName0x6000
                0x00004344      0x51c build/LAN9253_D51_SQI_Indirect_mode/production/_ext/108134065/coeappl.o
                0x00004344                aName0x6000

.text.OBJ_Write%56
                0x00004860      0x510
 .text.OBJ_Write
                0x00004860      0x510 build/LAN9253_D51_SQI_Indirect_mode/production/_ext/108134065/objdef.o
                0x00004860                OBJ_Write

.text.OBJ_Read%57
                0x00004d70      0x46c
 .text.OBJ_Read
                0x00004d70      0x46c build/LAN9253_D51_SQI_Indirect_mode/production/_ext/108134065/objdef.o
                0x00004d70                OBJ_Read

.text._malloc_r%58
                0x000051dc      0x438
 .text._malloc_r
                0x000051dc      0x438 c:/program files (x86)/microchip/xc32/v2.30/bin/bin/../../lib/gcc/pic32c/6.2.1/../../../../pic32c/lib/v7e-m/fpv4-sp/hard\libc.a(lib_a-mallocr.o)
                0x000051dc                _malloc_r

.rodata.asEntryDesc0x1601%59
                0x00005614      0x308
 .rodata.asEntryDesc0x1601
                0x00005614      0x308 build/LAN9253_D51_SQI_Indirect_mode/production/_ext/108134065/coeappl.o
                0x00005614                asEntryDesc0x1601

.rodata.asEntryDesc0x1A00%60
                0x0000591c      0x308
 .rodata.asEntryDesc0x1A00
                0x0000591c      0x308 build/LAN9253_D51_SQI_Indirect_mode/production/_ext/108134065/coeappl.o
                0x0000591c                asEntryDesc0x1A00

.rodata.asEntryDesc0x6000%61
                0x00005c24      0x308
 .rodata.asEntryDesc0x6000
                0x00005c24      0x308 build/LAN9253_D51_SQI_Indirect_mode/production/_ext/108134065/coeappl.o
                0x00005c24                asEntryDesc0x6000

.rodata.asEntryDesc0x7010%62
                0x00005f2c      0x308
 .rodata.asEntryDesc0x7010
                0x00005f2c      0x308 build/LAN9253_D51_SQI_Indirect_mode/production/_ext/108134065/coeappl.o
                0x00005f2c                asEntryDesc0x7010

.text.FOE_ServiceInd%63
                0x00006234      0x2ec
 .text.FOE_ServiceInd
                0x00006234      0x2ec build/LAN9253_D51_SQI_Indirect_mode/production/_ext/108134065/ecatfoe.o
                0x00006234                FOE_ServiceInd

.text.SDOS_SdoInfoInd%64
                0x00006520      0x2c4
 .text.SDOS_SdoInfoInd
                0x00006520      0x2c4 build/LAN9253_D51_SQI_Indirect_mode/production/_ext/108134065/sdoserv.o
                0x00006520                SDOS_SdoInfoInd

.text.AL_ControlRes%65
                0x000067e4      0x24c
 .text.AL_ControlRes
                0x000067e4      0x24c build/LAN9253_D51_SQI_Indirect_mode/production/_ext/108134065/ecatslv.o
                0x000067e4                AL_ControlRes

.text.CheckSmSettings%66
                0x00006a30      0x244
 .text.CheckSmSettings
                0x00006a30      0x244 build/LAN9253_D51_SQI_Indirect_mode/production/_ext/108134065/ecatslv.o
                0x00006a30                CheckSmSettings

.text._free_r%67
                0x00006c74      0x178
 .text._free_r  0x00006c74      0x178 c:/program files (x86)/microchip/xc32/v2.30/bin/bin/../../lib/gcc/pic32c/6.2.1/../../../../pic32c/lib/v7e-m/fpv4-sp/hard\libc.a(lib_a-freer.o)
                0x00006c74                _free_r

.text.ECAT_Main%68
                0x00006dec      0x14c
 .text.ECAT_Main
                0x00006dec      0x14c build/LAN9253_D51_SQI_Indirect_mode/production/_ext/108134065/ecatslv.o
                0x00006dec                ECAT_Main

.text.CheckSyncTypeValue%69
                0x00006f38      0x134
 .text.CheckSyncTypeValue
                0x00006f38      0x134 build/LAN9253_D51_SQI_Indirect_mode/production/_ext/108134065/objdef.o
                0x00006f38                CheckSyncTypeValue

.text.ECAT_Init%70
                0x0000706c      0x124
 .text.ECAT_Init
                0x0000706c      0x124 build/LAN9253_D51_SQI_Indirect_mode/production/_ext/108134065/ecatslv.o
                0x0000706c                ECAT_Init

.text.SetALStatus%71
                0x00007190      0x114
 .text.SetALStatus
                0x00007190      0x114 build/LAN9253_D51_SQI_Indirect_mode/production/_ext/108134065/ecatslv.o
                0x00007190                SetALStatus

.text.MBX_StopMailboxHandler%72
                0x000072a4      0x114
 .text.MBX_StopMailboxHandler
                0x000072a4      0x114 build/LAN9253_D51_SQI_Indirect_mode/production/_ext/108134065/mailbox.o
                0x000072a4                MBX_StopMailboxHandler

.text.PDI_Isr%73
                0x000073b8      0x110
 .text.PDI_Isr  0x000073b8      0x110 build/LAN9253_D51_SQI_Indirect_mode/production/_ext/108134065/ecatappl.o
                0x000073b8                PDI_Isr

.text.Sync0_Isr%74
                0x000074c8      0x108
 .text.Sync0_Isr
                0x000074c8      0x108 build/LAN9253_D51_SQI_Indirect_mode/production/_ext/108134065/ecatappl.o
                0x000074c8                Sync0_Isr

.text.APPL_GenerateMapping%75
                0x000075d0      0x108
 .text.APPL_GenerateMapping
                0x000075d0      0x108 build/LAN9253_D51_SQI_Indirect_mode/production/_ext/108134065/sample_app.o
                0x000075d0                APPL_GenerateMapping

.rodata.aName0x1C32%76
                0x000076d8      0x100
 .rodata.aName0x1C32
                0x000076d8      0x100 build/LAN9253_D51_SQI_Indirect_mode/production/_ext/108134065/coeappl.o
                0x000076d8                aName0x1C32

.rodata.aName0x1C33%77
                0x000077d8      0x100
 .rodata.aName0x1C33
                0x000077d8      0x100 build/LAN9253_D51_SQI_Indirect_mode/production/_ext/108134065/coeappl.o
                0x000077d8                aName0x1C33

.text.MBX_CheckAndCopyMailbox%78
                0x000078d8       0xfc
 .text.MBX_CheckAndCopyMailbox
                0x000078d8       0xfc build/LAN9253_D51_SQI_Indirect_mode/production/_ext/108134065/mailbox.o
                0x000078d8                MBX_CheckAndCopyMailbox

.text.SendSmFailedEmergency%79
                0x000079d4       0xf8
 .text.SendSmFailedEmergency
                0x000079d4       0xf8 build/LAN9253_D51_SQI_Indirect_mode/production/_ext/108134065/ecatslv.o
                0x000079d4                SendSmFailedEmergency

.text.SdoRes%80
                0x00007acc       0xf4
 .text.SdoRes   0x00007acc       0xf4 build/LAN9253_D51_SQI_Indirect_mode/production/_ext/108134065/sdoserv.o
                0x00007acc                SdoRes

.text.GetDummyBytesRequired%81
                0x00007bc0       0xf0
 .text.GetDummyBytesRequired
                0x00007bc0       0xf0 build/LAN9253_D51_SQI_Indirect_mode/production/_ext/108147519/ESC_Utils.o
                0x00007bc0                GetDummyBytesRequired

.text.COE_ObjInit%82
                0x00007cb0       0xec
 .text.COE_ObjInit
                0x00007cb0       0xec build/LAN9253_D51_SQI_Indirect_mode/production/_ext/108134065/coeappl.o
                0x00007cb0                COE_ObjInit

.text.FoE_WriteData%83
                0x00007d9c       0xe8
 .text.FoE_WriteData
                0x00007d9c       0xe8 build/LAN9253_D51_SQI_Indirect_mode/production/_ext/108134065/sample_app.o
                0x00007d9c                FoE_WriteData

.text.OBJ_GetDesc%84
                0x00007e84       0xe0
 .text.OBJ_GetDesc
                0x00007e84       0xe0 build/LAN9253_D51_SQI_Indirect_mode/production/_ext/108134065/objdef.o
                0x00007e84                OBJ_GetDesc

.text.SDOS_SdoRes%85
                0x00007f64       0xe0
 .text.SDOS_SdoRes
                0x00007f64       0xe0 build/LAN9253_D51_SQI_Indirect_mode/production/_ext/108134065/sdoserv.o
                0x00007f64                SDOS_SdoRes

.text.CLOCK_Initialize%86
                0x00008044       0xdc
 .text.CLOCK_Initialize
                0x00008044       0xdc build/LAN9253_D51_SQI_Indirect_mode/production/_ext/1984496892/plib_clock.o
                0x00008044                CLOCK_Initialize

.text.HW_EscRead%87
                0x00008120       0xdc
 .text.HW_EscRead
                0x00008120       0xdc build/LAN9253_D51_SQI_Indirect_mode/production/_ext/108147519/LAN925x.o
                0x00008120                HW_EscRead

.text.StopInputHandler%88
                0x000081fc       0xdc
 .text.StopInputHandler
                0x000081fc       0xdc build/LAN9253_D51_SQI_Indirect_mode/production/_ext/108134065/ecatslv.o
                0x000081fc                StopInputHandler

.text.MainLoop%89
                0x000082d8       0xd4
 .text.MainLoop
                0x000082d8       0xd4 build/LAN9253_D51_SQI_Indirect_mode/production/_ext/108134065/ecatappl.o
                0x000082d8                MainLoop

.text.DC_CheckWatchdog%90
                0x000083ac       0xd0
 .text.DC_CheckWatchdog
                0x000083ac       0xd0 build/LAN9253_D51_SQI_Indirect_mode/production/_ext/108134065/ecatslv.o
                0x000083ac                DC_CheckWatchdog

.text.OBJ_GetEntryOffset%91
                0x0000847c       0xd0
 .text.OBJ_GetEntryOffset
                0x0000847c       0xd0 build/LAN9253_D51_SQI_Indirect_mode/production/_ext/108134065/objdef.o
                0x0000847c                OBJ_GetEntryOffset

.text.EscRead%92
                0x0000854c       0xcc
 .text.EscRead  0x0000854c       0xcc build/LAN9253_D51_SQI_Indirect_mode/production/_ext/108147519/LAN925x.o
                0x0000854c                EscRead

.text.MBX_Init%93
                0x00008618       0xcc
 .text.MBX_Init
                0x00008618       0xcc build/LAN9253_D51_SQI_Indirect_mode/production/_ext/108134065/mailbox.o
                0x00008618                MBX_Init

.text.MBX_CopyToSendMailbox%94
                0x000086e4       0xcc
 .text.MBX_CopyToSendMailbox
                0x000086e4       0xcc build/LAN9253_D51_SQI_Indirect_mode/production/_ext/108134065/mailbox.o
                0x000086e4                MBX_CopyToSendMailbox

.rodata.asEntryDesc0x1C3x%95
                0x000087b0       0xc8
 .rodata.asEntryDesc0x1C3x
                0x000087b0       0xc8 build/LAN9253_D51_SQI_Indirect_mode/production/_ext/108134065/coeappl.o
                0x000087b0                asEntryDesc0x1C3x

.text.MBX_MailboxReadInd%96
                0x00008878       0xc8
 .text.MBX_MailboxReadInd
                0x00008878       0xc8 build/LAN9253_D51_SQI_Indirect_mode/production/_ext/108134065/mailbox.o
                0x00008878                MBX_MailboxReadInd

.text.MainInit%97
                0x00008940       0xbc
 .text.MainInit
                0x00008940       0xbc build/LAN9253_D51_SQI_Indirect_mode/production/_ext/108134065/ecatappl.o
                0x00008940                MainInit

.text.LAN925x_Init%98
                0x000089fc       0xb0
 .text.LAN925x_Init
                0x000089fc       0xb0 build/LAN9253_D51_SQI_Indirect_mode/production/_ext/108147519/LAN925x.o
                0x000089fc                LAN925x_Init

.text.MBX_StartMailboxHandler%99
                0x00008aac       0xb0
 .text.MBX_StartMailboxHandler
                0x00008aac       0xb0 build/LAN9253_D51_SQI_Indirect_mode/production/_ext/108134065/mailbox.o
                0x00008aac                MBX_StartMailboxHandler

.text.HW_EscWrite%100
                0x00008b5c       0xac
 .text.HW_EscWrite
                0x00008b5c       0xac build/LAN9253_D51_SQI_Indirect_mode/production/_ext/108147519/LAN925x.o
                0x00008b5c                HW_EscWrite

.text.COE_Main%101
                0x00008c08       0xa8
 .text.COE_Main
                0x00008c08       0xa8 build/LAN9253_D51_SQI_Indirect_mode/production/_ext/108134065/coeappl.o
                0x00008c08                COE_Main

.text.OBJ_GetObjectList%102
                0x00008cb0       0xa8
 .text.OBJ_GetObjectList
                0x00008cb0       0xa8 build/LAN9253_D51_SQI_Indirect_mode/production/_ext/108134065/objdef.o
                0x00008cb0                OBJ_GetObjectList

.text.EscWrite%103
                0x00008d58       0xa4
 .text.EscWrite
                0x00008d58       0xa4 build/LAN9253_D51_SQI_Indirect_mode/production/_ext/108147519/LAN925x.o
                0x00008d58                EscWrite

.text.SODS_ClearPendingResponse%104
                0x00008dfc       0xa4
 .text.SODS_ClearPendingResponse
                0x00008dfc       0xa4 build/LAN9253_D51_SQI_Indirect_mode/production/_ext/108134065/sdoserv.o
                0x00008dfc                SODS_ClearPendingResponse

.text.Reset_Handler%105
                0x00008ea0       0x98
 .text.Reset_Handler
                0x00008ea0       0x98 build/LAN9253_D51_SQI_Indirect_mode/production/_ext/1171490990/startup_xc32.o
                0x00008ea0                Reset_Handler

.text.PDO_OutputMapping%106
                0x00008f38       0x94
 .text.PDO_OutputMapping
                0x00008f38       0x94 build/LAN9253_D51_SQI_Indirect_mode/production/_ext/108134065/ecatappl.o
                0x00008f38                PDO_OutputMapping

.text.OBJ_GetObjectLength%107
                0x00008fcc       0x94
 .text.OBJ_GetObjectLength
                0x00008fcc       0x94 build/LAN9253_D51_SQI_Indirect_mode/production/_ext/108134065/objdef.o
                0x00008fcc                OBJ_GetObjectLength

.text._malloc_trim_r%108
                0x00009060       0x94
 .text._malloc_trim_r
                0x00009060       0x94 c:/program files (x86)/microchip/xc32/v2.30/bin/bin/../../lib/gcc/pic32c/6.2.1/../../../../pic32c/lib/v7e-m/fpv4-sp/hard\libc.a(lib_a-freer.o)
                0x00009060                _malloc_trim_r

.text.MBX_MailboxSendReq%109
                0x000090f4       0x8c
 .text.MBX_MailboxSendReq
                0x000090f4       0x8c build/LAN9253_D51_SQI_Indirect_mode/production/_ext/108134065/mailbox.o
                0x000090f4                MBX_MailboxSendReq

.text.FoE_Read%110
                0x00009180       0x8c
 .text.FoE_Read
                0x00009180       0x8c build/LAN9253_D51_SQI_Indirect_mode/production/_ext/108134065/sample_app.o
                0x00009180                FoE_Read

.text.EIC_Initialize%111
                0x0000920c       0x84
 .text.EIC_Initialize
                0x0000920c       0x84 build/LAN9253_D51_SQI_Indirect_mode/production/_ext/60167341/plib_eic.o
                0x0000920c                EIC_Initialize

.text._DMAC_interruptHandler%112
                0x00009290       0x80
 .text._DMAC_interruptHandler
                0x00009290       0x80 build/LAN9253_D51_SQI_Indirect_mode/production/_ext/1865161661/plib_dmac.o
                0x00009290                _DMAC_interruptHandler

.text.QSPI_MemoryRead%113
                0x00009310       0x80
 .text.QSPI_MemoryRead
                0x00009310       0x80 build/LAN9253_D51_SQI_Indirect_mode/production/_ext/1865555181/plib_qspi.o
                0x00009310                QSPI_MemoryRead

.text.__pic32c_data_initialization%114
                0x00009390       0x80
 .text.__pic32c_data_initialization
                0x00009390       0x80 c:/program files (x86)/microchip/xc32/v2.30/bin/bin/../../lib/gcc/pic32c/6.2.1/../../../../pic32c/lib/v7e-m/fpv4-sp/hard\libpic32c.a(data_init.o)
                0x00009390                __pic32c_data_initialization

.text.QSPI_MemoryWrite%115
                0x00009410       0x7c
 .text.QSPI_MemoryWrite
                0x00009410       0x7c build/LAN9253_D51_SQI_Indirect_mode/production/_ext/1865555181/plib_qspi.o
                0x00009410                QSPI_MemoryWrite

.text.COE_AddObjectToDic%116
                0x0000948c       0x7c
 .text.COE_AddObjectToDic
                0x0000948c       0x7c build/LAN9253_D51_SQI_Indirect_mode/production/_ext/108134065/coeappl.o
                0x0000948c                COE_AddObjectToDic

.text.ECAT_CheckTimer%117
                0x00009508       0x7c
 .text.ECAT_CheckTimer
                0x00009508       0x7c build/LAN9253_D51_SQI_Indirect_mode/production/_ext/108134065/ecatappl.o
                0x00009508                ECAT_CheckTimer

.text.EMCY_SendEmergency%118
                0x00009584       0x7c
 .text.EMCY_SendEmergency
                0x00009584       0x7c build/LAN9253_D51_SQI_Indirect_mode/production/_ext/108134065/emcy.o
                0x00009584                EMCY_SendEmergency

.text.LAN9252SQI_ReadPDRAM%119
                0x00009600       0x78
 .text.LAN9252SQI_ReadPDRAM
                0x00009600       0x78 build/LAN9253_D51_SQI_Indirect_mode/production/_ext/1671622979/Drivers.o
                0x00009600                LAN9252SQI_ReadPDRAM

.text.PDO_InputMapping%120
                0x00009678       0x78
 .text.PDO_InputMapping
                0x00009678       0x78 build/LAN9253_D51_SQI_Indirect_mode/production/_ext/108134065/ecatappl.o
                0x00009678                PDO_InputMapping

.text.MBX_MailboxWriteInd%121
                0x000096f0       0x78
 .text.MBX_MailboxWriteInd
                0x000096f0       0x78 build/LAN9253_D51_SQI_Indirect_mode/production/_ext/108134065/mailbox.o
                0x000096f0                MBX_MailboxWriteInd

.text.MBX_Main%122
                0x00009768       0x78
 .text.MBX_Main
                0x00009768       0x78 build/LAN9253_D51_SQI_Indirect_mode/production/_ext/108134065/mailbox.o
                0x00009768                MBX_Main

.rodata.cAbortCode%123
                0x000097e0       0x78
 .rodata.cAbortCode
                0x000097e0       0x78 build/LAN9253_D51_SQI_Indirect_mode/production/_ext/108134065/sdoserv.o
                0x000097e0                cAbortCode

.text.APP_Tasks%124
                0x00009858       0x78
 .text.APP_Tasks
                0x00009858       0x78 build/LAN9253_D51_SQI_Indirect_mode/production/_ext/1360937237/app.o
                0x00009858                APP_Tasks

.text.DMAC_Initialize%125
                0x000098d0       0x74
 .text.DMAC_Initialize
                0x000098d0       0x74 build/LAN9253_D51_SQI_Indirect_mode/production/_ext/1865161661/plib_dmac.o
                0x000098d0                DMAC_Initialize

.text.COE_SyncTimeStamp%126
                0x00009944       0x6c
 .text.COE_SyncTimeStamp
                0x00009944       0x6c build/LAN9253_D51_SQI_Indirect_mode/production/_ext/108134065/coeappl.o
                0x00009944                COE_SyncTimeStamp

.text.NVIC_Initialize%127
                0x000099b0       0x68
 .text.NVIC_Initialize
                0x000099b0       0x68 build/LAN9253_D51_SQI_Indirect_mode/production/_ext/1865468468/plib_nvic.o
                0x000099b0                NVIC_Initialize

.text.ESF_PDI_Init%128
                0x00009a18       0x60
 .text.ESF_PDI_Init
                0x00009a18       0x60 build/LAN9253_D51_SQI_Indirect_mode/production/_ext/1671622979/Drivers.o
                0x00009a18                ESF_PDI_Init

.text.MBX_MailboxRepeatReq%129
                0x00009a78       0x60
 .text.MBX_MailboxRepeatReq
                0x00009a78       0x60 build/LAN9253_D51_SQI_Indirect_mode/production/_ext/108134065/mailbox.o
                0x00009a78                MBX_MailboxRepeatReq

.text.HW_GetALEventRegister%130
                0x00009ad8       0x5c
 .text.HW_GetALEventRegister
                0x00009ad8       0x5c build/LAN9253_D51_SQI_Indirect_mode/production/_ext/108147519/LAN925x.o
                0x00009ad8                HW_GetALEventRegister

.text.OBJ_GetNoOfObjects%131
                0x00009b34       0x5a
 .text.OBJ_GetNoOfObjects
                0x00009b34       0x5a build/LAN9253_D51_SQI_Indirect_mode/production/_ext/108134065/objdef.o
                0x00009b34                OBJ_GetNoOfObjects

.text.LAN9252SQI_Read%132
                0x00009b90       0x58
 .text.LAN9252SQI_Read
                0x00009b90       0x58 build/LAN9253_D51_SQI_Indirect_mode/production/_ext/1671622979/Drivers.o
                0x00009b90                LAN9252SQI_Read

.text.LAN9252SQI_WritePDRAM%133
                0x00009be8       0x58
 .text.LAN9252SQI_WritePDRAM
                0x00009be8       0x58 build/LAN9253_D51_SQI_Indirect_mode/production/_ext/1671622979/Drivers.o
                0x00009be8                LAN9252SQI_WritePDRAM

.text.COE_UpdateSyncErrorStatus%134
                0x00009c40       0x58
 .text.COE_UpdateSyncErrorStatus
                0x00009c40       0x58 build/LAN9253_D51_SQI_Indirect_mode/production/_ext/108134065/coeappl.o
                0x00009c40                COE_UpdateSyncErrorStatus

.text.qspi_setup_transfer%135
                0x00009c98       0x54
 .text.qspi_setup_transfer
                0x00009c98       0x54 build/LAN9253_D51_SQI_Indirect_mode/production/_ext/1865555181/plib_qspi.o

.text.HW_GetALEventRegister_Isr%136
                0x00009cec       0x54
 .text.HW_GetALEventRegister_Isr
                0x00009cec       0x54 build/LAN9253_D51_SQI_Indirect_mode/production/_ext/108147519/LAN925x.o
                0x00009cec                HW_GetALEventRegister_Isr

.text.ECAT_CheckWatchdog%137
                0x00009d40       0x54
 .text.ECAT_CheckWatchdog
                0x00009d40       0x54 build/LAN9253_D51_SQI_Indirect_mode/production/_ext/108134065/ecatslv.o
                0x00009d40                ECAT_CheckWatchdog

.text.BL_FOE_Application%138
                0x00009d94       0x54
 .text.BL_FOE_Application
                0x00009d94       0x54 build/LAN9253_D51_SQI_Indirect_mode/production/_ext/108134065/sample_app.o
                0x00009d94                BL_FOE_Application

.text.HandleCycleTimeMeasurement%139
                0x00009de8       0x50
 .text.HandleCycleTimeMeasurement
                0x00009de8       0x50 build/LAN9253_D51_SQI_Indirect_mode/production/_ext/108134065/ecatappl.o
                0x00009de8                HandleCycleTimeMeasurement

.text.StartOutputHandler%140
                0x00009e38       0x50
 .text.StartOutputHandler
                0x00009e38       0x50 build/LAN9253_D51_SQI_Indirect_mode/production/_ext/108134065/ecatslv.o
                0x00009e38                StartOutputHandler

.text.QSPI_RegisterWrite%141
                0x00009e88       0x4c
 .text.QSPI_RegisterWrite
                0x00009e88       0x4c build/LAN9253_D51_SQI_Indirect_mode/production/_ext/1865555181/plib_qspi.o
                0x00009e88                QSPI_RegisterWrite

.text.FoE_Write%142
                0x00009ed4       0x4c
 .text.FoE_Write
                0x00009ed4       0x4c build/LAN9253_D51_SQI_Indirect_mode/production/_ext/108134065/sample_app.o
                0x00009ed4                FoE_Write

.text.PORT_Initialize%143
                0x00009f20       0x48
 .text.PORT_Initialize
                0x00009f20       0x48 build/LAN9253_D51_SQI_Indirect_mode/production/_ext/1865521619/plib_port.o
                0x00009f20                PORT_Initialize

.text.ReBuild_SQI_SetCfg_data%144
                0x00009f68       0x48
 .text.ReBuild_SQI_SetCfg_data
                0x00009f68       0x48 build/LAN9253_D51_SQI_Indirect_mode/production/_ext/1671622979/Drivers.o
                0x00009f68                ReBuild_SQI_SetCfg_data

.text.__libc_init_array%145
                0x00009fb0       0x48
 .text.__libc_init_array
                0x00009fb0       0x48 c:/program files (x86)/microchip/xc32/v2.30/bin/bin/../../lib/gcc/pic32c/6.2.1/../../../../pic32c/lib/v7e-m/fpv4-sp/hard\libc.a(lib_a-init.o)
                0x00009fb0                __libc_init_array

.text.QSPI_CommandWrite%146
                0x00009ff8       0x44
 .text.QSPI_CommandWrite
                0x00009ff8       0x44 build/LAN9253_D51_SQI_Indirect_mode/production/_ext/1865555181/plib_qspi.o
                0x00009ff8                QSPI_CommandWrite

.text.Read0x10F8%147
                0x0000a03c       0x44
 .text.Read0x10F8
                0x0000a03c       0x44 build/LAN9253_D51_SQI_Indirect_mode/production/_ext/108134065/coeappl.o
                0x0000a03c                Read0x10F8

.text.COE_ContinueInd%148
                0x0000a080       0x44
 .text.COE_ContinueInd
                0x0000a080       0x44 build/LAN9253_D51_SQI_Indirect_mode/production/_ext/108134065/ecatcoe.o
                0x0000a080                COE_ContinueInd

.text.APPL_Application%149
                0x0000a0c4       0x44
 .text.APPL_Application
                0x0000a0c4       0x44 build/LAN9253_D51_SQI_Indirect_mode/production/_ext/108134065/sample_app.o
                0x0000a0c4                APPL_Application

.text.APP_FlashWrite%150
                0x0000a108       0x42
 .text.APP_FlashWrite
                0x0000a108       0x42 build/LAN9253_D51_SQI_Indirect_mode/production/_ext/1360937237/app.o
                0x0000a108                APP_FlashWrite

.text%151       0x0000a14c       0x40
 .text          0x0000a14c       0x40 c:/program files (x86)/microchip/xc32/v2.30/bin/bin/../../lib/gcc/pic32c/6.2.1/v7e-m/fpv4-sp/hard/crtbegin.o

.text.HW_EscReadIsr%152
                0x0000a18c       0x40
 .text.HW_EscReadIsr
                0x0000a18c       0x40 build/LAN9253_D51_SQI_Indirect_mode/production/_ext/108147519/LAN925x.o
                0x0000a18c                HW_EscReadIsr

.text.HW_EscWriteIsr%153
                0x0000a1cc       0x40
 .text.HW_EscWriteIsr
                0x0000a1cc       0x40 build/LAN9253_D51_SQI_Indirect_mode/production/_ext/108147519/LAN925x.o
                0x0000a1cc                HW_EscWriteIsr

.text.COE_RemoveDicEntry%154
                0x0000a20c       0x40
 .text.COE_RemoveDicEntry
                0x0000a20c       0x40 build/LAN9253_D51_SQI_Indirect_mode/production/_ext/108134065/coeappl.o
                0x0000a20c                COE_RemoveDicEntry

.rodata.aName0x10F1%155
                0x0000a24c       0x40
 .rodata.aName0x10F1
                0x0000a24c       0x40 build/LAN9253_D51_SQI_Indirect_mode/production/_ext/108134065/coeappl.o
                0x0000a24c                aName0x10F1

.text.Sync1_Isr%156
                0x0000a28c       0x40
 .text.Sync1_Isr
                0x0000a28c       0x40 build/LAN9253_D51_SQI_Indirect_mode/production/_ext/108134065/ecatappl.o
                0x0000a28c                Sync1_Isr

.text.CheckIfEcatError%157
                0x0000a2cc       0x40
 .text.CheckIfEcatError
                0x0000a2cc       0x40 build/LAN9253_D51_SQI_Indirect_mode/production/_ext/108134065/ecatslv.o
                0x0000a2cc                CheckIfEcatError

.rodata.aName0x1018%158
                0x0000a30c       0x3c
 .rodata.aName0x1018
                0x0000a30c       0x3c build/LAN9253_D51_SQI_Indirect_mode/production/_ext/108134065/coeappl.o
                0x0000a30c                aName0x1018

.text.GetSystemTimeDelay%159
                0x0000a348       0x3c
 .text.GetSystemTimeDelay
                0x0000a348       0x3c build/LAN9253_D51_SQI_Indirect_mode/production/_ext/108134065/ecatappl.o
                0x0000a348                GetSystemTimeDelay

.text.FOE_Data%160
                0x0000a384       0x3c
 .text.FOE_Data
                0x0000a384       0x3c build/LAN9253_D51_SQI_Indirect_mode/production/_ext/108134065/foeappl.o
                0x0000a384                FOE_Data

.text.MailboxServiceInd%161
                0x0000a3c0       0x3c
 .text.MailboxServiceInd
                0x0000a3c0       0x3c build/LAN9253_D51_SQI_Indirect_mode/production/_ext/108134065/mailbox.o
                0x0000a3c0                MailboxServiceInd

.text.OBJ_CopyNumberToString%162
                0x0000a3fc       0x3c
 .text.OBJ_CopyNumberToString
                0x0000a3fc       0x3c build/LAN9253_D51_SQI_Indirect_mode/production/_ext/108134065/objdef.o
                0x0000a3fc                OBJ_CopyNumberToString

.text.NVMCTRL_PageWrite%163
                0x0000a438       0x38
 .text.NVMCTRL_PageWrite
                0x0000a438       0x38 build/LAN9253_D51_SQI_Indirect_mode/production/_ext/1593096446/plib_nvmctrl.o
                0x0000a438                NVMCTRL_PageWrite

.text.ResetALEventMask%164
                0x0000a470       0x38
 .text.ResetALEventMask
                0x0000a470       0x38 build/LAN9253_D51_SQI_Indirect_mode/production/_ext/108134065/ecatslv.o
                0x0000a470                ResetALEventMask

.text.SetALEventMask%165
                0x0000a4a8       0x38
 .text.SetALEventMask
                0x0000a4a8       0x38 build/LAN9253_D51_SQI_Indirect_mode/production/_ext/108134065/ecatslv.o
                0x0000a4a8                SetALEventMask

.text.DisableSyncManChannel%166
                0x0000a4e0       0x36
 .text.DisableSyncManChannel
                0x0000a4e0       0x36 build/LAN9253_D51_SQI_Indirect_mode/production/_ext/108134065/ecatslv.o
                0x0000a4e0                DisableSyncManChannel

.text.ECAT_Application%167
                0x0000a518       0x34
 .text.ECAT_Application
                0x0000a518       0x34 build/LAN9253_D51_SQI_Indirect_mode/production/_ext/108134065/ecatappl.o
                0x0000a518                ECAT_Application

.text.EnableSyncManChannel%168
                0x0000a54c       0x34
 .text.EnableSyncManChannel
                0x0000a54c       0x34 build/LAN9253_D51_SQI_Indirect_mode/production/_ext/108134065/ecatslv.o
                0x0000a54c                EnableSyncManChannel

.text.EMCY_Init%169
                0x0000a580       0x34
 .text.EMCY_Init
                0x0000a580       0x34 build/LAN9253_D51_SQI_Indirect_mode/production/_ext/108134065/emcy.o
                0x0000a580                EMCY_Init

.text.FoE_ReadData%170
                0x0000a5b4       0x34
 .text.FoE_ReadData
                0x0000a5b4       0x34 build/LAN9253_D51_SQI_Indirect_mode/production/_ext/108134065/sample_app.o
                0x0000a5b4                FoE_ReadData

.text.ESC_IRQ_cb%171
                0x0000a5e8       0x30
 .text.ESC_IRQ_cb
                0x0000a5e8       0x30 build/LAN9253_D51_SQI_Indirect_mode/production/_ext/1671622979/Drivers.o
                0x0000a5e8                ESC_IRQ_cb

.text.UpdateEEPROMLoadedState%172
                0x0000a618       0x30
 .text.UpdateEEPROMLoadedState
                0x0000a618       0x30 build/LAN9253_D51_SQI_Indirect_mode/production/_ext/108134065/ecatslv.o
                0x0000a618                UpdateEEPROMLoadedState

.text.GetOutOfEmptyEmcyQueue%173
                0x0000a648       0x30
 .text.GetOutOfEmptyEmcyQueue
                0x0000a648       0x30 build/LAN9253_D51_SQI_Indirect_mode/production/_ext/108134065/emcy.o
                0x0000a648                GetOutOfEmptyEmcyQueue

.text.GetOutOfSendEmcyQueue%174
                0x0000a678       0x30
 .text.GetOutOfSendEmcyQueue
                0x0000a678       0x30 build/LAN9253_D51_SQI_Indirect_mode/production/_ext/108134065/emcy.o
                0x0000a678                GetOutOfSendEmcyQueue

.text.ESC_BYTE_TEST_Register_Read%175
                0x0000a6a8       0x2e
 .text.ESC_BYTE_TEST_Register_Read
                0x0000a6a8       0x2e build/LAN9253_D51_SQI_Indirect_mode/production/_ext/1671622979/Drivers.o
                0x0000a6a8                ESC_BYTE_TEST_Register_Read

.text.EIC_CallbackRegister%176
                0x0000a6d8       0x2c
 .text.EIC_CallbackRegister
                0x0000a6d8       0x2c build/LAN9253_D51_SQI_Indirect_mode/production/_ext/60167341/plib_eic.o
                0x0000a6d8                EIC_CallbackRegister

.text.SYS_Initialize%177
                0x0000a704       0x2c
 .text.SYS_Initialize
                0x0000a704       0x2c build/LAN9253_D51_SQI_Indirect_mode/production/_ext/1171490990/initialization.o
                0x0000a704                SYS_Initialize

.text.COE_ObjDictionaryInit%178
                0x0000a730       0x2c
 .text.COE_ObjDictionaryInit
                0x0000a730       0x2c build/LAN9253_D51_SQI_Indirect_mode/production/_ext/108134065/coeappl.o
                0x0000a730                COE_ObjDictionaryInit

.text.COE_ServiceInd%179
                0x0000a75c       0x2c
 .text.COE_ServiceInd
                0x0000a75c       0x2c build/LAN9253_D51_SQI_Indirect_mode/production/_ext/108134065/ecatcoe.o
                0x0000a75c                COE_ServiceInd

.text._sbrk%180
                0x0000a788       0x2c
 .text._sbrk    0x0000a788       0x2c c:/program files (x86)/microchip/xc32/v2.30/bin/bin/../../lib/gcc/pic32c/6.2.1/../../../../pic32c/lib/v7e-m/fpv4-sp/hard\libpic32c.a(sbrk.o)
                0x0000a788                _sbrk

.text.AddObjectsToObjDictionary%181
                0x0000a7b4       0x2a
 .text.AddObjectsToObjDictionary
                0x0000a7b4       0x2a build/LAN9253_D51_SQI_Indirect_mode/production/_ext/108134065/coeappl.o
                0x0000a7b4                AddObjectsToObjDictionary

.text.PutInMbxQueue%182
                0x0000a7de       0x2a
 .text.PutInMbxQueue
                0x0000a7de       0x2a build/LAN9253_D51_SQI_Indirect_mode/production/_ext/108134065/mailbox.o
                0x0000a7de                PutInMbxQueue

.text.FOE_Read%183
                0x0000a808       0x28
 .text.FOE_Read
                0x0000a808       0x28 build/LAN9253_D51_SQI_Indirect_mode/production/_ext/108134065/foeappl.o
                0x0000a808                FOE_Read

.text.GetOutOfMbxQueue%184
                0x0000a830       0x28
 .text.GetOutOfMbxQueue
                0x0000a830       0x28 build/LAN9253_D51_SQI_Indirect_mode/production/_ext/108134065/mailbox.o
                0x0000a830                GetOutOfMbxQueue

.text.LAN9252SQI_Write%185
                0x0000a858       0x26
 .text.LAN9252SQI_Write
                0x0000a858       0x26 build/LAN9253_D51_SQI_Indirect_mode/production/_ext/1671622979/Drivers.o
                0x0000a858                LAN9252SQI_Write

.text.QSPI_Initialize%186
                0x0000a880       0x24
 .text.QSPI_Initialize
                0x0000a880       0x24 build/LAN9253_D51_SQI_Indirect_mode/production/_ext/1865555181/plib_qspi.o
                0x0000a880                QSPI_Initialize

.text.SYSTICK_TimerInitialize%187
                0x0000a8a4       0x24
 .text.SYSTICK_TimerInitialize
                0x0000a8a4       0x24 build/LAN9253_D51_SQI_Indirect_mode/production/_ext/1827571544/plib_systick.o
                0x0000a8a4                SYSTICK_TimerInitialize

.text.SQI_SetConfiguration%188
                0x0000a8c8       0x24
 .text.SQI_SetConfiguration
                0x0000a8c8       0x24 build/LAN9253_D51_SQI_Indirect_mode/production/_ext/1671622979/Drivers.o
                0x0000a8c8                SQI_SetConfiguration

.text.APP_FW_startDownload%189
                0x0000a8ec       0x24
 .text.APP_FW_startDownload
                0x0000a8ec       0x24 build/LAN9253_D51_SQI_Indirect_mode/production/_ext/108134065/sample_app.o
                0x0000a8ec                APP_FW_startDownload

.text.OBJ_GetEntryDesc%190
                0x0000a910       0x22
 .text.OBJ_GetEntryDesc
                0x0000a910       0x22 build/LAN9253_D51_SQI_Indirect_mode/production/_ext/108134065/objdef.o
                0x0000a910                OBJ_GetEntryDesc

.text.EIC_EXTINT_0_InterruptHandler%191
                0x0000a934       0x20
 .text.EIC_EXTINT_0_InterruptHandler
                0x0000a934       0x20 build/LAN9253_D51_SQI_Indirect_mode/production/_ext/60167341/plib_eic.o
                0x0000a934                EIC_EXTINT_0_InterruptHandler

.text.EIC_EXTINT_1_InterruptHandler%192
                0x0000a954       0x20
 .text.EIC_EXTINT_1_InterruptHandler
                0x0000a954       0x20 build/LAN9253_D51_SQI_Indirect_mode/production/_ext/60167341/plib_eic.o
                0x0000a954                EIC_EXTINT_1_InterruptHandler

.text.EIC_EXTINT_7_InterruptHandler%193
                0x0000a974       0x20
 .text.EIC_EXTINT_7_InterruptHandler
                0x0000a974       0x20 build/LAN9253_D51_SQI_Indirect_mode/production/_ext/60167341/plib_eic.o
                0x0000a974                EIC_EXTINT_7_InterruptHandler

.text.PDI_Init_SYNC_Interrupts%194
                0x0000a994       0x20
 .text.PDI_Init_SYNC_Interrupts
                0x0000a994       0x20 build/LAN9253_D51_SQI_Indirect_mode/production/_ext/108147519/ESC_Utils.o
                0x0000a994                PDI_Init_SYNC_Interrupts

.text.COE_ClearObjDictionary%195
                0x0000a9b4       0x20
 .text.COE_ClearObjDictionary
                0x0000a9b4       0x20 build/LAN9253_D51_SQI_Indirect_mode/production/_ext/108134065/coeappl.o
                0x0000a9b4                COE_ClearObjDictionary

.rodata.asEntryDesc0x1018%196
                0x0000a9d4       0x20
 .rodata.asEntryDesc0x1018
                0x0000a9d4       0x20 build/LAN9253_D51_SQI_Indirect_mode/production/_ext/108134065/coeappl.o
                0x0000a9d4                asEntryDesc0x1018

.text.PutInEmptyEmcyQueue%197
                0x0000a9f4       0x20
 .text.PutInEmptyEmcyQueue
                0x0000a9f4       0x20 build/LAN9253_D51_SQI_Indirect_mode/production/_ext/108134065/emcy.o
                0x0000a9f4                PutInEmptyEmcyQueue

.text.PutInSendEmcyQueue%198
                0x0000aa14       0x20
 .text.PutInSendEmcyQueue
                0x0000aa14       0x20 build/LAN9253_D51_SQI_Indirect_mode/production/_ext/108134065/emcy.o
                0x0000aa14                PutInSendEmcyQueue

.text.FOE_Ack%199
                0x0000aa34       0x20
 .text.FOE_Ack  0x0000aa34       0x20 build/LAN9253_D51_SQI_Indirect_mode/production/_ext/108134065/foeappl.o
                0x0000aa34                FOE_Ack

.text.OBJ_GetObjectHandle%200
                0x0000aa54       0x20
 .text.OBJ_GetObjectHandle
                0x0000aa54       0x20 build/LAN9253_D51_SQI_Indirect_mode/production/_ext/108134065/objdef.o
                0x0000aa54                OBJ_GetObjectHandle

.rodata.cBitMask%201
                0x0000aa74       0x20
 .rodata.cBitMask
                0x0000aa74       0x20 build/LAN9253_D51_SQI_Indirect_mode/production/_ext/108134065/objdef.o
                0x0000aa74                cBitMask

.text._sbrk_r%202
                0x0000aa94       0x20
 .text._sbrk_r  0x0000aa94       0x20 c:/program files (x86)/microchip/xc32/v2.30/bin/bin/../../lib/gcc/pic32c/6.2.1/../../../../pic32c/lib/v7e-m/fpv4-sp/hard\libc.a(lib_a-sbrkr.o)
                0x0000aa94                _sbrk_r

.text.SQI_EnableQuadMode%203
                0x0000aab4       0x1e
 .text.SQI_EnableQuadMode
                0x0000aab4       0x1e build/LAN9253_D51_SQI_Indirect_mode/production/_ext/1671622979/Drivers.o
                0x0000aab4                SQI_EnableQuadMode

.text.SQI_DisableQuadMode%204
                0x0000aad2       0x1e
 .text.SQI_DisableQuadMode
                0x0000aad2       0x1e build/LAN9253_D51_SQI_Indirect_mode/production/_ext/1671622979/Drivers.o
                0x0000aad2                SQI_DisableQuadMode

.text.NVMCTRL_BlockErase%205
                0x0000aaf0       0x1c
 .text.NVMCTRL_BlockErase
                0x0000aaf0       0x1c build/LAN9253_D51_SQI_Indirect_mode/production/_ext/1593096446/plib_nvmctrl.o
                0x0000aaf0                NVMCTRL_BlockErase

.text.SysTick_Handler%206
                0x0000ab0c       0x1c
 .text.SysTick_Handler
                0x0000ab0c       0x1c build/LAN9253_D51_SQI_Indirect_mode/production/_ext/1827571544/plib_systick.o
                0x0000ab0c                SysTick_Handler

.rodata.aName0x1C12%207
                0x0000ab28       0x1c
 .rodata.aName0x1C12
                0x0000ab28       0x1c build/LAN9253_D51_SQI_Indirect_mode/production/_ext/108134065/coeappl.o
                0x0000ab28                aName0x1C12

.rodata.aName0x1C13%208
                0x0000ab44       0x1c
 .rodata.aName0x1C13
                0x0000ab44       0x1c build/LAN9253_D51_SQI_Indirect_mode/production/_ext/108134065/coeappl.o
                0x0000ab44                aName0x1C13

.text.FOE_Init%209
                0x0000ab60       0x1c
 .text.FOE_Init
                0x0000ab60       0x1c build/LAN9253_D51_SQI_Indirect_mode/production/_ext/108134065/ecatfoe.o
                0x0000ab60                FOE_Init

.text.FOE_ContinueInd%210
                0x0000ab7c       0x1c
 .text.FOE_ContinueInd
                0x0000ab7c       0x1c build/LAN9253_D51_SQI_Indirect_mode/production/_ext/108134065/ecatfoe.o
                0x0000ab7c                FOE_ContinueInd

.text.GetSyncMan%211
                0x0000ab98       0x1c
 .text.GetSyncMan
                0x0000ab98       0x1c build/LAN9253_D51_SQI_Indirect_mode/production/_ext/108134065/ecatslv.o
                0x0000ab98                GetSyncMan

.text.APP_FW_StateBOOTtoINIT%212
                0x0000abb4       0x1c
 .text.APP_FW_StateBOOTtoINIT
                0x0000abb4       0x1c build/LAN9253_D51_SQI_Indirect_mode/production/_ext/108134065/sample_app.o
                0x0000abb4                APP_FW_StateBOOTtoINIT

.text.FOE_Write%213
                0x0000abd0       0x18
 .text.FOE_Write
                0x0000abd0       0x18 build/LAN9253_D51_SQI_Indirect_mode/production/_ext/108134065/foeappl.o
                0x0000abd0                FOE_Write

.text.memcpy%214
                0x0000abe8       0x16
 .text.memcpy   0x0000abe8       0x16 c:/program files (x86)/microchip/xc32/v2.30/bin/bin/../../lib/gcc/pic32c/6.2.1/../../../../pic32c/lib/v7e-m/fpv4-sp/hard\libc.a(lib_a-memcpy-stub.o)
                0x0000abe8                memcpy

.text.qspi_memcpy_8bit%215
                0x0000abfe       0x14
 .text.qspi_memcpy_8bit
                0x0000abfe       0x14 build/LAN9253_D51_SQI_Indirect_mode/production/_ext/1865555181/plib_qspi.o

.text.SYSTICK_TimerStart%216
                0x0000ac14       0x14
 .text.SYSTICK_TimerStart
                0x0000ac14       0x14 build/LAN9253_D51_SQI_Indirect_mode/production/_ext/1827571544/plib_systick.o
                0x0000ac14                SYSTICK_TimerStart

.text.ECAT_SysTick_Handler%217
                0x0000ac28       0x14
 .text.ECAT_SysTick_Handler
                0x0000ac28       0x14 build/LAN9253_D51_SQI_Indirect_mode/production/_ext/1671622979/Drivers.o
                0x0000ac28                ECAT_SysTick_Handler

.text.PDI_Timer_Interrupt%218
                0x0000ac3c       0x14
 .text.PDI_Timer_Interrupt
                0x0000ac3c       0x14 build/LAN9253_D51_SQI_Indirect_mode/production/_ext/1671622979/Drivers.o
                0x0000ac3c                PDI_Timer_Interrupt

.text.PDI_IRQ_Interrupt%219
                0x0000ac50       0x14
 .text.PDI_IRQ_Interrupt
                0x0000ac50       0x14 build/LAN9253_D51_SQI_Indirect_mode/production/_ext/108147519/ESC_Utils.o
                0x0000ac50                PDI_IRQ_Interrupt

.rodata.aName0x1009%220
                0x0000ac64       0x14
 .rodata.aName0x1009
                0x0000ac64       0x14 build/LAN9253_D51_SQI_Indirect_mode/production/_ext/108134065/coeappl.o
                0x0000ac64                aName0x1009

.rodata.aName0x100A%221
                0x0000ac78       0x14
 .rodata.aName0x100A
                0x0000ac78       0x14 build/LAN9253_D51_SQI_Indirect_mode/production/_ext/108134065/coeappl.o
                0x0000ac78                aName0x100A

.rodata.aName0x10F8%222
                0x0000ac8c       0x14
 .rodata.aName0x10F8
                0x0000ac8c       0x14 build/LAN9253_D51_SQI_Indirect_mode/production/_ext/108134065/coeappl.o
                0x0000ac8c                aName0x10F8

.rodata.aName0x1C00%223
                0x0000aca0       0x14
 .rodata.aName0x1C00
                0x0000aca0       0x14 build/LAN9253_D51_SQI_Indirect_mode/production/_ext/108134065/coeappl.o
                0x0000aca0                aName0x1C00

.rodata.asEntryDesc0x10F1%224
                0x0000acb4       0x14
 .rodata.asEntryDesc0x10F1
                0x0000acb4       0x14 build/LAN9253_D51_SQI_Indirect_mode/production/_ext/108134065/coeappl.o
                0x0000acb4                asEntryDesc0x10F1

.text.COE_Init%225
                0x0000acc8       0x14
 .text.COE_Init
                0x0000acc8       0x14 build/LAN9253_D51_SQI_Indirect_mode/production/_ext/108134065/ecatcoe.o
                0x0000acc8                COE_Init

.text.StopOutputHandler%226
                0x0000acdc       0x14
 .text.StopOutputHandler
                0x0000acdc       0x14 build/LAN9253_D51_SQI_Indirect_mode/production/_ext/108134065/ecatslv.o
                0x0000acdc                StopOutputHandler

.text.EMCY_IsQueueEmpty%227
                0x0000acf0       0x14
 .text.EMCY_IsQueueEmpty
                0x0000acf0       0x14 build/LAN9253_D51_SQI_Indirect_mode/production/_ext/108134065/emcy.o
                0x0000acf0                EMCY_IsQueueEmpty

.text.NVMCTRL_Initialize%228
                0x0000ad04       0x10
 .text.NVMCTRL_Initialize
                0x0000ad04       0x10 build/LAN9253_D51_SQI_Indirect_mode/production/_ext/1593096446/plib_nvmctrl.o
                0x0000ad04                NVMCTRL_Initialize

.text.NVMCTRL_IsBusy%229
                0x0000ad14       0x10
 .text.NVMCTRL_IsBusy
                0x0000ad14       0x10 build/LAN9253_D51_SQI_Indirect_mode/production/_ext/1593096446/plib_nvmctrl.o
                0x0000ad14                NVMCTRL_IsBusy

.text.NVMCTRL_BankSwap%230
                0x0000ad24       0x10
 .text.NVMCTRL_BankSwap
                0x0000ad24       0x10 build/LAN9253_D51_SQI_Indirect_mode/production/_ext/1593096446/plib_nvmctrl.o
                0x0000ad24                NVMCTRL_BankSwap

.rodata.aName0x1001%231
                0x0000ad34       0x10
 .rodata.aName0x1001
                0x0000ad34       0x10 build/LAN9253_D51_SQI_Indirect_mode/production/_ext/108134065/coeappl.o
                0x0000ad34                aName0x1001

.text.FOE_Error%232
                0x0000ad44       0x10
 .text.FOE_Error
                0x0000ad44       0x10 build/LAN9253_D51_SQI_Indirect_mode/production/_ext/108134065/foeappl.o
                0x0000ad44                FOE_Error

.text.malloc%233
                0x0000ad54       0x10
 .text.malloc   0x0000ad54       0x10 c:/program files (x86)/microchip/xc32/v2.30/bin/bin/../../lib/gcc/pic32c/6.2.1/../../../../pic32c/lib/v7e-m/fpv4-sp/hard\libc.a(lib_a-malloc.o)
                0x0000ad54                malloc

.text.free%234  0x0000ad64       0x10
 .text.free     0x0000ad64       0x10 c:/program files (x86)/microchip/xc32/v2.30/bin/bin/../../lib/gcc/pic32c/6.2.1/../../../../pic32c/lib/v7e-m/fpv4-sp/hard\libc.a(lib_a-malloc.o)
                0x0000ad64                free

.text.memset%235
                0x0000ad74       0x10
 .text.memset   0x0000ad74       0x10 c:/program files (x86)/microchip/xc32/v2.30/bin/bin/../../lib/gcc/pic32c/6.2.1/../../../../pic32c/lib/v7e-m/fpv4-sp/hard\libc.a(lib_a-memset.o)
                0x0000ad74                memset

.text%236       0x0000ad84       0x10
 .text          0x0000ad84       0x10 c:/program files (x86)/microchip/xc32/v2.30/bin/bin/../../lib/gcc/pic32c/6.2.1/../../../../pic32c/lib/v7e-m/fpv4-sp/hard\libc.a(lib_a-strlen.o)
                0x0000ad84                strlen

.text.EMCY_ContinueInd%237
                0x0000ad94        0xe
 .text.EMCY_ContinueInd
                0x0000ad94        0xe build/LAN9253_D51_SQI_Indirect_mode/production/_ext/108134065/emcy.o
                0x0000ad94                EMCY_ContinueInd

.text.main%238  0x0000ada2        0xe
 .text.main     0x0000ada2        0xe build/LAN9253_D51_SQI_Indirect_mode/production/_ext/1360937237/main.o
                0x0000ada2                main

.text.SYSTICK_TimerCallbackSet%239
                0x0000adb0        0xc
 .text.SYSTICK_TimerCallbackSet
                0x0000adb0        0xc build/LAN9253_D51_SQI_Indirect_mode/production/_ext/1827571544/plib_systick.o
                0x0000adb0                SYSTICK_TimerCallbackSet

.text.COE_GetObjectDictionary%240
                0x0000adbc        0xc
 .text.COE_GetObjectDictionary
                0x0000adbc        0xc build/LAN9253_D51_SQI_Indirect_mode/production/_ext/108134065/coeappl.o
                0x0000adbc                COE_GetObjectDictionary

.rodata.aName0x1000%241
                0x0000adc8        0xc
 .rodata.aName0x1000
                0x0000adc8        0xc build/LAN9253_D51_SQI_Indirect_mode/production/_ext/108134065/coeappl.o
                0x0000adc8                aName0x1000

.rodata.aName0x1008%242
                0x0000add4        0xc
 .rodata.aName0x1008
                0x0000add4        0xc build/LAN9253_D51_SQI_Indirect_mode/production/_ext/108134065/coeappl.o
                0x0000add4                aName0x1008

.rodata.asEntryDesc0x1C00%243
                0x0000ade0        0xc
 .rodata.asEntryDesc0x1C00
                0x0000ade0        0xc build/LAN9253_D51_SQI_Indirect_mode/production/_ext/108134065/coeappl.o
                0x0000ade0                asEntryDesc0x1C00

.rodata.asEntryDesc0x1C12%244
                0x0000adec        0xc
 .rodata.asEntryDesc0x1C12
                0x0000adec        0xc build/LAN9253_D51_SQI_Indirect_mode/production/_ext/108134065/coeappl.o
                0x0000adec                asEntryDesc0x1C12

.rodata.asEntryDesc0x1C13%245
                0x0000adf8        0xc
 .rodata.asEntryDesc0x1C13
                0x0000adf8        0xc build/LAN9253_D51_SQI_Indirect_mode/production/_ext/108134065/coeappl.o
                0x0000adf8                asEntryDesc0x1C13

.text.FOE_Busy%246
                0x0000ae04        0xc
 .text.FOE_Busy
                0x0000ae04        0xc build/LAN9253_D51_SQI_Indirect_mode/production/_ext/108134065/foeappl.o
                0x0000ae04                FOE_Busy

.text.APP_FW_GetDownloadStateFinished%247
                0x0000ae10        0xc
 .text.APP_FW_GetDownloadStateFinished
                0x0000ae10        0xc build/LAN9253_D51_SQI_Indirect_mode/production/_ext/108134065/sample_app.o
                0x0000ae10                APP_FW_GetDownloadStateFinished

.text.APPL_InputMapping%248
                0x0000ae1c        0xc
 .text.APPL_InputMapping
                0x0000ae1c        0xc build/LAN9253_D51_SQI_Indirect_mode/production/_ext/108134065/sample_app.o
                0x0000ae1c                APPL_InputMapping

.text.APPL_OutputMapping%249
                0x0000ae28        0xc
 .text.APPL_OutputMapping
                0x0000ae28        0xc build/LAN9253_D51_SQI_Indirect_mode/production/_ext/108134065/sample_app.o
                0x0000ae28                APPL_OutputMapping

.text.APP_Initialize%250
                0x0000ae34        0xc
 .text.APP_Initialize
                0x0000ae34        0xc build/LAN9253_D51_SQI_Indirect_mode/production/_ext/1360937237/app.o
                0x0000ae34                APP_Initialize

.text.DMAC_0_Handler%251
                0x0000ae40        0xa
 .text.DMAC_0_Handler
                0x0000ae40        0xa build/LAN9253_D51_SQI_Indirect_mode/production/_ext/1865161661/plib_dmac.o
                0x0000ae40                DMAC_0_Handler

.text.DMAC_1_Handler%252
                0x0000ae4a        0xa
 .text.DMAC_1_Handler
                0x0000ae4a        0xa build/LAN9253_D51_SQI_Indirect_mode/production/_ext/1865161661/plib_dmac.o
                0x0000ae4a                DMAC_1_Handler

.text.APPL_StopMailboxHandler%253
                0x0000ae54        0xa
 .text.APPL_StopMailboxHandler
                0x0000ae54        0xa build/LAN9253_D51_SQI_Indirect_mode/production/_ext/108134065/sample_app.o
                0x0000ae54                APPL_StopMailboxHandler

.text.SYS_Tasks%254
                0x0000ae5e        0x8
 .text.SYS_Tasks
                0x0000ae5e        0x8 build/LAN9253_D51_SQI_Indirect_mode/production/_ext/1171490990/tasks.o
                0x0000ae5e                SYS_Tasks

.text.CRITICAL_SECTION_ENTER%255
                0x0000ae66        0x8
 .text.CRITICAL_SECTION_ENTER
                0x0000ae66        0x8 build/LAN9253_D51_SQI_Indirect_mode/production/_ext/1671622979/Drivers.o
                0x0000ae66                CRITICAL_SECTION_ENTER

.text.CRITICAL_SECTION_LEAVE%256
                0x0000ae6e        0x8
 .text.CRITICAL_SECTION_LEAVE
                0x0000ae6e        0x8 build/LAN9253_D51_SQI_Indirect_mode/production/_ext/1671622979/Drivers.o
                0x0000ae6e                CRITICAL_SECTION_LEAVE

.text.ESC_Sync0_cb%257
                0x0000ae76        0x8
 .text.ESC_Sync0_cb
                0x0000ae76        0x8 build/LAN9253_D51_SQI_Indirect_mode/production/_ext/1671622979/Drivers.o
                0x0000ae76                ESC_Sync0_cb

.text.ESC_Sync1_cb%258
                0x0000ae7e        0x8
 .text.ESC_Sync1_cb
                0x0000ae7e        0x8 build/LAN9253_D51_SQI_Indirect_mode/production/_ext/1671622979/Drivers.o
                0x0000ae7e                ESC_Sync1_cb

.text.ESC_Init%259
                0x0000ae86        0x8
 .text.ESC_Init
                0x0000ae86        0x8 build/LAN9253_D51_SQI_Indirect_mode/production/_ext/108147519/ESC_Utils.o
                0x0000ae86                ESC_Init

.rodata.sEntryDesc0x1000%260
                0x0000ae90        0x8
 .rodata.sEntryDesc0x1000
                0x0000ae90        0x8 build/LAN9253_D51_SQI_Indirect_mode/production/_ext/108134065/coeappl.o
                0x0000ae90                sEntryDesc0x1000

.rodata.sEntryDesc0x1001%261
                0x0000ae98        0x8
 .rodata.sEntryDesc0x1001
                0x0000ae98        0x8 build/LAN9253_D51_SQI_Indirect_mode/production/_ext/108134065/coeappl.o
                0x0000ae98                sEntryDesc0x1001

.rodata.sEntryDesc0x1008%262
                0x0000aea0        0x8
 .rodata.sEntryDesc0x1008
                0x0000aea0        0x8 build/LAN9253_D51_SQI_Indirect_mode/production/_ext/108134065/coeappl.o
                0x0000aea0                sEntryDesc0x1008

.rodata.sEntryDesc0x1009%263
                0x0000aea8        0x8
 .rodata.sEntryDesc0x1009
                0x0000aea8        0x8 build/LAN9253_D51_SQI_Indirect_mode/production/_ext/108134065/coeappl.o
                0x0000aea8                sEntryDesc0x1009

.rodata.sEntryDesc0x100A%264
                0x0000aeb0        0x8
 .rodata.sEntryDesc0x100A
                0x0000aeb0        0x8 build/LAN9253_D51_SQI_Indirect_mode/production/_ext/108134065/coeappl.o
                0x0000aeb0                sEntryDesc0x100A

.rodata.sEntryDesc0x10F8%265
                0x0000aeb8        0x8
 .rodata.sEntryDesc0x10F8
                0x0000aeb8        0x8 build/LAN9253_D51_SQI_Indirect_mode/production/_ext/108134065/coeappl.o
                0x0000aeb8                sEntryDesc0x10F8

.text.EMCY_GetEmcyBuffer%266
                0x0000aec0        0x8
 .text.EMCY_GetEmcyBuffer
                0x0000aec0        0x8 build/LAN9253_D51_SQI_Indirect_mode/production/_ext/108134065/emcy.o
                0x0000aec0                EMCY_GetEmcyBuffer

.rodata.acEmcyCoeHeader%267
                0x0000aec8        0x8
 .rodata.acEmcyCoeHeader
                0x0000aec8        0x8 build/LAN9253_D51_SQI_Indirect_mode/production/_ext/108134065/emcy.o
                0x0000aec8                acEmcyCoeHeader

.text.PORT_GroupSet%268
                0x0000aed0        0x4
 .text.PORT_GroupSet
                0x0000aed0        0x4 build/LAN9253_D51_SQI_Indirect_mode/production/_ext/1865521619/plib_port.o
                0x0000aed0                PORT_GroupSet

.text.PORT_GroupClear%269
                0x0000aed4        0x4
 .text.PORT_GroupClear
                0x0000aed4        0x4 build/LAN9253_D51_SQI_Indirect_mode/production/_ext/1865521619/plib_port.o
                0x0000aed4                PORT_GroupClear

.text.PORT_GroupOutputEnable%270
                0x0000aed8        0x4
 .text.PORT_GroupOutputEnable
                0x0000aed8        0x4 build/LAN9253_D51_SQI_Indirect_mode/production/_ext/1865521619/plib_port.o
                0x0000aed8                PORT_GroupOutputEnable

.text.OBJ_GetObjDesc%271
                0x0000aedc        0x4
 .text.OBJ_GetObjDesc
                0x0000aedc        0x4 build/LAN9253_D51_SQI_Indirect_mode/production/_ext/108134065/objdef.o
                0x0000aedc                OBJ_GetObjDesc

.text.APPL_StartMailboxHandler%272
                0x0000aee0        0x4
 .text.APPL_StartMailboxHandler
                0x0000aee0        0x4 build/LAN9253_D51_SQI_Indirect_mode/production/_ext/108134065/sample_app.o
                0x0000aee0                APPL_StartMailboxHandler

.text.APPL_StartInputHandler%273
                0x0000aee4        0x4
 .text.APPL_StartInputHandler
                0x0000aee4        0x4 build/LAN9253_D51_SQI_Indirect_mode/production/_ext/108134065/sample_app.o
                0x0000aee4                APPL_StartInputHandler

.text.APPL_StopInputHandler%274
                0x0000aee8        0x4
 .text.APPL_StopInputHandler
                0x0000aee8        0x4 build/LAN9253_D51_SQI_Indirect_mode/production/_ext/108134065/sample_app.o
                0x0000aee8                APPL_StopInputHandler

.text.APPL_StartOutputHandler%275
                0x0000aeec        0x4
 .text.APPL_StartOutputHandler
                0x0000aeec        0x4 build/LAN9253_D51_SQI_Indirect_mode/production/_ext/108134065/sample_app.o
                0x0000aeec                APPL_StartOutputHandler

.text.APPL_StopOutputHandler%276
                0x0000aef0        0x4
 .text.APPL_StopOutputHandler
                0x0000aef0        0x4 build/LAN9253_D51_SQI_Indirect_mode/production/_ext/108134065/sample_app.o
                0x0000aef0                APPL_StopOutputHandler

.text.EVSYS_Initialize%277
                0x00009b8e        0x2
 .text.EVSYS_Initialize
                0x00009b8e        0x2 build/LAN9253_D51_SQI_Indirect_mode/production/_ext/1986646378/plib_evsys.o
                0x00009b8e                EVSYS_Initialize

.text.NonMaskableInt_Handler%278
                0x0000a14a        0x2
 .text.NonMaskableInt_Handler
                0x0000a14a        0x2 build/LAN9253_D51_SQI_Indirect_mode/production/_ext/1171490990/exceptions.o
                0x0000a14a                NonMaskableInt_Handler

.text.HardFault_Handler%279
                0x0000a516        0x2
 .text.HardFault_Handler
                0x0000a516        0x2 build/LAN9253_D51_SQI_Indirect_mode/production/_ext/1171490990/exceptions.o
                0x0000a516                HardFault_Handler

.text.DebugMonitor_Handler%280
                0x0000a6d6        0x2
 .text.DebugMonitor_Handler
                0x0000a6d6        0x2 build/LAN9253_D51_SQI_Indirect_mode/production/_ext/1171490990/exceptions.o
                0x0000a6d6                DebugMonitor_Handler

.text.MemoryManagement_Handler%281
                0x0000a87e        0x2
 .text.MemoryManagement_Handler
                0x0000a87e        0x2 build/LAN9253_D51_SQI_Indirect_mode/production/_ext/1171490990/exceptions.o
                0x0000a87e                MemoryManagement_Handler

.text.BusFault_Handler%282
                0x0000a932        0x2
 .text.BusFault_Handler
                0x0000a932        0x2 build/LAN9253_D51_SQI_Indirect_mode/production/_ext/1171490990/exceptions.o
                0x0000a932                BusFault_Handler

.text.UsageFault_Handler%283
                0x0000ac12        0x2
 .text.UsageFault_Handler
                0x0000ac12        0x2 build/LAN9253_D51_SQI_Indirect_mode/production/_ext/1171490990/exceptions.o
                0x0000ac12                UsageFault_Handler

.text.Dummy_Handler%284
                0x0000ae8e        0x2
 .text.Dummy_Handler
                0x0000ae8e        0x2 build/LAN9253_D51_SQI_Indirect_mode/production/_ext/1171490990/interrupts.o
                0x0000ae8e                EIC_EXTINT_9_Handler
                0x0000ae8e                TCC0_MC5_Handler
                0x0000ae8e                SVCall_Handler
                0x0000ae8e                SERCOM0_2_Handler
                0x0000ae8e                USB_SOF_HSOF_Handler
                0x0000ae8e                TCC4_OTHER_Handler
                0x0000ae8e                TCC2_MC2_Handler
                0x0000ae8e                EVSYS_0_Handler
                0x0000ae8e                TRNG_Handler
                0x0000ae8e                TC2_Handler
                0x0000ae8e                USB_TRCPT0_Handler
                0x0000ae8e                DAC_OTHER_Handler
                0x0000ae8e                AC_Handler
                0x0000ae8e                DAC_EMPTY_0_Handler
                0x0000ae8e                DMAC_OTHER_Handler
                0x0000ae8e                EIC_EXTINT_5_Handler
                0x0000ae8e                SERCOM3_1_Handler
                0x0000ae8e                SERCOM4_OTHER_Handler
                0x0000ae8e                SERCOM3_2_Handler
                0x0000ae8e                EIC_EXTINT_6_Handler
                0x0000ae8e                PendSV_Handler
                0x0000ae8e                TCC4_MC0_Handler
                0x0000ae8e                EVSYS_3_Handler
                0x0000ae8e                QSPI_Handler
                0x0000ae8e                TCC2_MC0_Handler
                0x0000ae8e                PDEC_OTHER_Handler
                0x0000ae8e                TCC3_MC0_Handler
                0x0000ae8e                PDEC_MC1_Handler
                0x0000ae8e                TCC2_MC1_Handler
                0x0000ae8e                OSCCTRL_XOSC1_Handler
                0x0000ae8e                PDEC_MC0_Handler
                0x0000ae8e                EIC_EXTINT_4_Handler
                0x0000ae8e                SERCOM0_OTHER_Handler
                0x0000ae8e                EVSYS_OTHER_Handler
                0x0000ae8e                SERCOM0_0_Handler
                0x0000ae8e                RTC_Handler
                0x0000ae8e                SERCOM4_0_Handler
                0x0000ae8e                TCC1_MC0_Handler
                0x0000ae8e                SERCOM1_OTHER_Handler
                0x0000ae8e                TCC2_OTHER_Handler
                0x0000ae8e                EIC_EXTINT_11_Handler
                0x0000ae8e                SUPC_BODDET_Handler
                0x0000ae8e                EIC_EXTINT_14_Handler
                0x0000ae8e                OSC32KCTRL_Handler
                0x0000ae8e                EVSYS_1_Handler
                0x0000ae8e                TCC4_MC1_Handler
                0x0000ae8e                SUPC_OTHER_Handler
                0x0000ae8e                WDT_Handler
                0x0000ae8e                EIC_EXTINT_15_Handler
                0x0000ae8e                TCC3_MC1_Handler
                0x0000ae8e                SERCOM5_0_Handler
                0x0000ae8e                TC4_Handler
                0x0000ae8e                TC1_Handler
                0x0000ae8e                TCC1_MC1_Handler
                0x0000ae8e                TCC1_OTHER_Handler
                0x0000ae8e                PAC_Handler
                0x0000ae8e                SERCOM4_1_Handler
                0x0000ae8e                TC3_Handler
                0x0000ae8e                Dummy_Handler
                0x0000ae8e                DAC_RESRDY_0_Handler
                0x0000ae8e                SERCOM5_1_Handler
                0x0000ae8e                DMAC_2_Handler
                0x0000ae8e                TCC0_MC4_Handler
                0x0000ae8e                USB_TRCPT1_Handler
                0x0000ae8e                SERCOM0_1_Handler
                0x0000ae8e                TCC0_MC3_Handler
                0x0000ae8e                EIC_EXTINT_12_Handler
                0x0000ae8e                OSCCTRL_DPLL0_Handler
                0x0000ae8e                SERCOM5_OTHER_Handler
                0x0000ae8e                PM_Handler
                0x0000ae8e                OSCCTRL_DFLL_Handler
                0x0000ae8e                DAC_RESRDY_1_Handler
                0x0000ae8e                USB_OTHER_Handler
                0x0000ae8e                TCC0_OTHER_Handler
                0x0000ae8e                EIC_EXTINT_10_Handler
                0x0000ae8e                TCC1_MC3_Handler
                0x0000ae8e                OSCCTRL_XOSC0_Handler
                0x0000ae8e                TCC0_MC0_Handler
                0x0000ae8e                EIC_EXTINT_2_Handler
                0x0000ae8e                SDHC0_Handler
                0x0000ae8e                SERCOM1_1_Handler
                0x0000ae8e                I2S_Handler
                0x0000ae8e                PCC_Handler
                0x0000ae8e                TCC3_OTHER_Handler
                0x0000ae8e                EIC_EXTINT_13_Handler
                0x0000ae8e                SERCOM1_0_Handler
                0x0000ae8e                PUKCC_Handler
                0x0000ae8e                SERCOM2_1_Handler
                0x0000ae8e                SERCOM1_2_Handler
                0x0000ae8e                SERCOM3_0_Handler
                0x0000ae8e                SERCOM4_2_Handler
                0x0000ae8e                TCC1_MC2_Handler
                0x0000ae8e                ADC1_RESRDY_Handler
                0x0000ae8e                NVMCTRL_1_Handler
                0x0000ae8e                SERCOM5_2_Handler
                0x0000ae8e                SERCOM2_2_Handler
                0x0000ae8e                DAC_EMPTY_1_Handler
                0x0000ae8e                ADC1_OTHER_Handler
                0x0000ae8e                OSCCTRL_DPLL1_Handler
                0x0000ae8e                EIC_EXTINT_3_Handler
                0x0000ae8e                SERCOM3_OTHER_Handler
                0x0000ae8e                EIC_EXTINT_8_Handler
                0x0000ae8e                NVMCTRL_0_Handler
                0x0000ae8e                ADC0_RESRDY_Handler
                0x0000ae8e                ADC0_OTHER_Handler
                0x0000ae8e                MCLK_Handler
                0x0000ae8e                EVSYS_2_Handler
                0x0000ae8e                SERCOM2_OTHER_Handler
                0x0000ae8e                FREQM_Handler
                0x0000ae8e                TC0_Handler
                0x0000ae8e                TCC0_MC1_Handler
                0x0000ae8e                DMAC_3_Handler
                0x0000ae8e                RAMECC_Handler
                0x0000ae8e                TC5_Handler
                0x0000ae8e                SERCOM2_0_Handler
                0x0000ae8e                AES_Handler
                0x0000ae8e                ICM_Handler
                0x0000ae8e                TCC0_MC2_Handler

.text.BL_Start%285
                0x0000aef4        0x2
 .text.BL_Start
                0x0000aef4        0x2 build/LAN9253_D51_SQI_Indirect_mode/production/_ext/108134065/bootmode.o
                0x0000aef4                BL_Start

.text.BL_Stop%286
                0x0000aef6        0x2
 .text.BL_Stop  0x0000aef6        0x2 build/LAN9253_D51_SQI_Indirect_mode/production/_ext/108134065/bootmode.o
                0x0000aef6                BL_Stop

.text.APPL_AckErrorInd%287
                0x0000aef8        0x2
 .text.APPL_AckErrorInd
                0x0000aef8        0x2 build/LAN9253_D51_SQI_Indirect_mode/production/_ext/108134065/sample_app.o
                0x0000aef8                APPL_AckErrorInd

.text.__malloc_lock%288
                0x0000aefa        0x2
 .text.__malloc_lock
                0x0000aefa        0x2 c:/program files (x86)/microchip/xc32/v2.30/bin/bin/../../lib/gcc/pic32c/6.2.1/../../../../pic32c/lib/v7e-m/fpv4-sp/hard\libc.a(lib_a-mlock.o)
                0x0000aefa                __malloc_lock

.text.__malloc_unlock%289
                0x0000aefc        0x2
 .text.__malloc_unlock
                0x0000aefc        0x2 c:/program files (x86)/microchip/xc32/v2.30/bin/bin/../../lib/gcc/pic32c/6.2.1/../../../../pic32c/lib/v7e-m/fpv4-sp/hard\libc.a(lib_a-mlock.o)
                0x0000aefc                __malloc_unlock
